Archive member included       because of file (symbol)

./../build/kernel.a(excArchLib.o)
                              frmwrk.o (excVecInit)
./../build/kernel.a(kernelLib.o)
                              frmwrk.o (kernelPreInit)
./../build/kernel.a(kernelQLib.o)
                              ./../build/kernel.a(kernelLib.o) (workQInit)
./../build/kernel.a(msgQLib.o)
                              frmwrk.o (msgQLibInit)
./../build/kernel.a(semBLib.o)
                              frmwrk.o (semBLibInit)
./../build/kernel.a(semCLib.o)
                              frmwrk.o (semCLibInit)
./../build/kernel.a(semLib.o)
                              ./../build/kernel.a(semBLib.o) (semClassId)
./../build/kernel.a(semMLib.o)
                              frmwrk.o (semMLibInit)
./../build/kernel.a(taskLib.o)
                              ./../build/kernel.a(kernelLib.o) (taskClassId)
./../build/kernel.a(tickLib.o)
                              ./../build/kernel.a(kernelLib.o) (kernelTicks)
./../build/kernel.a(qFifoLib.o)
                              ./../build/kernel.a(kernelLib.o) (qFifoQueueId)
./../build/kernel.a(qJobLib.o)
                              ./../build/kernel.a(msgQLib.o) (qJobTerminate)
./../build/kernel.a(qPriListLib.o)
                              ./../build/kernel.a(kernelLib.o) (qPriListId)
./../build/kernel.a(queueLib.o)
                              ./../build/kernel.a(kernelLib.o) (qInit)
./../build/kernel.a(classLib.o)
                              frmwrk.o (classLibInit)
./../build/kernel.a(memPartLib.o)
                              ./../build/kernel.a(excArchLib.o) (memSysPartId)
./../build/kernel.a(excALib.o)
                              ./../build/kernel.a(excArchLib.o) (excNormVec)
./../build/kernel.a(kernelALib.o)
                              ./../build/kernel.a(msgQLib.o) (kernelExit)
./../build/kernel.a(dllList.o)
                              ./../build/kernel.a(qFifoLib.o) (dllInit)

Allocating common symbols
Common symbol       size              file

workQWriteIx        0x1               ./../build/kernel.a(kernelQLib.o)
workQReadIx         0x1               ./../build/kernel.a(kernelQLib.o)
lowPriId            0x4               demo.o
errno               0x4               libc.o
tickQHead           0x10              ./../build/kernel.a(kernelLib.o)
msgQId              0x4               demo.o
highPriId           0x4               demo.o
kernelAbsTicks      0x8               ./../build/kernel.a(tickLib.o)
semClass            0x30              ./../build/kernel.a(semLib.o)
pJobPool            0x400             ./../build/kernel.a(kernelQLib.o)
taskClass           0x30              ./../build/kernel.a(taskLib.o)
classClass          0x30              ./../build/kernel.a(classLib.o)
semId               0x4               demo.o
windDemoId          0x4               demo.o
readyQHead          0x10              ./../build/kernel.a(kernelLib.o)

Memory Configuration

Name             Origin             Length             Attributes
ram              0x0000000080000000 0x0000000004000000 xw
*default*        0x0000000000000000 0xffffffffffffffff

Linker script and memory map


.text           0x0000000080100000     0x8980
                0x0000000080100000                _ftext=L(.)
 init.o(.text)
 .text          0x0000000080100000       0xa0 init.o
                0x0000000080100090                __main
                0x0000000080100098                __gccmain
                0x0000000080100000                _start
 *(.text)
 .text          0x00000000801000a0      0x590 consol.o
                0x0000000080100258                CONSOL_GetIntNum
                0x000000008010045c                CONSOL_SendCh
                0x000000008010018c                CONSOL_GetChar
                0x00000000801001c4                CONSOL_GetString
                0x000000008010015c                CONSOL_GetCh
                0x00000000801005e8                CONSOL_Printf
                0x00000000801003b4                CONSOL_SendChar
                0x00000000801004e0                CONSOL_Scanf
                0x00000000801000a0                CONSOL_Init
                0x0000000080100498                CONSOL_SendString
 .text          0x0000000080100630      0x210 frmwrk.o
                0x00000000801006ac                C_vMain
                0x0000000080100720                kernelStart
                0x0000000080100630                __vLogo
                0x0000000080100824                usrClock
 .text          0x0000000080100840      0x350 sysLib.o
                0x0000000080100978                sysHwInit2
                0x0000000080100b28                sysClkRateGet
                0x0000000080100b38                sysClkRateSet
                0x0000000080100a40                sysClkDisable
                0x0000000080100a9c                sysClkEnable
                0x00000000801009e0                sysClkConnect
                0x0000000080100848                sysClkInt
 .text          0x0000000080100b90      0xba0 libc.o
                0x0000000080101434                strcpy
                0x0000000080101338                printf
                0x0000000080101370                vsprintf
                0x00000000801016e8                tolower
                0x0000000080101480                strtol
                0x00000000801012d4                memchr
                0x00000000801013c4                sprintf
                0x00000000801012b8                atoi
                0x0000000080101458                strlen
                0x000000008010170c                toupper
 .text          0x0000000080101730      0x320 demo.o
                0x0000000080101730                demo
 .text          0x0000000080101a50      0x1d0 s3_sem1.o
                0x0000000080101b34                s3_sem1
 .text          0x0000000080101c20      0x1b0 s3_sem2.o
                0x0000000080101cf8                s3_sem2
 .text          0x0000000080101dd0      0x450 s4_msgq2.o
                0x00000000801020b8                s4_msgq2
 .text          0x0000000080102220      0x310 s7_inversion1.o
                0x00000000801023e0                s7_inversion
 .text          0x0000000080102530      0x2f0 s7_inversion2.o
                0x00000000801026f0                s7_inversion2
 .text          0x0000000080102820      0x260 cache_s.o
                0x00000000801028bc                IPIPE_vFlush
                0x0000000080102a0c                DCACHE_vFlushAddr
                0x0000000080102820                ICACHE_vInvalidateAddr
 .text          0x0000000080102a80      0x1d0 libc_s.o
                0x0000000080102a80                memcpy
                0x0000000080102bb4                memset
 .text          0x0000000080102c50      0x210 ./../build/kernel.a(excArchLib.o)
                0x0000000080102dc0                intVecBaseSet
                0x0000000080102e4c                intRegsUnlock
                0x0000000080102e00                intVecSet
                0x0000000080102e38                intRegsLock
                0x0000000080102c60                excVecInit
                0x0000000080102cc0                intConnect
                0x0000000080102dc8                intVecBaseGet
                0x0000000080102dd4                intVecGet
 .text          0x0000000080102e60      0xd80 ./../build/kernel.a(kernelLib.o)
                0x000000008010326c                kernelSemDelete
                0x00000000801034cc                kernelPendQPut
                0x00000000801039d8                kernelDelay
                0x000000008010341c                kernelPendQGet
                0x0000000080102f10                kernelInit
                0x0000000080103118                kernelReadQRemove
                0x000000008010387c                kernelTickAnnounce
                0x00000000801037f0                kernelPendQRemove
                0x0000000080103210                kernelResume
                0x0000000080103728                kernelDelete
                0x00000000801036d4                kernelSuspend
                0x0000000080103348                kernelPendQFlush
                0x000000008010304c                kernelSpawn
                0x00000000801035ec                kernelPendQTerminate
                0x0000000080103084                kernelReadyQPut
                0x0000000080102e60                kernelPreInit
                0x0000000080103aac                kernelPrioritySet
 .text          0x0000000080103be0      0x2d0 ./../build/kernel.a(kernelQLib.o)
                0x0000000080103c04                workQAdd0
                0x0000000080103be0                workQInit
                0x0000000080103c98                workQAdd1
                0x0000000080103e9c                workQPanic
                0x0000000080103df0                workQDoWork
                0x0000000080103d3c                workQAdd2
 .text          0x0000000080103eb0      0x6a0 ./../build/kernel.a(msgQLib.o)
                0x000000008010400c                msgQInit
                0x0000000080103f2c                msgQCreate
                0x0000000080103ff4                msgQDelete
                0x00000000801041a0                msgQSend
                0x00000000801042ec                msgQReceive
                0x0000000080103eb0                msgQLibInit
 .text          0x0000000080104550      0x3b0 ./../build/kernel.a(semBLib.o)
                0x000000008010476c                semBGive
                0x00000000801048cc                semBGiveDefer
                0x000000008010467c                semBInit
                0x0000000080104550                semBLibInit
                0x00000000801045e4                semBCreate
                0x00000000801047fc                semBTake
 .text          0x0000000080104900      0x3b0 ./../build/kernel.a(semCLib.o)
                0x0000000080104ac8                semCCoreInit
                0x0000000080104a38                semCInit
                0x0000000080104ba8                semCGiveDefer
                0x0000000080104be4                semCTake
                0x00000000801049a0                semCCreate
                0x0000000080104900                semCLibInit
                0x0000000080104b10                semCGive
 .text          0x0000000080104cb0      0x440 ./../build/kernel.a(semLib.o)
                0x0000000080104da0                semFlush
                0x0000000080104e20                semDestroy
                0x0000000080104ed0                semGiveDefer
                0x0000000080104df0                semDelete
                0x0000000080104d6c                semTake
                0x0000000080104f38                semFlushDefer
                0x0000000080104d1c                semGive
                0x00000000801050e0                semQFlushDefer
                0x0000000080104e08                semTerminal
                0x0000000080104cb0                semLibInit
                0x0000000080105054                semQFlush
                0x0000000080104fa8                semQInit
 .text          0x00000000801050f0      0x560 ./../build/kernel.a(semMLib.o)
                0x00000000801050f0                semMLibInit
                0x0000000080105274                semMCoreInit
                0x00000000801054fc                semMGiveKern
                0x0000000080105160                semMCreate
                0x00000000801055d0                semMPendQPut
                0x00000000801052b0                semMGive
                0x00000000801053dc                semMTake
                0x00000000801051e8                semMInit
 .text          0x0000000080105650      0xac0 ./../build/kernel.a(taskLib.o)
                0x0000000080105734                taskCreate
                0x00000000801056cc                taskSpawn
                0x00000000801060a8                taskUnsafe
                0x0000000080105824                taskInit
                0x0000000080105f70                taskTcb
                0x000000008010608c                taskSafe
                0x0000000080105ec8                taskRtnValueSet
                0x0000000080105d2c                taskDelay
                0x0000000080105f14                taskStackAlloc
                0x00000000801059f4                taskActivate
                0x0000000080106070                taskLock
                0x0000000080105a08                taskResume
                0x0000000080105a90                taskDestroy
                0x0000000080105fa4                taskIdSelf
                0x0000000080105ffc                taskUnlock
                0x0000000080105650                taskLibInit
                0x0000000080105dc0                taskSuspend
                0x0000000080105fb0                exit
 .text          0x0000000080106110       0xa0 ./../build/kernel.a(tickLib.o)
                0x0000000080106110                tickAnnounce
                0x0000000080106158                tickSet
                0x0000000080106198                tickGet
 .text          0x00000000801061b0      0x110 ./../build/kernel.a(qFifoLib.o)
                0x00000000801061d8                qFifoDelete
                0x0000000080106214                qFifoGet
                0x0000000080106260                qFifoEach
                0x0000000080106240                qFifoRemove
                0x00000000801061e0                qFifoPut
                0x00000000801061b0                qFifoCreate
                0x00000000801061b8                qFifoInit
 .text          0x00000000801062c0      0x3a0 ./../build/kernel.a(qJobLib.o)
                0x0000000080106398                qJobTerminate
                0x0000000080106368                qJobDelete
                0x00000000801063b8                qJobPut
                0x00000000801065e4                qJobEach
                0x00000000801064e8                qJobGet
                0x00000000801062c0                qJobCreate
                0x000000008010631c                qJobInit
 .text          0x0000000080106660      0x270 ./../build/kernel.a(qPriListLib.o)
                0x0000000080106660                qPriListCreate
                0x0000000080106720                qPriListRemove
                0x0000000080106740                qPriListResort
                0x00000000801067dc                qPriListAdvance
                0x0000000080106668                qPriListInit
                0x00000000801067e4                qPriListGetExpired
                0x0000000080106688                qPriListDelete
                0x0000000080106870                qPriListEach
                0x0000000080106690                qPriListTerminate
                0x00000000801066f4                qPriListGet
                0x0000000080106850                qPriListKey
                0x0000000080106824                qPriListCalibrate
                0x0000000080106698                qPriListPut
 .text          0x00000000801068d0       0x60 ./../build/kernel.a(queueLib.o)
                0x00000000801068d0                qInit
 .text          0x0000000080106930      0x240 ./../build/kernel.a(classLib.o)
                0x0000000080106b08                objFree
                0x0000000080106a88                objAllocExtra
                0x000000008010697c                classInit
                0x0000000080106a50                classDestroy
                0x0000000080106930                classLibInit
                0x0000000080106b4c                objCoreTerminate
                0x00000000801069cc                classCreate
                0x0000000080106a58                objCoreInit
                0x0000000080106a6c                objAlloc
 .text          0x0000000080106b70      0x8c0 ./../build/kernel.a(memPartLib.o)
                0x0000000080106c78                memPartInit
                0x0000000080106d0c                memAddToPool
                0x0000000080106e20                memPartAllignedAlloc
                0x00000000801073e8                malloc
                0x0000000080106c18                memPartCreate
                0x0000000080106fc8                memPartAlloc
                0x0000000080106d04                memPartDestroy
                0x0000000080106b70                memPartLibInit
                0x0000000080106fe4                memPartFree
                0x0000000080107408                free
 .text          0x0000000080107430      0x2b0 ./../build/kernel.a(excALib.o)
                0x00000000801076a8                intSRGet
                0x0000000080107670                excStub
                0x0000000080107478                excIntStub
                0x0000000080107430                excNormVec
                0x00000000801076c0                intSRSet
 .text          0x00000000801076e0      0x560 ./../build/kernel.a(kernelALib.o)
                0x0000000080107bfc                intUnlock
                0x0000000080107bc8                intLock
                0x0000000080107a24                intExit
                0x00000000801077d4                kernelExit
                0x0000000080107c14                kLogChar
                0x0000000080107a08                kernelTaskEntry
 .text          0x0000000080107c40       0xf0 ./../build/kernel.a(dllList.o)
                0x0000000080107c58                dllInsert
                0x0000000080107d08                dllCount
                0x0000000080107c50                dllDelete
                0x0000000080107c88                dllAdd
                0x0000000080107ca4                dllRemove
                0x0000000080107cd8                dllGet
                0x0000000080107c40                dllInit
                0x0000000080107d30                _ecode=L(.)
 *(.rodata)
 .rodata        0x0000000080107d30       0xd0 consol.o
 .rodata        0x0000000080107e00      0x130 frmwrk.o
 .rodata        0x0000000080107f30      0x220 libc.o
 .rodata        0x0000000080108150       0xf0 demo.o
 .rodata        0x0000000080108240       0x80 s3_sem1.o
 .rodata        0x00000000801082c0       0x80 s3_sem2.o
 .rodata        0x0000000080108340      0x170 s4_msgq2.o
 .rodata        0x00000000801084b0      0x260 s7_inversion1.o
 .rodata        0x0000000080108710      0x260 s7_inversion2.o
 .rodata        0x0000000080108970       0x10 ./../build/kernel.a(kernelLib.o)
                0x0000000080108980                .=ALIGN(0x8)
                0x0000000080108980                _etext=L(.)

.rel.dyn        0x0000000000000000        0x0

.data           0x0000000080108980      0x940
                0x0000000080108980                _fdata=L(.)
 *(.data)
 .data          0x0000000080108980       0x10 frmwrk.o
                0x0000000080108981                CPU_b64Bit
                0x0000000080108980                L2CACHE_bEnabled
 .data          0x0000000080108990      0x1a0 sysLib.o
                0x0000000080108a94                intPrioTable
                0x0000000080108990                ffsMsbTbl
                0x0000000080108a90                sysHashOrder
 .data          0x0000000080108b30      0x100 libc.o
                0x0000000080108b30                _ctype
 .data          0x0000000080108c30       0x10 s3_sem1.o
 .data          0x0000000080108c40       0x10 s3_sem2.o
 .data          0x0000000080108c50      0x420 ./../build/kernel.a(excArchLib.o)
                0x0000000080108c50                areWeNested
                0x0000000080108c54                excBsrTbl
 .data          0x0000000080109070       0x30 ./../build/kernel.a(kernelLib.o)
                0x0000000080109090                rootTaskId
                0x0000000080109084                kernelIntStackBase
                0x0000000080109080                rootMemNBytes
                0x0000000080109070                activeQHead
                0x000000008010908c                pRootMemStart
                0x0000000080109088                kernelIntStackEnd
 .data          0x00000000801090a0       0x10 ./../build/kernel.a(kernelQLib.o)
                0x00000000801090a0                workQIsEmpty
 .data          0x00000000801090b0       0x10 ./../build/kernel.a(msgQLib.o)
                0x00000000801090b0                msgQClassId
 .data          0x00000000801090c0       0x10 ./../build/kernel.a(semBLib.o)
                0x00000000801090c0                semBLibInstalled
 .data          0x00000000801090d0       0xb0 ./../build/kernel.a(semLib.o)
                0x00000000801090f8                semTakeTbl
                0x0000000080109158                semFlushDeferTbl
                0x00000000801090d8                semGiveTbl
                0x00000000801090d4                semClassId
                0x0000000080109138                semGiveDeferTbl
                0x0000000080109118                semFlushTbl
 .data          0x0000000080109180       0x10 ./../build/kernel.a(semMLib.o)
                0x0000000080109180                semMGiveKernWork
 .data          0x0000000080109190       0x20 ./../build/kernel.a(taskLib.o)
                0x00000000801091a4                intCnt
                0x0000000080109198                kernelState
                0x0000000080109190                taskLibInstalled
                0x0000000080109194                taskClassId
                0x000000008010919c                taskIdCurrent
                0x00000000801091a8                taskSrDefault
                0x00000000801091a0                kernelIsIdle
 .data          0x00000000801091b0       0x10 ./../build/kernel.a(tickLib.o)
                0x00000000801091b0                kernelTicks
 .data          0x00000000801091c0       0x40 ./../build/kernel.a(qFifoLib.o)
                0x00000000801091f8                qFifoQueueId
 .data          0x0000000080109200       0x40 ./../build/kernel.a(qJobLib.o)
                0x0000000080109238                qJobClassId
 .data          0x0000000080109240       0x40 ./../build/kernel.a(qPriListLib.o)
                0x0000000080109278                qPriListId
 .data          0x0000000080109280       0x10 ./../build/kernel.a(classLib.o)
                0x0000000080109280                classClassId
 .data          0x0000000080109290       0x20 ./../build/kernel.a(memPartLib.o)
                0x00000000801092a0                memPartSemInitRtn
                0x0000000080109298                memSysPartId
                0x0000000080109294                memPartClassId
                0x000000008010929c                memDefaultAlign
                0x00000000801092a4                memPartDefaultOption
 .data          0x00000000801092b0       0x10 ./../build/kernel.a(excALib.o)
                0x00000000801092b0                excNormVecSize
                0x00000000801092c0                .=ALIGN(0x8)
                0x00000000801112b0                _gp=L((.+0x7ff0))
 *(.lit8)
 *(.lit4)
 *(.sdata)
                0x00000000801092c0                .=ALIGN(0x8)
                0x00000000801092c0                _edata=L(.)
                0x00000000801092c0                _fbss=.

.sbss
 *(.sbss)
 *(.scommon)

.bss            0x00000000801092c0      0x630
 *(.bss)
 .bss           0x00000000801092c0       0x10 consol.o
 .bss           0x00000000801092d0       0x10 s3_sem1.o
 .bss           0x00000000801092e0       0x10 s3_sem2.o
 .bss           0x00000000801092f0       0x10 s4_msgq2.o
 .bss           0x0000000080109300       0x10 s7_inversion1.o
 .bss           0x0000000080109310       0x10 s7_inversion2.o
 .bss           0x0000000080109320       0x40 ./../build/kernel.a(msgQLib.o)
 .bss           0x0000000080109360       0x10 ./../build/kernel.a(semCLib.o)
 .bss           0x0000000080109370       0x10 ./../build/kernel.a(semMLib.o)
 .bss           0x0000000080109380       0x80 ./../build/kernel.a(memPartLib.o)
 *(COMMON)
 COMMON         0x0000000080109400        0x4 libc.o
                                          0x0 (size before relaxing)
                0x0000000080109400                errno
 COMMON         0x0000000080109404       0x14 demo.o
                                          0x0 (size before relaxing)
                0x0000000080109404                lowPriId
                0x0000000080109408                msgQId
                0x000000008010940c                highPriId
                0x0000000080109410                semId
                0x0000000080109414                windDemoId
 *fill*         0x0000000080109418 0xa45c5000000008
 COMMON         0x0000000080109420       0x20 ./../build/kernel.a(kernelLib.o)
                                          0x0 (size before relaxing)
                0x0000000080109420                tickQHead
                0x0000000080109430                readyQHead
 COMMON         0x0000000080109440      0x410 ./../build/kernel.a(kernelQLib.o)
                                          0x0 (size before relaxing)
                0x0000000080109440                workQWriteIx
                0x0000000080109441                workQReadIx
                0x0000000080109450                pJobPool
 COMMON         0x0000000080109850       0x30 ./../build/kernel.a(semLib.o)
                                          0x0 (size before relaxing)
                0x0000000080109850                semClass
 COMMON         0x0000000080109880       0x30 ./../build/kernel.a(taskLib.o)
                                          0x0 (size before relaxing)
                0x0000000080109880                taskClass
 COMMON         0x00000000801098b0        0x8 ./../build/kernel.a(tickLib.o)
                                          0x0 (size before relaxing)
                0x00000000801098b0                kernelAbsTicks
 *fill*         0x00000000801098b8 0xa45c5000000008
 COMMON         0x00000000801098c0       0x30 ./../build/kernel.a(classLib.o)
                                          0x0 (size before relaxing)
                0x00000000801098c0                classClass
                0x00000000801098f0                .=ALIGN(0x8)
                0x00000000801098f0                _freemem=.
                0x00000000801098f0                _end=.

.gptab.sdata
 *(.gptab.data)
 *(.gptab.sdata)

.gptab.sbss
 *(.gptab.bss)
 *(.gptab.sbss)

/DISCARD/
 *(.reginfo)
                0x0000000080108980                PROVIDE (etext, _etext)
                0x00000000801098f0                PROVIDE (edata, .)
                0x00000000801098f0                PROVIDE (end, .)
LOAD consol.o
LOAD frmwrk.o
LOAD sysLib.o
LOAD libc.o
LOAD demo.o
LOAD s3_sem1.o
LOAD s3_sem2.o
LOAD s4_msgq2.o
LOAD s7_inversion1.o
LOAD s7_inversion2.o
LOAD cache_s.o
LOAD excep_s.o
LOAD init.o
LOAD libc_s.o
LOAD ./../build/kernel.a
OUTPUT(./../build/rain.elf elf32-bigmips)

.debug_abbrev   0x0000000000000000      0xdf7
 .debug_abbrev  0x0000000000000000      0x19a consol.o
 .debug_abbrev  0x000000000000019a      0x1cb frmwrk.o
 .debug_abbrev  0x0000000000000365      0x201 sysLib.o
 .debug_abbrev  0x0000000000000566      0x177 libc.o
 .debug_abbrev  0x00000000000006dd      0x153 demo.o
 .debug_abbrev  0x0000000000000830      0x126 s3_sem1.o
 .debug_abbrev  0x0000000000000956      0x126 s3_sem2.o
 .debug_abbrev  0x0000000000000a7c      0x12f s4_msgq2.o
 .debug_abbrev  0x0000000000000bab      0x126 s7_inversion1.o
 .debug_abbrev  0x0000000000000cd1      0x126 s7_inversion2.o

.debug_info     0x0000000000000000     0x4344
 .debug_info    0x0000000000000000      0x732 consol.o
 .debug_info    0x0000000000000732      0x6d8 frmwrk.o
 .debug_info    0x0000000000000e0a      0x84b sysLib.o
 .debug_info    0x0000000000001655      0x8cf libc.o
 .debug_info    0x0000000000001f24      0x6bf demo.o
 .debug_info    0x00000000000025e3      0x5ae s3_sem1.o
 .debug_info    0x0000000000002b91      0x5ae s3_sem2.o
 .debug_info    0x000000000000313f      0x62e s4_msgq2.o
 .debug_info    0x000000000000376d      0x5eb s7_inversion1.o
 .debug_info    0x0000000000003d58      0x5ec s7_inversion2.o

.debug_line     0x0000000000000000     0x23e8
 .debug_line    0x0000000000000000      0x572 consol.o
 .debug_line    0x0000000000000572      0x299 frmwrk.o
 .debug_line    0x000000000000080b      0x465 sysLib.o
 .debug_line    0x0000000000000c70      0x7aa libc.o
 .debug_line    0x000000000000141a      0x2d9 demo.o
 .debug_line    0x00000000000016f3      0x1fc s3_sem1.o
 .debug_line    0x00000000000018ef      0x1dc s3_sem2.o
 .debug_line    0x0000000000001acb      0x2e9 s4_msgq2.o
 .debug_line    0x0000000000001db4      0x31a s7_inversion1.o
 .debug_line    0x00000000000020ce      0x31a s7_inversion2.o

.debug_frame    0x0000000000000000      0x9a4
 .debug_frame   0x0000000000000000      0x16c consol.o
 .debug_frame   0x000000000000016c       0xa4 frmwrk.o
 .debug_frame   0x0000000000000210      0x140 sysLib.o
 .debug_frame   0x0000000000000350      0x1d8 libc.o
 .debug_frame   0x0000000000000528       0xd8 demo.o
 .debug_frame   0x0000000000000600       0xa4 s3_sem1.o
 .debug_frame   0x00000000000006a4       0xa4 s3_sem2.o
 .debug_frame   0x0000000000000748       0xc4 s4_msgq2.o
 .debug_frame   0x000000000000080c       0xcc s7_inversion1.o
 .debug_frame   0x00000000000008d8       0xcc s7_inversion2.o

.debug_pubnames
                0x0000000000000000      0x386
 .debug_pubnames
                0x0000000000000000       0xcf consol.o
 .debug_pubnames
                0x00000000000000cf       0x6b frmwrk.o
 .debug_pubnames
                0x000000000000013a       0xb8 sysLib.o
 .debug_pubnames
                0x00000000000001f2       0x98 libc.o
 .debug_pubnames
                0x000000000000028a       0x5a demo.o
 .debug_pubnames
                0x00000000000002e4       0x1e s3_sem1.o
 .debug_pubnames
                0x0000000000000302       0x1e s3_sem2.o
 .debug_pubnames
                0x0000000000000320       0x1f s4_msgq2.o
 .debug_pubnames
                0x000000000000033f       0x23 s7_inversion1.o
 .debug_pubnames
                0x0000000000000362       0x24 s7_inversion2.o

.debug_aranges  0x0000000000000000      0x140
 .debug_aranges
                0x0000000000000000       0x20 consol.o
 .debug_aranges
                0x0000000000000020       0x20 frmwrk.o
 .debug_aranges
                0x0000000000000040       0x20 sysLib.o
 .debug_aranges
                0x0000000000000060       0x20 libc.o
 .debug_aranges
                0x0000000000000080       0x20 demo.o
 .debug_aranges
                0x00000000000000a0       0x20 s3_sem1.o
 .debug_aranges
                0x00000000000000c0       0x20 s3_sem2.o
 .debug_aranges
                0x00000000000000e0       0x20 s4_msgq2.o
 .debug_aranges
                0x0000000000000100       0x20 s7_inversion1.o
 .debug_aranges
                0x0000000000000120       0x20 s7_inversion2.o
