
./../build/rain.elf:     file format elf32-bigmips

Disassembly of section .text:

ffffffff80100000 <_start>:
ffffffff80100000:	3c1c8011 	lui	$gp,0x8011
ffffffff80100004:	279c12b0 	addiu	$gp,$gp,4784
ffffffff80100008:	40026000 	mfc0	$v0,$12
ffffffff8010000c:	00000040 	sll	$zero,$zero,0x1
ffffffff80100010:	00000040 	sll	$zero,$zero,0x1
ffffffff80100014:	00000040 	sll	$zero,$zero,0x1
ffffffff80100018:	00000040 	sll	$zero,$zero,0x1
ffffffff8010001c:	3c01ffff 	lui	$at,0xffff
ffffffff80100020:	3421fffe 	ori	$at,$at,0xfffe
ffffffff80100024:	00411824 	and	$v1,$v0,$at
ffffffff80100028:	00000000 	nop
ffffffff8010002c:	40836000 	mtc0	$v1,$12
ffffffff80100030:	00000040 	sll	$zero,$zero,0x1
ffffffff80100034:	00000040 	sll	$zero,$zero,0x1
ffffffff80100038:	00000040 	sll	$zero,$zero,0x1
ffffffff8010003c:	00000040 	sll	$zero,$zero,0x1
ffffffff80100040:	3c1d8011 	lui	$sp,0x8011
ffffffff80100044:	27bd98f0 	addiu	$sp,$sp,-26384
ffffffff80100048:	24085000 	li	$t0,20480
ffffffff8010004c:	03a8e821 	addu	$sp,$sp,$t0
ffffffff80100050:	2408fff0 	li	$t0,-16
ffffffff80100054:	03a8e824 	and	$sp,$sp,$t0
ffffffff80100058:	3c088011 	lui	$t0,0x8011
ffffffff8010005c:	250892c0 	addiu	$t0,$t0,-27968
ffffffff80100060:	3c098011 	lui	$t1,0x8011
ffffffff80100064:	252998f0 	addiu	$t1,$t1,-26384
ffffffff80100068:	ad000000 	sw	$zero,0($t0)
ffffffff8010006c:	1509fffe 	bne	$t0,$t1,ffffffff80100068 <_ftext+0x68>
ffffffff80100070:	25080004 	addiu	$t0,$t0,4
ffffffff80100074:	03e08025 	move	$s0,$ra
ffffffff80100078:	3c088010 	lui	$t0,0x8010
ffffffff8010007c:	250806ac 	addiu	$t0,$t0,1708
ffffffff80100080:	0100f809 	jalr	$t0
ffffffff80100084:	00000000 	nop
ffffffff80100088:	02000008 	jr	$s0
ffffffff8010008c:	00000000 	nop

ffffffff80100090 <__main>:
ffffffff80100090:	03e00008 	jr	$ra
ffffffff80100094:	00000000 	nop

ffffffff80100098 <__gccmain>:
ffffffff80100098:	03e00008 	jr	$ra
ffffffff8010009c:	00000000 	nop

ffffffff801000a0 <CONSOL_Init>:
ffffffff801000a0:	3c030003 	lui	$v1,0x3
ffffffff801000a4:	34638400 	ori	$v1,$v1,0x8400
ffffffff801000a8:	0064001b 	divu	$zero,$v1,$a0
ffffffff801000ac:	3c06b400 	lui	$a2,0xb400
ffffffff801000b0:	34c603fb 	ori	$a2,$a2,0x3fb
ffffffff801000b4:	30a500ff 	andi	$a1,$a1,0xff
ffffffff801000b8:	3c018011 	lui	$at,0x8011
ffffffff801000bc:	a02592c0 	sb	$a1,-27968($at)
ffffffff801000c0:	3c018011 	lui	$at,0x8011
ffffffff801000c4:	a02092c1 	sb	$zero,-27967($at)
ffffffff801000c8:	50800001 	beqzl	$a0,ffffffff801000d0 <CONSOL_Init+0x30>
ffffffff801000cc:	0007000d 	break	0x7
ffffffff801000d0:	90c20000 	lbu	$v0,0($a2)
ffffffff801000d4:	3c04b400 	lui	$a0,0xb400
ffffffff801000d8:	3c07b400 	lui	$a3,0xb400
ffffffff801000dc:	34420080 	ori	$v0,$v0,0x80
ffffffff801000e0:	a0c20000 	sb	$v0,0($a2)
ffffffff801000e4:	348403f8 	ori	$a0,$a0,0x3f8
ffffffff801000e8:	34e703f9 	ori	$a3,$a3,0x3f9
ffffffff801000ec:	24080003 	li	$t0,3
ffffffff801000f0:	00001812 	mflo	$v1
ffffffff801000f4:	3062ffff 	andi	$v0,$v1,0xffff
ffffffff801000f8:	00021202 	srl	$v0,$v0,0x8
ffffffff801000fc:	a0820000 	sb	$v0,0($a0)
ffffffff80100100:	a0e30000 	sb	$v1,0($a3)
ffffffff80100104:	90c20000 	lbu	$v0,0($a2)
ffffffff80100108:	3042007f 	andi	$v0,$v0,0x7f
ffffffff8010010c:	a0c20000 	sb	$v0,0($a2)
ffffffff80100110:	a0c80000 	sb	$t0,0($a2)
ffffffff80100114:	10a00006 	beqz	$a1,ffffffff80100130 <CONSOL_Init+0x90>
ffffffff80100118:	3c02b400 	lui	$v0,0xb400
ffffffff8010011c:	344203fa 	ori	$v0,$v0,0x3fa
ffffffff80100120:	24030047 	li	$v1,71
ffffffff80100124:	a0430000 	sb	$v1,0($v0)
ffffffff80100128:	0804004f 	j	ffffffff8010013c <CONSOL_Init+0x9c>
ffffffff8010012c:	3c02b400 	lui	$v0,0xb400
ffffffff80100130:	344203fa 	ori	$v0,$v0,0x3fa
ffffffff80100134:	a0400000 	sb	$zero,0($v0)
ffffffff80100138:	3c02b400 	lui	$v0,0xb400
ffffffff8010013c:	3c03b400 	lui	$v1,0xb400
ffffffff80100140:	344203fc 	ori	$v0,$v0,0x3fc
ffffffff80100144:	2404002b 	li	$a0,43
ffffffff80100148:	346303f9 	ori	$v1,$v1,0x3f9
ffffffff8010014c:	a0440000 	sb	$a0,0($v0)
ffffffff80100150:	a0600000 	sb	$zero,0($v1)
ffffffff80100154:	03e00008 	jr	$ra
ffffffff80100158:	00000000 	nop

ffffffff8010015c <CONSOL_GetCh>:
ffffffff8010015c:	3c03b400 	lui	$v1,0xb400
ffffffff80100160:	346303fd 	ori	$v1,$v1,0x3fd
ffffffff80100164:	90620000 	lbu	$v0,0($v1)
ffffffff80100168:	30420001 	andi	$v0,$v0,0x1
ffffffff8010016c:	1040fffd 	beqz	$v0,ffffffff80100164 <CONSOL_GetCh+0x8>
ffffffff80100170:	00000000 	nop
ffffffff80100174:	3c03b400 	lui	$v1,0xb400
ffffffff80100178:	346303f8 	ori	$v1,$v1,0x3f8
ffffffff8010017c:	90620000 	lbu	$v0,0($v1)
ffffffff80100180:	00021600 	sll	$v0,$v0,0x18
ffffffff80100184:	03e00008 	jr	$ra
ffffffff80100188:	00021603 	sra	$v0,$v0,0x18

ffffffff8010018c <CONSOL_GetChar>:
ffffffff8010018c:	3c02b400 	lui	$v0,0xb400
ffffffff80100190:	344203fd 	ori	$v0,$v0,0x3fd
ffffffff80100194:	90430000 	lbu	$v1,0($v0)
ffffffff80100198:	30630001 	andi	$v1,$v1,0x1
ffffffff8010019c:	10600007 	beqz	$v1,ffffffff801001bc <CONSOL_GetChar+0x30>
ffffffff801001a0:	00802825 	move	$a1,$a0
ffffffff801001a4:	3c03b400 	lui	$v1,0xb400
ffffffff801001a8:	346303f8 	ori	$v1,$v1,0x3f8
ffffffff801001ac:	90640000 	lbu	$a0,0($v1)
ffffffff801001b0:	24020001 	li	$v0,1
ffffffff801001b4:	03e00008 	jr	$ra
ffffffff801001b8:	a0a40000 	sb	$a0,0($a1)
ffffffff801001bc:	03e00008 	jr	$ra
ffffffff801001c0:	00001025 	move	$v0,$zero

ffffffff801001c4 <CONSOL_GetString>:
ffffffff801001c4:	27bdffd8 	addiu	$sp,$sp,-40
ffffffff801001c8:	afb00010 	sw	$s0,16($sp)
ffffffff801001cc:	00808025 	move	$s0,$a0
ffffffff801001d0:	afb3001c 	sw	$s3,28($sp)
ffffffff801001d4:	afb20018 	sw	$s2,24($sp)
ffffffff801001d8:	afb10014 	sw	$s1,20($sp)
ffffffff801001dc:	2413000d 	li	$s3,13
ffffffff801001e0:	02008825 	move	$s1,$s0
ffffffff801001e4:	24120008 	li	$s2,8
ffffffff801001e8:	08040088 	j	ffffffff80100220 <CONSOL_GetString+0x5c>
ffffffff801001ec:	afbf0020 	sw	$ra,32($sp)
ffffffff801001f0:	54520009 	bnel	$v0,$s2,ffffffff80100218 <CONSOL_GetString+0x54>
ffffffff801001f4:	a2020000 	sb	$v0,0($s0)
ffffffff801001f8:	10600009 	beqz	$v1,ffffffff80100220 <CONSOL_GetString+0x5c>
ffffffff801001fc:	00000000 	nop
ffffffff80100200:	3c048010 	lui	$a0,0x8010
ffffffff80100204:	24847d30 	addiu	$a0,$a0,32048
ffffffff80100208:	0c040126 	jal	ffffffff80100498 <CONSOL_SendString>
ffffffff8010020c:	2610ffff 	addiu	$s0,$s0,-1
ffffffff80100210:	08040088 	j	ffffffff80100220 <CONSOL_GetString+0x5c>
ffffffff80100214:	00000000 	nop
ffffffff80100218:	0c040117 	jal	ffffffff8010045c <CONSOL_SendCh>
ffffffff8010021c:	26100001 	addiu	$s0,$s0,1
ffffffff80100220:	0c040057 	jal	ffffffff8010015c <CONSOL_GetCh>
ffffffff80100224:	00000000 	nop
ffffffff80100228:	00402025 	move	$a0,$v0
ffffffff8010022c:	1453fff0 	bne	$v0,$s3,ffffffff801001f0 <CONSOL_GetString+0x2c>
ffffffff80100230:	0230182a 	slt	$v1,$s1,$s0
ffffffff80100234:	a2000000 	sb	$zero,0($s0)
ffffffff80100238:	8fbf0020 	lw	$ra,32($sp)
ffffffff8010023c:	8fb3001c 	lw	$s3,28($sp)
ffffffff80100240:	8fb20018 	lw	$s2,24($sp)
ffffffff80100244:	8fb10014 	lw	$s1,20($sp)
ffffffff80100248:	8fb00010 	lw	$s0,16($sp)
ffffffff8010024c:	2404000a 	li	$a0,10
ffffffff80100250:	08040117 	j	ffffffff8010045c <CONSOL_SendCh>
ffffffff80100254:	27bd0028 	addiu	$sp,$sp,40

ffffffff80100258 <CONSOL_GetIntNum>:
ffffffff80100258:	27bdffb8 	addiu	$sp,$sp,-72
ffffffff8010025c:	afb00030 	sw	$s0,48($sp)
ffffffff80100260:	27b00010 	addiu	$s0,$sp,16
ffffffff80100264:	afb3003c 	sw	$s3,60($sp)
ffffffff80100268:	afb20038 	sw	$s2,56($sp)
ffffffff8010026c:	afb10034 	sw	$s1,52($sp)
ffffffff80100270:	afbf0040 	sw	$ra,64($sp)
ffffffff80100274:	0c040071 	jal	ffffffff801001c4 <CONSOL_GetString>
ffffffff80100278:	02002025 	move	$a0,$s0
ffffffff8010027c:	82030000 	lb	$v1,0($s0)
ffffffff80100280:	2402002d 	li	$v0,45
ffffffff80100284:	2412000a 	li	$s2,10
ffffffff80100288:	00009825 	move	$s3,$zero
ffffffff8010028c:	00008825 	move	$s1,$zero
ffffffff80100290:	14620004 	bne	$v1,$v0,ffffffff801002a4 <CONSOL_GetIntNum+0x4c>
ffffffff80100294:	92040000 	lbu	$a0,0($s0)
ffffffff80100298:	27b00011 	addiu	$s0,$sp,17
ffffffff8010029c:	92040000 	lbu	$a0,0($s0)
ffffffff801002a0:	24130001 	li	$s3,1
ffffffff801002a4:	00041600 	sll	$v0,$a0,0x18
ffffffff801002a8:	00021603 	sra	$v0,$v0,0x18
ffffffff801002ac:	24030030 	li	$v1,48
ffffffff801002b0:	14430008 	bne	$v0,$v1,ffffffff801002d4 <CONSOL_GetIntNum+0x7c>
ffffffff801002b4:	24020078 	li	$v0,120
ffffffff801002b8:	82030001 	lb	$v1,1($s0)
ffffffff801002bc:	10620003 	beq	$v1,$v0,ffffffff801002cc <CONSOL_GetIntNum+0x74>
ffffffff801002c0:	24020058 	li	$v0,88
ffffffff801002c4:	14620003 	bne	$v1,$v0,ffffffff801002d4 <CONSOL_GetIntNum+0x7c>
ffffffff801002c8:	00000000 	nop
ffffffff801002cc:	24120010 	li	$s2,16
ffffffff801002d0:	26100002 	addiu	$s0,$s0,2
ffffffff801002d4:	0c040516 	jal	ffffffff80101458 <strlen>
ffffffff801002d8:	02002025 	move	$a0,$s0
ffffffff801002dc:	00402825 	move	$a1,$v0
ffffffff801002e0:	24a7ffff 	addiu	$a3,$a1,-1
ffffffff801002e4:	02072021 	addu	$a0,$s0,$a3
ffffffff801002e8:	80830000 	lb	$v1,0($a0)
ffffffff801002ec:	24020068 	li	$v0,104
ffffffff801002f0:	10620003 	beq	$v1,$v0,ffffffff80100300 <CONSOL_GetIntNum+0xa8>
ffffffff801002f4:	24020048 	li	$v0,72
ffffffff801002f8:	14620005 	bne	$v1,$v0,ffffffff80100310 <CONSOL_GetIntNum+0xb8>
ffffffff801002fc:	2402000a 	li	$v0,10
ffffffff80100300:	a0800000 	sb	$zero,0($a0)
ffffffff80100304:	24a7fffe 	addiu	$a3,$a1,-2
ffffffff80100308:	24120010 	li	$s2,16
ffffffff8010030c:	2402000a 	li	$v0,10
ffffffff80100310:	16420007 	bne	$s2,$v0,ffffffff80100330 <CONSOL_GetIntNum+0xd8>
ffffffff80100314:	00000000 	nop
ffffffff80100318:	0c0404ae 	jal	ffffffff801012b8 <atoi>
ffffffff8010031c:	02002025 	move	$a0,$s0
ffffffff80100320:	1260001c 	beqz	$s3,ffffffff80100394 <CONSOL_GetIntNum+0x13c>
ffffffff80100324:	00408825 	move	$s1,$v0
ffffffff80100328:	080400e5 	j	ffffffff80100394 <CONSOL_GetIntNum+0x13c>
ffffffff8010032c:	00118823 	negu	$s1,$s1
ffffffff80100330:	04e00016 	bltz	$a3,ffffffff8010038c <CONSOL_GetIntNum+0x134>
ffffffff80100334:	00002825 	move	$a1,$zero
ffffffff80100338:	02051821 	addu	$v1,$s0,$a1
ffffffff8010033c:	80640000 	lb	$a0,0($v1)
ffffffff80100340:	24a50001 	addiu	$a1,$a1,1
ffffffff80100344:	00e5302a 	slt	$a2,$a3,$a1
ffffffff80100348:	2882003a 	slti	$v0,$a0,58
ffffffff8010034c:	1440000a 	bnez	$v0,ffffffff80100378 <CONSOL_GetIntNum+0x120>
ffffffff80100350:	90630000 	lbu	$v1,0($v1)
ffffffff80100354:	30620020 	andi	$v0,$v1,0x20
ffffffff80100358:	14400004 	bnez	$v0,ffffffff8010036c <CONSOL_GetIntNum+0x114>
ffffffff8010035c:	00111100 	sll	$v0,$s1,0x4
ffffffff80100360:	00441021 	addu	$v0,$v0,$a0
ffffffff80100364:	080400e1 	j	ffffffff80100384 <CONSOL_GetIntNum+0x12c>
ffffffff80100368:	2451ffc9 	addiu	$s1,$v0,-55
ffffffff8010036c:	00441021 	addu	$v0,$v0,$a0
ffffffff80100370:	080400e1 	j	ffffffff80100384 <CONSOL_GetIntNum+0x12c>
ffffffff80100374:	2451ffa9 	addiu	$s1,$v0,-87
ffffffff80100378:	00111100 	sll	$v0,$s1,0x4
ffffffff8010037c:	00441021 	addu	$v0,$v0,$a0
ffffffff80100380:	2451ffd0 	addiu	$s1,$v0,-48
ffffffff80100384:	10c0ffed 	beqz	$a2,ffffffff8010033c <CONSOL_GetIntNum+0xe4>
ffffffff80100388:	02051821 	addu	$v1,$s0,$a1
ffffffff8010038c:	00111023 	negu	$v0,$s1
ffffffff80100390:	0053880b 	movn	$s1,$v0,$s3
ffffffff80100394:	02201025 	move	$v0,$s1
ffffffff80100398:	8fbf0040 	lw	$ra,64($sp)
ffffffff8010039c:	8fb3003c 	lw	$s3,60($sp)
ffffffff801003a0:	8fb20038 	lw	$s2,56($sp)
ffffffff801003a4:	8fb10034 	lw	$s1,52($sp)
ffffffff801003a8:	8fb00030 	lw	$s0,48($sp)
ffffffff801003ac:	03e00008 	jr	$ra
ffffffff801003b0:	27bd0048 	addiu	$sp,$sp,72

ffffffff801003b4 <CONSOL_SendChar>:
ffffffff801003b4:	3c028011 	lui	$v0,0x8011
ffffffff801003b8:	904292c0 	lbu	$v0,-27968($v0)
ffffffff801003bc:	00042600 	sll	$a0,$a0,0x18
ffffffff801003c0:	1040001c 	beqz	$v0,ffffffff80100434 <CONSOL_SendChar+0x80>
ffffffff801003c4:	00042603 	sra	$a0,$a0,0x18
ffffffff801003c8:	3c02b400 	lui	$v0,0xb400
ffffffff801003cc:	344203fd 	ori	$v0,$v0,0x3fd
ffffffff801003d0:	90430000 	lbu	$v1,0($v0)
ffffffff801003d4:	30630020 	andi	$v1,$v1,0x20
ffffffff801003d8:	1460000f 	bnez	$v1,ffffffff80100418 <CONSOL_SendChar+0x64>
ffffffff801003dc:	3c02b400 	lui	$v0,0xb400
ffffffff801003e0:	3c038011 	lui	$v1,0x8011
ffffffff801003e4:	906392c1 	lbu	$v1,-27967($v1)
ffffffff801003e8:	2c620010 	sltiu	$v0,$v1,16
ffffffff801003ec:	50400005 	beqzl	$v0,ffffffff80100404 <CONSOL_SendChar+0x50>
ffffffff801003f0:	3c03b400 	lui	$v1,0xb400
ffffffff801003f4:	3c02b400 	lui	$v0,0xb400
ffffffff801003f8:	24630001 	addiu	$v1,$v1,1
ffffffff801003fc:	08040108 	j	ffffffff80100420 <CONSOL_SendChar+0x6c>
ffffffff80100400:	344203f8 	ori	$v0,$v0,0x3f8
ffffffff80100404:	346303fd 	ori	$v1,$v1,0x3fd
ffffffff80100408:	90620000 	lbu	$v0,0($v1)
ffffffff8010040c:	30420020 	andi	$v0,$v0,0x20
ffffffff80100410:	1040fffd 	beqz	$v0,ffffffff80100408 <CONSOL_SendChar+0x54>
ffffffff80100414:	3c02b400 	lui	$v0,0xb400
ffffffff80100418:	344203f8 	ori	$v0,$v0,0x3f8
ffffffff8010041c:	24030001 	li	$v1,1
ffffffff80100420:	a0440000 	sb	$a0,0($v0)
ffffffff80100424:	3c018011 	lui	$at,0x8011
ffffffff80100428:	a02392c1 	sb	$v1,-27967($at)
ffffffff8010042c:	03e00008 	jr	$ra
ffffffff80100430:	00000000 	nop
ffffffff80100434:	3c03b400 	lui	$v1,0xb400
ffffffff80100438:	346303fd 	ori	$v1,$v1,0x3fd
ffffffff8010043c:	90620000 	lbu	$v0,0($v1)
ffffffff80100440:	30420020 	andi	$v0,$v0,0x20
ffffffff80100444:	1040fffd 	beqz	$v0,ffffffff8010043c <CONSOL_SendChar+0x88>
ffffffff80100448:	3c02b400 	lui	$v0,0xb400
ffffffff8010044c:	344203f8 	ori	$v0,$v0,0x3f8
ffffffff80100450:	a0440000 	sb	$a0,0($v0)
ffffffff80100454:	03e00008 	jr	$ra
ffffffff80100458:	00000000 	nop

ffffffff8010045c <CONSOL_SendCh>:
ffffffff8010045c:	27bdffe8 	addiu	$sp,$sp,-24
ffffffff80100460:	00042600 	sll	$a0,$a0,0x18
ffffffff80100464:	afb00010 	sw	$s0,16($sp)
ffffffff80100468:	2402000a 	li	$v0,10
ffffffff8010046c:	00048603 	sra	$s0,$a0,0x18
ffffffff80100470:	afbf0014 	sw	$ra,20($sp)
ffffffff80100474:	16020003 	bne	$s0,$v0,ffffffff80100484 <CONSOL_SendCh+0x28>
ffffffff80100478:	2404000d 	li	$a0,13
ffffffff8010047c:	0c0400ed 	jal	ffffffff801003b4 <CONSOL_SendChar>
ffffffff80100480:	00000000 	nop
ffffffff80100484:	02002025 	move	$a0,$s0
ffffffff80100488:	8fbf0014 	lw	$ra,20($sp)
ffffffff8010048c:	8fb00010 	lw	$s0,16($sp)
ffffffff80100490:	080400ed 	j	ffffffff801003b4 <CONSOL_SendChar>
ffffffff80100494:	27bd0018 	addiu	$sp,$sp,24

ffffffff80100498 <CONSOL_SendString>:
ffffffff80100498:	27bdffe8 	addiu	$sp,$sp,-24
ffffffff8010049c:	afb00010 	sw	$s0,16($sp)
ffffffff801004a0:	afbf0014 	sw	$ra,20($sp)
ffffffff801004a4:	00808025 	move	$s0,$a0
ffffffff801004a8:	82020000 	lb	$v0,0($s0)
ffffffff801004ac:	10400008 	beqz	$v0,ffffffff801004d0 <CONSOL_SendString+0x38>
ffffffff801004b0:	92040000 	lbu	$a0,0($s0)
ffffffff801004b4:	00042600 	sll	$a0,$a0,0x18
ffffffff801004b8:	00042603 	sra	$a0,$a0,0x18
ffffffff801004bc:	0c040117 	jal	ffffffff8010045c <CONSOL_SendCh>
ffffffff801004c0:	26100001 	addiu	$s0,$s0,1
ffffffff801004c4:	82020000 	lb	$v0,0($s0)
ffffffff801004c8:	1440fffa 	bnez	$v0,ffffffff801004b4 <CONSOL_SendString+0x1c>
ffffffff801004cc:	92040000 	lbu	$a0,0($s0)
ffffffff801004d0:	8fbf0014 	lw	$ra,20($sp)
ffffffff801004d4:	8fb00010 	lw	$s0,16($sp)
ffffffff801004d8:	03e00008 	jr	$ra
ffffffff801004dc:	27bd0018 	addiu	$sp,$sp,24

ffffffff801004e0 <CONSOL_Scanf>:
ffffffff801004e0:	afa40000 	sw	$a0,0($sp)
ffffffff801004e4:	afa50004 	sw	$a1,4($sp)
ffffffff801004e8:	afa60008 	sw	$a2,8($sp)
ffffffff801004ec:	afa7000c 	sw	$a3,12($sp)
ffffffff801004f0:	27bdffe0 	addiu	$sp,$sp,-32
ffffffff801004f4:	afb20018 	sw	$s2,24($sp)
ffffffff801004f8:	afb10014 	sw	$s1,20($sp)
ffffffff801004fc:	00809025 	move	$s2,$a0
ffffffff80100500:	afbf001c 	sw	$ra,28($sp)
ffffffff80100504:	afb00010 	sw	$s0,16($sp)
ffffffff80100508:	82430000 	lb	$v1,0($s2)
ffffffff8010050c:	27b10024 	addiu	$s1,$sp,36
ffffffff80100510:	1060002f 	beqz	$v1,ffffffff801005d0 <CONSOL_Scanf+0xf0>
ffffffff80100514:	26520001 	addiu	$s2,$s2,1
ffffffff80100518:	24020025 	li	$v0,37
ffffffff8010051c:	14620028 	bne	$v1,$v0,ffffffff801005c0 <CONSOL_Scanf+0xe0>
ffffffff80100520:	92440000 	lbu	$a0,0($s2)
ffffffff80100524:	2482ffbd 	addiu	$v0,$a0,-67
ffffffff80100528:	00021600 	sll	$v0,$v0,0x18
ffffffff8010052c:	00021603 	sra	$v0,$v0,0x18
ffffffff80100530:	2c430031 	sltiu	$v1,$v0,49
ffffffff80100534:	50600023 	beqzl	$v1,ffffffff801005c4 <CONSOL_Scanf+0xe4>
ffffffff80100538:	00041600 	sll	$v0,$a0,0x18
ffffffff8010053c:	00021080 	sll	$v0,$v0,0x2
ffffffff80100540:	3c038010 	lui	$v1,0x8010
ffffffff80100544:	00621821 	addu	$v1,$v1,$v0
ffffffff80100548:	8c637d38 	lw	$v1,32056($v1)
ffffffff8010054c:	00600008 	jr	$v1
ffffffff80100550:	00000000 	nop
ffffffff80100554:	26220003 	addiu	$v0,$s1,3
ffffffff80100558:	2403fffc 	li	$v1,-4
ffffffff8010055c:	00438824 	and	$s1,$v0,$v1
ffffffff80100560:	02202825 	move	$a1,$s1
ffffffff80100564:	8ca40000 	lw	$a0,0($a1)
ffffffff80100568:	0c040071 	jal	ffffffff801001c4 <CONSOL_GetString>
ffffffff8010056c:	26310004 	addiu	$s1,$s1,4
ffffffff80100570:	08040170 	j	ffffffff801005c0 <CONSOL_Scanf+0xe0>
ffffffff80100574:	92440000 	lbu	$a0,0($s2)
ffffffff80100578:	26240003 	addiu	$a0,$s1,3
ffffffff8010057c:	2402fffc 	li	$v0,-4
ffffffff80100580:	00828824 	and	$s1,$a0,$v0
ffffffff80100584:	02201825 	move	$v1,$s1
ffffffff80100588:	0c040096 	jal	ffffffff80100258 <CONSOL_GetIntNum>
ffffffff8010058c:	8c700000 	lw	$s0,0($v1)
ffffffff80100590:	26310004 	addiu	$s1,$s1,4
ffffffff80100594:	0804016f 	j	ffffffff801005bc <CONSOL_Scanf+0xdc>
ffffffff80100598:	ae020000 	sw	$v0,0($s0)
ffffffff8010059c:	26240003 	addiu	$a0,$s1,3
ffffffff801005a0:	2402fffc 	li	$v0,-4
ffffffff801005a4:	00828824 	and	$s1,$a0,$v0
ffffffff801005a8:	02201825 	move	$v1,$s1
ffffffff801005ac:	0c040057 	jal	ffffffff8010015c <CONSOL_GetCh>
ffffffff801005b0:	8c700000 	lw	$s0,0($v1)
ffffffff801005b4:	26310004 	addiu	$s1,$s1,4
ffffffff801005b8:	a2020000 	sb	$v0,0($s0)
ffffffff801005bc:	92440000 	lbu	$a0,0($s2)
ffffffff801005c0:	00041600 	sll	$v0,$a0,0x18
ffffffff801005c4:	00021e03 	sra	$v1,$v0,0x18
ffffffff801005c8:	1460ffd3 	bnez	$v1,ffffffff80100518 <CONSOL_Scanf+0x38>
ffffffff801005cc:	26520001 	addiu	$s2,$s2,1
ffffffff801005d0:	8fbf001c 	lw	$ra,28($sp)
ffffffff801005d4:	8fb20018 	lw	$s2,24($sp)
ffffffff801005d8:	8fb10014 	lw	$s1,20($sp)
ffffffff801005dc:	8fb00010 	lw	$s0,16($sp)
ffffffff801005e0:	03e00008 	jr	$ra
ffffffff801005e4:	27bd0020 	addiu	$sp,$sp,32

ffffffff801005e8 <CONSOL_Printf>:
ffffffff801005e8:	afa7000c 	sw	$a3,12($sp)
ffffffff801005ec:	afa40000 	sw	$a0,0($sp)
ffffffff801005f0:	afa50004 	sw	$a1,4($sp)
ffffffff801005f4:	afa60008 	sw	$a2,8($sp)
ffffffff801005f8:	27bdfee8 	addiu	$sp,$sp,-280
ffffffff801005fc:	00802825 	move	$a1,$a0
ffffffff80100600:	27a6011c 	addiu	$a2,$sp,284
ffffffff80100604:	afbf0110 	sw	$ra,272($sp)
ffffffff80100608:	0c0404dc 	jal	ffffffff80101370 <vsprintf>
ffffffff8010060c:	27a40010 	addiu	$a0,$sp,16
ffffffff80100610:	0c040126 	jal	ffffffff80100498 <CONSOL_SendString>
ffffffff80100614:	27a40010 	addiu	$a0,$sp,16
ffffffff80100618:	8fbf0110 	lw	$ra,272($sp)
ffffffff8010061c:	03e00008 	jr	$ra
ffffffff80100620:	27bd0118 	addiu	$sp,$sp,280
	...

ffffffff80100630 <__vLogo>:
ffffffff80100630:	27bdffe0 	addiu	$sp,$sp,-32
ffffffff80100634:	3c028010 	lui	$v0,0x8010
ffffffff80100638:	24427e44 	addiu	$v0,$v0,32324
ffffffff8010063c:	3c048010 	lui	$a0,0x8010
ffffffff80100640:	24847e00 	addiu	$a0,$a0,32256
ffffffff80100644:	3c058010 	lui	$a1,0x8010
ffffffff80100648:	24a57e18 	addiu	$a1,$a1,32280
ffffffff8010064c:	3c068010 	lui	$a2,0x8010
ffffffff80100650:	24c67e24 	addiu	$a2,$a2,32292
ffffffff80100654:	3c078010 	lui	$a3,0x8010
ffffffff80100658:	24e77e2c 	addiu	$a3,$a3,32300
ffffffff8010065c:	afbf0018 	sw	$ra,24($sp)
ffffffff80100660:	0c04017a 	jal	ffffffff801005e8 <CONSOL_Printf>
ffffffff80100664:	afa20010 	sw	$v0,16($sp)
ffffffff80100668:	3c048010 	lui	$a0,0x8010
ffffffff8010066c:	24847e4c 	addiu	$a0,$a0,32332
ffffffff80100670:	3c058010 	lui	$a1,0x8010
ffffffff80100674:	24a57e68 	addiu	$a1,$a1,32360
ffffffff80100678:	3c068010 	lui	$a2,0x8010
ffffffff8010067c:	24c67e78 	addiu	$a2,$a2,32376
ffffffff80100680:	3c078010 	lui	$a3,0x8010
ffffffff80100684:	24e77e84 	addiu	$a3,$a3,32388
ffffffff80100688:	0c04017a 	jal	ffffffff801005e8 <CONSOL_Printf>
ffffffff8010068c:	00000000 	nop
ffffffff80100690:	8fbf0018 	lw	$ra,24($sp)
ffffffff80100694:	3c048010 	lui	$a0,0x8010
ffffffff80100698:	24847e90 	addiu	$a0,$a0,32400
ffffffff8010069c:	3c058010 	lui	$a1,0x8010
ffffffff801006a0:	24a57ea4 	addiu	$a1,$a1,32420
ffffffff801006a4:	0804017a 	j	ffffffff801005e8 <CONSOL_Printf>
ffffffff801006a8:	27bd0020 	addiu	$sp,$sp,32

ffffffff801006ac <C_vMain>:
ffffffff801006ac:	27bdffe0 	addiu	$sp,$sp,-32
ffffffff801006b0:	afbf0018 	sw	$ra,24($sp)
ffffffff801006b4:	0c041a4c 	jal	ffffffff80106930 <classLibInit>
ffffffff801006b8:	00000000 	nop
ffffffff801006bc:	0c041594 	jal	ffffffff80105650 <taskLibInit>
ffffffff801006c0:	00000000 	nop
ffffffff801006c4:	0c040b98 	jal	ffffffff80102e60 <kernelPreInit>
ffffffff801006c8:	00000000 	nop
ffffffff801006cc:	0c041154 	jal	ffffffff80104550 <semBLibInit>
ffffffff801006d0:	00000000 	nop
ffffffff801006d4:	0c04143c 	jal	ffffffff801050f0 <semMLibInit>
ffffffff801006d8:	00000000 	nop
ffffffff801006dc:	0c041240 	jal	ffffffff80104900 <semCLibInit>
ffffffff801006e0:	00000000 	nop
ffffffff801006e4:	0c040fac 	jal	ffffffff80103eb0 <msgQLibInit>
ffffffff801006e8:	00000000 	nop
ffffffff801006ec:	3c050001 	lui	$a1,0x1
ffffffff801006f0:	3c020008 	lui	$v0,0x8
ffffffff801006f4:	3c048010 	lui	$a0,0x8010
ffffffff801006f8:	24840720 	addiu	$a0,$a0,1824
ffffffff801006fc:	34a59000 	ori	$a1,$a1,0x9000
ffffffff80100700:	3c068011 	lui	$a2,0x8011
ffffffff80100704:	24c6e8f0 	addiu	$a2,$a2,-5904
ffffffff80100708:	3c078400 	lui	$a3,0x8400
ffffffff8010070c:	0c040bc4 	jal	ffffffff80102f10 <kernelInit>
ffffffff80100710:	afa20010 	sw	$v0,16($sp)
ffffffff80100714:	8fbf0018 	lw	$ra,24($sp)
ffffffff80100718:	03e00008 	jr	$ra
ffffffff8010071c:	27bd0020 	addiu	$sp,$sp,32

ffffffff80100720 <kernelStart>:
ffffffff80100720:	27bdffd8 	addiu	$sp,$sp,-40
ffffffff80100724:	afb1001c 	sw	$s1,28($sp)
ffffffff80100728:	00808825 	move	$s1,$a0
ffffffff8010072c:	3c040001 	lui	$a0,0x1
ffffffff80100730:	afb00018 	sw	$s0,24($sp)
ffffffff80100734:	3484c200 	ori	$a0,$a0,0xc200
ffffffff80100738:	00a08025 	move	$s0,$a1
ffffffff8010073c:	afb20020 	sw	$s2,32($sp)
ffffffff80100740:	afbf0024 	sw	$ra,36($sp)
ffffffff80100744:	0c040028 	jal	ffffffff801000a0 <CONSOL_Init>
ffffffff80100748:	00002825 	move	$a1,$zero
ffffffff8010074c:	02202025 	move	$a0,$s1
ffffffff80100750:	0c041adc 	jal	ffffffff80106b70 <memPartLibInit>
ffffffff80100754:	02002825 	move	$a1,$s0
ffffffff80100758:	0c040b18 	jal	ffffffff80102c60 <excVecInit>
ffffffff8010075c:	24120001 	li	$s2,1
ffffffff80100760:	3c048010 	lui	$a0,0x8010
ffffffff80100764:	24840824 	addiu	$a0,$a0,2084
ffffffff80100768:	0c040278 	jal	ffffffff801009e0 <sysClkConnect>
ffffffff8010076c:	00002825 	move	$a1,$zero
ffffffff80100770:	0c0402ce 	jal	ffffffff80100b38 <sysClkRateSet>
ffffffff80100774:	2404003c 	li	$a0,60
ffffffff80100778:	0c040290 	jal	ffffffff80100a40 <sysClkDisable>
ffffffff8010077c:	00000000 	nop
ffffffff80100780:	0c0402a7 	jal	ffffffff80100a9c <sysClkEnable>
ffffffff80100784:	00000000 	nop
ffffffff80100788:	0c04018c 	jal	ffffffff80100630 <__vLogo>
ffffffff8010078c:	00000000 	nop
ffffffff80100790:	02202825 	move	$a1,$s1
ffffffff80100794:	3c048010 	lui	$a0,0x8010
ffffffff80100798:	24847ec8 	addiu	$a0,$a0,32456
ffffffff8010079c:	0c04017a 	jal	ffffffff801005e8 <CONSOL_Printf>
ffffffff801007a0:	02003025 	move	$a2,$s0
ffffffff801007a4:	3c048010 	lui	$a0,0x8010
ffffffff801007a8:	24847efc 	addiu	$a0,$a0,32508
ffffffff801007ac:	0c04017a 	jal	ffffffff801005e8 <CONSOL_Printf>
ffffffff801007b0:	2411001b 	li	$s1,27
ffffffff801007b4:	0c0405cc 	jal	ffffffff80101730 <demo>
ffffffff801007b8:	2404000a 	li	$a0,10
ffffffff801007bc:	0c0409bc 	jal	ffffffff801026f0 <s7_inversion2>
ffffffff801007c0:	2410000d 	li	$s0,13
ffffffff801007c4:	0c040063 	jal	ffffffff8010018c <CONSOL_GetChar>
ffffffff801007c8:	27a40010 	addiu	$a0,$sp,16
ffffffff801007cc:	14520011 	bne	$v0,$s2,ffffffff80100814 <kernelStart+0xf4>
ffffffff801007d0:	83a20010 	lb	$v0,16($sp)
ffffffff801007d4:	14510003 	bne	$v0,$s1,ffffffff801007e4 <kernelStart+0xc4>
ffffffff801007d8:	93a30010 	lbu	$v1,16($sp)
ffffffff801007dc:	080401f7 	j	ffffffff801007dc <kernelStart+0xbc>
ffffffff801007e0:	00000000 	nop
ffffffff801007e4:	00031600 	sll	$v0,$v1,0x18
ffffffff801007e8:	00021603 	sra	$v0,$v0,0x18
ffffffff801007ec:	14500007 	bne	$v0,$s0,ffffffff8010080c <kernelStart+0xec>
ffffffff801007f0:	00402025 	move	$a0,$v0
ffffffff801007f4:	3c048010 	lui	$a0,0x8010
ffffffff801007f8:	24847f20 	addiu	$a0,$a0,32544
ffffffff801007fc:	0c04017a 	jal	ffffffff801005e8 <CONSOL_Printf>
ffffffff80100800:	00000000 	nop
ffffffff80100804:	08040205 	j	ffffffff80100814 <kernelStart+0xf4>
ffffffff80100808:	00000000 	nop
ffffffff8010080c:	0c0400ed 	jal	ffffffff801003b4 <CONSOL_SendChar>
ffffffff80100810:	00000000 	nop
ffffffff80100814:	0c04174b 	jal	ffffffff80105d2c <taskDelay>
ffffffff80100818:	24040078 	li	$a0,120
ffffffff8010081c:	080401f1 	j	ffffffff801007c4 <kernelStart+0xa4>
ffffffff80100820:	00000000 	nop

ffffffff80100824 <usrClock>:
ffffffff80100824:	27bdffe8 	addiu	$sp,$sp,-24
ffffffff80100828:	afbf0010 	sw	$ra,16($sp)
ffffffff8010082c:	8fbf0010 	lw	$ra,16($sp)
ffffffff80100830:	08041844 	j	ffffffff80106110 <tickAnnounce>
ffffffff80100834:	27bd0018 	addiu	$sp,$sp,24
	...

ffffffff80100840 <dummyISR>:
ffffffff80100840:	03e00008 	jr	$ra
ffffffff80100844:	00000000 	nop

ffffffff80100848 <sysClkInt>:
ffffffff80100848:	3c028011 	lui	$v0,0x8011
ffffffff8010084c:	8c428b14 	lw	$v0,-29932($v0)
ffffffff80100850:	27bdffe8 	addiu	$sp,$sp,-24
ffffffff80100854:	afbf0010 	sw	$ra,16($sp)
ffffffff80100858:	0040f809 	jalr	$v0
ffffffff8010085c:	00002025 	move	$a0,$zero
ffffffff80100860:	8fbf0010 	lw	$ra,16($sp)
ffffffff80100864:	03e00008 	jr	$ra
ffffffff80100868:	27bd0018 	addiu	$sp,$sp,24

ffffffff8010086c <sharedInt0>:
ffffffff8010086c:	27bdffe0 	addiu	$sp,$sp,-32
ffffffff80100870:	afb10014 	sw	$s1,20($sp)
ffffffff80100874:	afbf0018 	sw	$ra,24($sp)
ffffffff80100878:	0c041ef2 	jal	ffffffff80107bc8 <intLock>
ffffffff8010087c:	afb00010 	sw	$s0,16($sp)
ffffffff80100880:	3c03b400 	lui	$v1,0xb400
ffffffff80100884:	34630020 	ori	$v1,$v1,0x20
ffffffff80100888:	2407000c 	li	$a3,12
ffffffff8010088c:	a0670000 	sb	$a3,0($v1)
ffffffff80100890:	90650000 	lbu	$a1,0($v1)
ffffffff80100894:	3c06b400 	lui	$a2,0xb400
ffffffff80100898:	00402025 	move	$a0,$v0
ffffffff8010089c:	30b10007 	andi	$s1,$a1,0x7
ffffffff801008a0:	24020002 	li	$v0,2
ffffffff801008a4:	34c600a0 	ori	$a2,$a2,0xa0
ffffffff801008a8:	16220005 	bne	$s1,$v0,ffffffff801008c0 <sharedInt0+0x54>
ffffffff801008ac:	24030007 	li	$v1,7
ffffffff801008b0:	a0c70000 	sb	$a3,0($a2)
ffffffff801008b4:	90c20000 	lbu	$v0,0($a2)
ffffffff801008b8:	30420007 	andi	$v0,$v0,0x7
ffffffff801008bc:	24510008 	addiu	$s1,$v0,8
ffffffff801008c0:	16230008 	bne	$s1,$v1,ffffffff801008e4 <sharedInt0+0x78>
ffffffff801008c4:	2402000b 	li	$v0,11
ffffffff801008c8:	3c01b400 	lui	$at,0xb400
ffffffff801008cc:	a0220020 	sb	$v0,32($at)
ffffffff801008d0:	3c03b400 	lui	$v1,0xb400
ffffffff801008d4:	90630020 	lbu	$v1,32($v1)
ffffffff801008d8:	2402ffff 	li	$v0,-1
ffffffff801008dc:	30630080 	andi	$v1,$v1,0x80
ffffffff801008e0:	0043880b 	movn	$s1,$v0,$v1
ffffffff801008e4:	0c041eff 	jal	ffffffff80107bfc <intUnlock>
ffffffff801008e8:	00000000 	nop
ffffffff801008ec:	0620001d 	bltz	$s1,ffffffff80100964 <sharedInt0+0xf8>
ffffffff801008f0:	26300047 	addiu	$s0,$s1,71
ffffffff801008f4:	0c040b75 	jal	ffffffff80102dd4 <intVecGet>
ffffffff801008f8:	00102080 	sll	$a0,$s0,0x2
ffffffff801008fc:	10400003 	beqz	$v0,ffffffff8010090c <sharedInt0+0xa0>
ffffffff80100900:	02002025 	move	$a0,$s0
ffffffff80100904:	0040f809 	jalr	$v0
ffffffff80100908:	00000000 	nop
ffffffff8010090c:	0c041ef2 	jal	ffffffff80107bc8 <intLock>
ffffffff80100910:	00000000 	nop
ffffffff80100914:	3c06b400 	lui	$a2,0xb400
ffffffff80100918:	34c60021 	ori	$a2,$a2,0x21
ffffffff8010091c:	90c30000 	lbu	$v1,0($a2)
ffffffff80100920:	24050001 	li	$a1,1
ffffffff80100924:	02252804 	sllv	$a1,$a1,$s1
ffffffff80100928:	36270060 	ori	$a3,$s1,0x60
ffffffff8010092c:	8fbf0018 	lw	$ra,24($sp)
ffffffff80100930:	8fb10014 	lw	$s1,20($sp)
ffffffff80100934:	8fb00010 	lw	$s0,16($sp)
ffffffff80100938:	306300ff 	andi	$v1,$v1,0xff
ffffffff8010093c:	00402025 	move	$a0,$v0
ffffffff80100940:	00051027 	nor	$v0,$zero,$a1
ffffffff80100944:	00621024 	and	$v0,$v1,$v0
ffffffff80100948:	00651825 	or	$v1,$v1,$a1
ffffffff8010094c:	a0c30000 	sb	$v1,0($a2)
ffffffff80100950:	3c01b400 	lui	$at,0xb400
ffffffff80100954:	a0270020 	sb	$a3,32($at)
ffffffff80100958:	a0c20000 	sb	$v0,0($a2)
ffffffff8010095c:	08041eff 	j	ffffffff80107bfc <intUnlock>
ffffffff80100960:	27bd0020 	addiu	$sp,$sp,32
ffffffff80100964:	8fbf0018 	lw	$ra,24($sp)
ffffffff80100968:	8fb10014 	lw	$s1,20($sp)
ffffffff8010096c:	8fb00010 	lw	$s0,16($sp)
ffffffff80100970:	03e00008 	jr	$ra
ffffffff80100974:	27bd0020 	addiu	$sp,$sp,32

ffffffff80100978 <sysHwInit2>:
ffffffff80100978:	27bdffe8 	addiu	$sp,$sp,-24
ffffffff8010097c:	afb00010 	sw	$s0,16($sp)
ffffffff80100980:	afbf0014 	sw	$ra,20($sp)
ffffffff80100984:	24100041 	li	$s0,65
ffffffff80100988:	00102080 	sll	$a0,$s0,0x2
ffffffff8010098c:	02003025 	move	$a2,$s0
ffffffff80100990:	3c058010 	lui	$a1,0x8010
ffffffff80100994:	24a50840 	addiu	$a1,$a1,2112
ffffffff80100998:	0c040b30 	jal	ffffffff80102cc0 <intConnect>
ffffffff8010099c:	26100001 	addiu	$s0,$s0,1
ffffffff801009a0:	2a03004e 	slti	$v1,$s0,78
ffffffff801009a4:	1460fff9 	bnez	$v1,ffffffff8010098c <sysHwInit2+0x14>
ffffffff801009a8:	00102080 	sll	$a0,$s0,0x2
ffffffff801009ac:	24040104 	li	$a0,260
ffffffff801009b0:	3c058010 	lui	$a1,0x8010
ffffffff801009b4:	24a5086c 	addiu	$a1,$a1,2156
ffffffff801009b8:	0c040b30 	jal	ffffffff80102cc0 <intConnect>
ffffffff801009bc:	00003025 	move	$a2,$zero
ffffffff801009c0:	8fbf0014 	lw	$ra,20($sp)
ffffffff801009c4:	8fb00010 	lw	$s0,16($sp)
ffffffff801009c8:	2404011c 	li	$a0,284
ffffffff801009cc:	3c058010 	lui	$a1,0x8010
ffffffff801009d0:	24a50848 	addiu	$a1,$a1,2120
ffffffff801009d4:	00003025 	move	$a2,$zero
ffffffff801009d8:	08040b30 	j	ffffffff80102cc0 <intConnect>
ffffffff801009dc:	27bd0018 	addiu	$sp,$sp,24

ffffffff801009e0 <sysClkConnect>:
ffffffff801009e0:	3c028011 	lui	$v0,0x8011
ffffffff801009e4:	8c428b20 	lw	$v0,-29920($v0)
ffffffff801009e8:	27bdffe0 	addiu	$sp,$sp,-32
ffffffff801009ec:	afb10014 	sw	$s1,20($sp)
ffffffff801009f0:	afb00010 	sw	$s0,16($sp)
ffffffff801009f4:	afbf0018 	sw	$ra,24($sp)
ffffffff801009f8:	00808025 	move	$s0,$a0
ffffffff801009fc:	14400003 	bnez	$v0,ffffffff80100a0c <sysClkConnect+0x2c>
ffffffff80100a00:	00a08825 	move	$s1,$a1
ffffffff80100a04:	0c04025e 	jal	ffffffff80100978 <sysHwInit2>
ffffffff80100a08:	00000000 	nop
ffffffff80100a0c:	3c018011 	lui	$at,0x8011
ffffffff80100a10:	ac308b14 	sw	$s0,-29932($at)
ffffffff80100a14:	3c018011 	lui	$at,0x8011
ffffffff80100a18:	ac318b18 	sw	$s1,-29928($at)
ffffffff80100a1c:	8fbf0018 	lw	$ra,24($sp)
ffffffff80100a20:	8fb10014 	lw	$s1,20($sp)
ffffffff80100a24:	8fb00010 	lw	$s0,16($sp)
ffffffff80100a28:	24020001 	li	$v0,1
ffffffff80100a2c:	3c018011 	lui	$at,0x8011
ffffffff80100a30:	ac228b20 	sw	$v0,-29920($at)
ffffffff80100a34:	00001025 	move	$v0,$zero
ffffffff80100a38:	03e00008 	jr	$ra
ffffffff80100a3c:	27bd0020 	addiu	$sp,$sp,32

ffffffff80100a40 <sysClkDisable>:
ffffffff80100a40:	3c028011 	lui	$v0,0x8011
ffffffff80100a44:	8c428b1c 	lw	$v0,-29924($v0)
ffffffff80100a48:	27bdffe8 	addiu	$sp,$sp,-24
ffffffff80100a4c:	10400010 	beqz	$v0,ffffffff80100a90 <sysClkDisable+0x50>
ffffffff80100a50:	afbf0010 	sw	$ra,16($sp)
ffffffff80100a54:	0c041ef2 	jal	ffffffff80107bc8 <intLock>
ffffffff80100a58:	00000000 	nop
ffffffff80100a5c:	3c03b400 	lui	$v1,0xb400
ffffffff80100a60:	3c05b400 	lui	$a1,0xb400
ffffffff80100a64:	34a50040 	ori	$a1,$a1,0x40
ffffffff80100a68:	34630043 	ori	$v1,$v1,0x43
ffffffff80100a6c:	24040038 	li	$a0,56
ffffffff80100a70:	a0640000 	sb	$a0,0($v1)
ffffffff80100a74:	a0a00000 	sb	$zero,0($a1)
ffffffff80100a78:	00402025 	move	$a0,$v0
ffffffff80100a7c:	a0a00000 	sb	$zero,0($a1)
ffffffff80100a80:	0c041eff 	jal	ffffffff80107bfc <intUnlock>
ffffffff80100a84:	00000000 	nop
ffffffff80100a88:	3c018011 	lui	$at,0x8011
ffffffff80100a8c:	ac208b1c 	sw	$zero,-29924($at)
ffffffff80100a90:	8fbf0010 	lw	$ra,16($sp)
ffffffff80100a94:	03e00008 	jr	$ra
ffffffff80100a98:	27bd0018 	addiu	$sp,$sp,24

ffffffff80100a9c <sysClkEnable>:
ffffffff80100a9c:	3c028011 	lui	$v0,0x8011
ffffffff80100aa0:	8c428b1c 	lw	$v0,-29924($v0)
ffffffff80100aa4:	27bdffe8 	addiu	$sp,$sp,-24
ffffffff80100aa8:	afbf0014 	sw	$ra,20($sp)
ffffffff80100aac:	1440001a 	bnez	$v0,ffffffff80100b18 <sysClkEnable+0x7c>
ffffffff80100ab0:	afb00010 	sw	$s0,16($sp)
ffffffff80100ab4:	3c028011 	lui	$v0,0x8011
ffffffff80100ab8:	8c428b24 	lw	$v0,-29916($v0)
ffffffff80100abc:	3c100012 	lui	$s0,0x12
ffffffff80100ac0:	361034de 	ori	$s0,$s0,0x34de
ffffffff80100ac4:	0202001a 	div	$zero,$s0,$v0
ffffffff80100ac8:	50400001 	beqzl	$v0,ffffffff80100ad0 <sysClkEnable+0x34>
ffffffff80100acc:	0007000d 	break	0x7
ffffffff80100ad0:	00008012 	mflo	$s0
ffffffff80100ad4:	0c041ef2 	jal	ffffffff80107bc8 <intLock>
ffffffff80100ad8:	00000000 	nop
ffffffff80100adc:	3c04b400 	lui	$a0,0xb400
ffffffff80100ae0:	34840043 	ori	$a0,$a0,0x43
ffffffff80100ae4:	24030036 	li	$v1,54
ffffffff80100ae8:	3c05b400 	lui	$a1,0xb400
ffffffff80100aec:	a0830000 	sb	$v1,0($a0)
ffffffff80100af0:	34a50040 	ori	$a1,$a1,0x40
ffffffff80100af4:	00402025 	move	$a0,$v0
ffffffff80100af8:	00101202 	srl	$v0,$s0,0x8
ffffffff80100afc:	a0b00000 	sb	$s0,0($a1)
ffffffff80100b00:	a0a20000 	sb	$v0,0($a1)
ffffffff80100b04:	0c041eff 	jal	ffffffff80107bfc <intUnlock>
ffffffff80100b08:	00000000 	nop
ffffffff80100b0c:	24020001 	li	$v0,1
ffffffff80100b10:	3c018011 	lui	$at,0x8011
ffffffff80100b14:	ac228b1c 	sw	$v0,-29924($at)
ffffffff80100b18:	8fbf0014 	lw	$ra,20($sp)
ffffffff80100b1c:	8fb00010 	lw	$s0,16($sp)
ffffffff80100b20:	03e00008 	jr	$ra
ffffffff80100b24:	27bd0018 	addiu	$sp,$sp,24

ffffffff80100b28 <sysClkRateGet>:
ffffffff80100b28:	3c028011 	lui	$v0,0x8011
ffffffff80100b2c:	8c428b24 	lw	$v0,-29916($v0)
ffffffff80100b30:	03e00008 	jr	$ra
ffffffff80100b34:	00000000 	nop

ffffffff80100b38 <sysClkRateSet>:
ffffffff80100b38:	2483ffff 	addiu	$v1,$a0,-1
ffffffff80100b3c:	27bdffe8 	addiu	$sp,$sp,-24
ffffffff80100b40:	2c630e10 	sltiu	$v1,$v1,3600
ffffffff80100b44:	afbf0010 	sw	$ra,16($sp)
ffffffff80100b48:	1060000c 	beqz	$v1,ffffffff80100b7c <sysClkRateSet+0x44>
ffffffff80100b4c:	24020001 	li	$v0,1
ffffffff80100b50:	3c028011 	lui	$v0,0x8011
ffffffff80100b54:	8c428b1c 	lw	$v0,-29924($v0)
ffffffff80100b58:	3c018011 	lui	$at,0x8011
ffffffff80100b5c:	ac248b24 	sw	$a0,-29916($at)
ffffffff80100b60:	50400006 	beqzl	$v0,ffffffff80100b7c <sysClkRateSet+0x44>
ffffffff80100b64:	00001025 	move	$v0,$zero
ffffffff80100b68:	0c040290 	jal	ffffffff80100a40 <sysClkDisable>
ffffffff80100b6c:	00000000 	nop
ffffffff80100b70:	0c0402a7 	jal	ffffffff80100a9c <sysClkEnable>
ffffffff80100b74:	00000000 	nop
ffffffff80100b78:	00001025 	move	$v0,$zero
ffffffff80100b7c:	8fbf0010 	lw	$ra,16($sp)
ffffffff80100b80:	03e00008 	jr	$ra
ffffffff80100b84:	27bd0018 	addiu	$sp,$sp,24
	...

ffffffff80100b90 <_doprntx>:
ffffffff80100b90:	27bdff88 	addiu	$sp,$sp,-120
ffffffff80100b94:	3c028010 	lui	$v0,0x8010
ffffffff80100b98:	24427f30 	addiu	$v0,$v0,32560
ffffffff80100b9c:	afb20058 	sw	$s2,88($sp)
ffffffff80100ba0:	afb10054 	sw	$s1,84($sp)
ffffffff80100ba4:	afbf0074 	sw	$ra,116($sp)
ffffffff80100ba8:	afbe0070 	sw	$s8,112($sp)
ffffffff80100bac:	afb7006c 	sw	$s7,108($sp)
ffffffff80100bb0:	afb60068 	sw	$s6,104($sp)
ffffffff80100bb4:	afb50064 	sw	$s5,100($sp)
ffffffff80100bb8:	afb40060 	sw	$s4,96($sp)
ffffffff80100bbc:	afb3005c 	sw	$s3,92($sp)
ffffffff80100bc0:	afb00050 	sw	$s0,80($sp)
ffffffff80100bc4:	afa2003c 	sw	$v0,60($sp)
ffffffff80100bc8:	00a08825 	move	$s1,$a1
ffffffff80100bcc:	afa60080 	sw	$a2,128($sp)
ffffffff80100bd0:	afa70084 	sw	$a3,132($sp)
ffffffff80100bd4:	00809025 	move	$s2,$a0
ffffffff80100bd8:	afa00030 	sw	$zero,48($sp)
ffffffff80100bdc:	92440000 	lbu	$a0,0($s2)
ffffffff80100be0:	108001a9 	beqz	$a0,ffffffff80101288 <_doprntx+0x6f8>
ffffffff80100be4:	8fa20030 	lw	$v0,48($sp)
ffffffff80100be8:	24020025 	li	$v0,37
ffffffff80100bec:	1082001c 	beq	$a0,$v0,ffffffff80100c60 <_doprntx+0xd0>
ffffffff80100bf0:	0000b025 	move	$s6,$zero
ffffffff80100bf4:	2413000a 	li	$s3,10
ffffffff80100bf8:	24100025 	li	$s0,37
ffffffff80100bfc:	10930005 	beq	$a0,$s3,ffffffff80100c14 <_doprntx+0x84>
ffffffff80100c00:	8fa30080 	lw	$v1,128($sp)
ffffffff80100c04:	0060f809 	jalr	$v1
ffffffff80100c08:	8fa50084 	lw	$a1,132($sp)
ffffffff80100c0c:	08040311 	j	ffffffff80100c44 <_doprntx+0xb4>
ffffffff80100c10:	8fa20030 	lw	$v0,48($sp)
ffffffff80100c14:	8fa50084 	lw	$a1,132($sp)
ffffffff80100c18:	8fa20080 	lw	$v0,128($sp)
ffffffff80100c1c:	0040f809 	jalr	$v0
ffffffff80100c20:	2404000d 	li	$a0,13
ffffffff80100c24:	8fa50084 	lw	$a1,132($sp)
ffffffff80100c28:	8fa30080 	lw	$v1,128($sp)
ffffffff80100c2c:	0060f809 	jalr	$v1
ffffffff80100c30:	2404000a 	li	$a0,10
ffffffff80100c34:	8fa50030 	lw	$a1,48($sp)
ffffffff80100c38:	24a50001 	addiu	$a1,$a1,1
ffffffff80100c3c:	afa50030 	sw	$a1,48($sp)
ffffffff80100c40:	8fa20030 	lw	$v0,48($sp)
ffffffff80100c44:	26520001 	addiu	$s2,$s2,1
ffffffff80100c48:	92440000 	lbu	$a0,0($s2)
ffffffff80100c4c:	24420001 	addiu	$v0,$v0,1
ffffffff80100c50:	10800182 	beqz	$a0,ffffffff8010125c <_doprntx+0x6cc>
ffffffff80100c54:	afa20030 	sw	$v0,48($sp)
ffffffff80100c58:	1490ffe8 	bne	$a0,$s0,ffffffff80100bfc <_doprntx+0x6c>
ffffffff80100c5c:	0000b025 	move	$s6,$zero
ffffffff80100c60:	afa00034 	sw	$zero,52($sp)
ffffffff80100c64:	afa00038 	sw	$zero,56($sp)
ffffffff80100c68:	2414ffff 	li	$s4,-1
ffffffff80100c6c:	1080017b 	beqz	$a0,ffffffff8010125c <_doprntx+0x6cc>
ffffffff80100c70:	00003025 	move	$a2,$zero
ffffffff80100c74:	26520001 	addiu	$s2,$s2,1
ffffffff80100c78:	92440000 	lbu	$a0,0($s2)
ffffffff80100c7c:	2c820079 	sltiu	$v0,$a0,121
ffffffff80100c80:	10400179 	beqz	$v0,ffffffff80101268 <_doprntx+0x6d8>
ffffffff80100c84:	8fa20030 	lw	$v0,48($sp)
ffffffff80100c88:	00041080 	sll	$v0,$a0,0x2
ffffffff80100c8c:	3c038010 	lui	$v1,0x8010
ffffffff80100c90:	00621821 	addu	$v1,$v1,$v0
ffffffff80100c94:	8c637f60 	lw	$v1,32608($v1)
ffffffff80100c98:	00600008 	jr	$v1
ffffffff80100c9c:	00000000 	nop
ffffffff80100ca0:	50c0fff4 	beqzl	$a2,ffffffff80100c74 <_doprntx+0xe4>
ffffffff80100ca4:	24060020 	li	$a2,32
ffffffff80100ca8:	0804031e 	j	ffffffff80100c78 <_doprntx+0xe8>
ffffffff80100cac:	26520001 	addiu	$s2,$s2,1
ffffffff80100cb0:	0804031d 	j	ffffffff80100c74 <_doprntx+0xe4>
ffffffff80100cb4:	36d60008 	ori	$s6,$s6,0x8
ffffffff80100cb8:	26220003 	addiu	$v0,$s1,3
ffffffff80100cbc:	2403fffc 	li	$v1,-4
ffffffff80100cc0:	00438824 	and	$s1,$v0,$v1
ffffffff80100cc4:	02202025 	move	$a0,$s1
ffffffff80100cc8:	8c840000 	lw	$a0,0($a0)
ffffffff80100ccc:	26310004 	addiu	$s1,$s1,4
ffffffff80100cd0:	0481ffe8 	bgez	$a0,ffffffff80100c74 <_doprntx+0xe4>
ffffffff80100cd4:	afa40038 	sw	$a0,56($sp)
ffffffff80100cd8:	00801825 	move	$v1,$a0
ffffffff80100cdc:	00031823 	negu	$v1,$v1
ffffffff80100ce0:	afa30038 	sw	$v1,56($sp)
ffffffff80100ce4:	0804031d 	j	ffffffff80100c74 <_doprntx+0xe4>
ffffffff80100ce8:	36d60010 	ori	$s6,$s6,0x10
ffffffff80100cec:	0804031d 	j	ffffffff80100c74 <_doprntx+0xe4>
ffffffff80100cf0:	2406002b 	li	$a2,43
ffffffff80100cf4:	26520001 	addiu	$s2,$s2,1
ffffffff80100cf8:	92430000 	lbu	$v1,0($s2)
ffffffff80100cfc:	2402002a 	li	$v0,42
ffffffff80100d00:	14620008 	bne	$v1,$v0,ffffffff80100d24 <_doprntx+0x194>
ffffffff80100d04:	00031600 	sll	$v0,$v1,0x18
ffffffff80100d08:	26220003 	addiu	$v0,$s1,3
ffffffff80100d0c:	2403fffc 	li	$v1,-4
ffffffff80100d10:	00438824 	and	$s1,$v0,$v1
ffffffff80100d14:	02202025 	move	$a0,$s1
ffffffff80100d18:	8c900000 	lw	$s0,0($a0)
ffffffff80100d1c:	0804035c 	j	ffffffff80100d70 <_doprntx+0x1e0>
ffffffff80100d20:	26310004 	addiu	$s1,$s1,4
ffffffff80100d24:	04400011 	bltz	$v0,ffffffff80100d6c <_doprntx+0x1dc>
ffffffff80100d28:	00008025 	move	$s0,$zero
ffffffff80100d2c:	08040355 	j	ffffffff80100d54 <_doprntx+0x1c4>
ffffffff80100d30:	92440000 	lbu	$a0,0($s2)
ffffffff80100d34:	26520001 	addiu	$s2,$s2,1
ffffffff80100d38:	00501021 	addu	$v0,$v0,$s0
ffffffff80100d3c:	82430000 	lb	$v1,0($s2)
ffffffff80100d40:	00021040 	sll	$v0,$v0,0x1
ffffffff80100d44:	00441021 	addu	$v0,$v0,$a0
ffffffff80100d48:	04600008 	bltz	$v1,ffffffff80100d6c <_doprntx+0x1dc>
ffffffff80100d4c:	2450ffd0 	addiu	$s0,$v0,-48
ffffffff80100d50:	92440000 	lbu	$a0,0($s2)
ffffffff80100d54:	3c028011 	lui	$v0,0x8011
ffffffff80100d58:	00441021 	addu	$v0,$v0,$a0
ffffffff80100d5c:	90428b30 	lbu	$v0,-29904($v0)
ffffffff80100d60:	30420004 	andi	$v0,$v0,0x4
ffffffff80100d64:	1440fff3 	bnez	$v0,ffffffff80100d34 <_doprntx+0x1a4>
ffffffff80100d68:	00101080 	sll	$v0,$s0,0x2
ffffffff80100d6c:	2652ffff 	addiu	$s2,$s2,-1
ffffffff80100d70:	0200a025 	move	$s4,$s0
ffffffff80100d74:	2a82ffff 	slti	$v0,$s4,-1
ffffffff80100d78:	5440ffbe 	bnezl	$v0,ffffffff80100c74 <_doprntx+0xe4>
ffffffff80100d7c:	2414ffff 	li	$s4,-1
ffffffff80100d80:	0804031e 	j	ffffffff80100c78 <_doprntx+0xe8>
ffffffff80100d84:	26520001 	addiu	$s2,$s2,1
ffffffff80100d88:	0804031d 	j	ffffffff80100c74 <_doprntx+0xe4>
ffffffff80100d8c:	36d60020 	ori	$s6,$s6,0x20
ffffffff80100d90:	00008025 	move	$s0,$zero
ffffffff80100d94:	3c058011 	lui	$a1,0x8011
ffffffff80100d98:	24a58b30 	addiu	$a1,$a1,-29904
ffffffff80100d9c:	00101080 	sll	$v0,$s0,0x2
ffffffff80100da0:	26520001 	addiu	$s2,$s2,1
ffffffff80100da4:	00501021 	addu	$v0,$v0,$s0
ffffffff80100da8:	82430000 	lb	$v1,0($s2)
ffffffff80100dac:	00021040 	sll	$v0,$v0,0x1
ffffffff80100db0:	00441021 	addu	$v0,$v0,$a0
ffffffff80100db4:	04600008 	bltz	$v1,ffffffff80100dd8 <_doprntx+0x248>
ffffffff80100db8:	2450ffd0 	addiu	$s0,$v0,-48
ffffffff80100dbc:	92420000 	lbu	$v0,0($s2)
ffffffff80100dc0:	00402025 	move	$a0,$v0
ffffffff80100dc4:	00851821 	addu	$v1,$a0,$a1
ffffffff80100dc8:	90620000 	lbu	$v0,0($v1)
ffffffff80100dcc:	30420004 	andi	$v0,$v0,0x4
ffffffff80100dd0:	1440fff3 	bnez	$v0,ffffffff80100da0 <_doprntx+0x210>
ffffffff80100dd4:	00101080 	sll	$v0,$s0,0x2
ffffffff80100dd8:	afb00038 	sw	$s0,56($sp)
ffffffff80100ddc:	0804031d 	j	ffffffff80100c74 <_doprntx+0xe4>
ffffffff80100de0:	2652ffff 	addiu	$s2,$s2,-1
ffffffff80100de4:	0804031d 	j	ffffffff80100c74 <_doprntx+0xe4>
ffffffff80100de8:	36d60002 	ori	$s6,$s6,0x2
ffffffff80100dec:	0804031d 	j	ffffffff80100c74 <_doprntx+0xe4>
ffffffff80100df0:	36d60004 	ori	$s6,$s6,0x4
ffffffff80100df4:	0804031d 	j	ffffffff80100c74 <_doprntx+0xe4>
ffffffff80100df8:	36d60001 	ori	$s6,$s6,0x1
ffffffff80100dfc:	2402fffc 	li	$v0,-4
ffffffff80100e00:	26240003 	addiu	$a0,$s1,3
ffffffff80100e04:	00828824 	and	$s1,$a0,$v0
ffffffff80100e08:	02201825 	move	$v1,$s1
ffffffff80100e0c:	90620003 	lbu	$v0,3($v1)
ffffffff80100e10:	27b30010 	addiu	$s3,$sp,16
ffffffff80100e14:	26310004 	addiu	$s1,$s1,4
ffffffff80100e18:	a3a20010 	sb	$v0,16($sp)
ffffffff80100e1c:	241e0001 	li	$s8,1
ffffffff80100e20:	08040431 	j	ffffffff801010c4 <_doprntx+0x534>
ffffffff80100e24:	00003025 	move	$a2,$zero
ffffffff80100e28:	36d60001 	ori	$s6,$s6,0x1
ffffffff80100e2c:	32c20004 	andi	$v0,$s6,0x4
ffffffff80100e30:	10400006 	beqz	$v0,ffffffff80100e4c <_doprntx+0x2bc>
ffffffff80100e34:	2403fffc 	li	$v1,-4
ffffffff80100e38:	26220003 	addiu	$v0,$s1,3
ffffffff80100e3c:	00438824 	and	$s1,$v0,$v1
ffffffff80100e40:	02202025 	move	$a0,$s1
ffffffff80100e44:	08040397 	j	ffffffff80100e5c <_doprntx+0x2cc>
ffffffff80100e48:	84830002 	lh	$v1,2($a0)
ffffffff80100e4c:	26220003 	addiu	$v0,$s1,3
ffffffff80100e50:	00438824 	and	$s1,$v0,$v1
ffffffff80100e54:	02202025 	move	$a0,$s1
ffffffff80100e58:	8c830000 	lw	$v1,0($a0)
ffffffff80100e5c:	04610003 	bgez	$v1,ffffffff80100e6c <_doprntx+0x2dc>
ffffffff80100e60:	26310004 	addiu	$s1,$s1,4
ffffffff80100e64:	00031823 	negu	$v1,$v1
ffffffff80100e68:	2406002d 	li	$a2,45
ffffffff80100e6c:	0804040b 	j	ffffffff8010102c <_doprntx+0x49c>
ffffffff80100e70:	2404000a 	li	$a0,10
ffffffff80100e74:	32c20001 	andi	$v0,$s6,0x1
ffffffff80100e78:	1440000c 	bnez	$v0,ffffffff80100eac <_doprntx+0x31c>
ffffffff80100e7c:	2402fffc 	li	$v0,-4
ffffffff80100e80:	32c20004 	andi	$v0,$s6,0x4
ffffffff80100e84:	10400009 	beqz	$v0,ffffffff80100eac <_doprntx+0x31c>
ffffffff80100e88:	2402fffc 	li	$v0,-4
ffffffff80100e8c:	26240003 	addiu	$a0,$s1,3
ffffffff80100e90:	00828824 	and	$s1,$a0,$v0
ffffffff80100e94:	02201825 	move	$v1,$s1
ffffffff80100e98:	8c620000 	lw	$v0,0($v1)
ffffffff80100e9c:	8fa30030 	lw	$v1,48($sp)
ffffffff80100ea0:	26310004 	addiu	$s1,$s1,4
ffffffff80100ea4:	080404a0 	j	ffffffff80101280 <_doprntx+0x6f0>
ffffffff80100ea8:	a4430000 	sh	$v1,0($v0)
ffffffff80100eac:	26240003 	addiu	$a0,$s1,3
ffffffff80100eb0:	00828824 	and	$s1,$a0,$v0
ffffffff80100eb4:	02201825 	move	$v1,$s1
ffffffff80100eb8:	8c620000 	lw	$v0,0($v1)
ffffffff80100ebc:	8fa50030 	lw	$a1,48($sp)
ffffffff80100ec0:	26310004 	addiu	$s1,$s1,4
ffffffff80100ec4:	080404a0 	j	ffffffff80101280 <_doprntx+0x6f0>
ffffffff80100ec8:	ac450000 	sw	$a1,0($v0)
ffffffff80100ecc:	36d60001 	ori	$s6,$s6,0x1
ffffffff80100ed0:	32c20004 	andi	$v0,$s6,0x4
ffffffff80100ed4:	10400006 	beqz	$v0,ffffffff80100ef0 <_doprntx+0x360>
ffffffff80100ed8:	26220003 	addiu	$v0,$s1,3
ffffffff80100edc:	2403fffc 	li	$v1,-4
ffffffff80100ee0:	00438824 	and	$s1,$v0,$v1
ffffffff80100ee4:	02202025 	move	$a0,$s1
ffffffff80100ee8:	080403c0 	j	ffffffff80100f00 <_doprntx+0x370>
ffffffff80100eec:	84830002 	lh	$v1,2($a0)
ffffffff80100ef0:	2403fffc 	li	$v1,-4
ffffffff80100ef4:	00438824 	and	$s1,$v0,$v1
ffffffff80100ef8:	02202025 	move	$a0,$s1
ffffffff80100efc:	8c830000 	lw	$v1,0($a0)
ffffffff80100f00:	26310004 	addiu	$s1,$s1,4
ffffffff80100f04:	0804040a 	j	ffffffff80101028 <_doprntx+0x498>
ffffffff80100f08:	24040008 	li	$a0,8
ffffffff80100f0c:	2403fffc 	li	$v1,-4
ffffffff80100f10:	26220003 	addiu	$v0,$s1,3
ffffffff80100f14:	00438824 	and	$s1,$v0,$v1
ffffffff80100f18:	02202025 	move	$a0,$s1
ffffffff80100f1c:	8c830000 	lw	$v1,0($a0)
ffffffff80100f20:	26310004 	addiu	$s1,$s1,4
ffffffff80100f24:	0804040a 	j	ffffffff80101028 <_doprntx+0x498>
ffffffff80100f28:	24040010 	li	$a0,16
ffffffff80100f2c:	2402fffc 	li	$v0,-4
ffffffff80100f30:	26240003 	addiu	$a0,$s1,3
ffffffff80100f34:	00828824 	and	$s1,$a0,$v0
ffffffff80100f38:	02201825 	move	$v1,$s1
ffffffff80100f3c:	8c730000 	lw	$s3,0($v1)
ffffffff80100f40:	3c028010 	lui	$v0,0x8010
ffffffff80100f44:	24427f44 	addiu	$v0,$v0,32580
ffffffff80100f48:	26310004 	addiu	$s1,$s1,4
ffffffff80100f4c:	0680000d 	bltz	$s4,ffffffff80100f84 <_doprntx+0x3f4>
ffffffff80100f50:	0053980a 	movz	$s3,$v0,$s3
ffffffff80100f54:	02602025 	move	$a0,$s3
ffffffff80100f58:	00002825 	move	$a1,$zero
ffffffff80100f5c:	0c0404b5 	jal	ffffffff801012d4 <memchr>
ffffffff80100f60:	02803025 	move	$a2,$s4
ffffffff80100f64:	1040ffae 	beqz	$v0,ffffffff80100e20 <_doprntx+0x290>
ffffffff80100f68:	0280f025 	move	$s8,$s4
ffffffff80100f6c:	0053f023 	subu	$s8,$v0,$s3
ffffffff80100f70:	029e102a 	slt	$v0,$s4,$s8
ffffffff80100f74:	50400053 	beqzl	$v0,ffffffff801010c4 <_doprntx+0x534>
ffffffff80100f78:	00003025 	move	$a2,$zero
ffffffff80100f7c:	08040388 	j	ffffffff80100e20 <_doprntx+0x290>
ffffffff80100f80:	0280f025 	move	$s8,$s4
ffffffff80100f84:	0c040516 	jal	ffffffff80101458 <strlen>
ffffffff80100f88:	02602025 	move	$a0,$s3
ffffffff80100f8c:	08040388 	j	ffffffff80100e20 <_doprntx+0x290>
ffffffff80100f90:	0040f025 	move	$s8,$v0
ffffffff80100f94:	36d60001 	ori	$s6,$s6,0x1
ffffffff80100f98:	32c20004 	andi	$v0,$s6,0x4
ffffffff80100f9c:	10400006 	beqz	$v0,ffffffff80100fb8 <_doprntx+0x428>
ffffffff80100fa0:	26220003 	addiu	$v0,$s1,3
ffffffff80100fa4:	2403fffc 	li	$v1,-4
ffffffff80100fa8:	00438824 	and	$s1,$v0,$v1
ffffffff80100fac:	02202025 	move	$a0,$s1
ffffffff80100fb0:	080403f2 	j	ffffffff80100fc8 <_doprntx+0x438>
ffffffff80100fb4:	84830002 	lh	$v1,2($a0)
ffffffff80100fb8:	2403fffc 	li	$v1,-4
ffffffff80100fbc:	00438824 	and	$s1,$v0,$v1
ffffffff80100fc0:	02202025 	move	$a0,$s1
ffffffff80100fc4:	8c830000 	lw	$v1,0($a0)
ffffffff80100fc8:	26310004 	addiu	$s1,$s1,4
ffffffff80100fcc:	0804040a 	j	ffffffff80101028 <_doprntx+0x498>
ffffffff80100fd0:	2404000a 	li	$a0,10
ffffffff80100fd4:	3c028010 	lui	$v0,0x8010
ffffffff80100fd8:	24427f4c 	addiu	$v0,$v0,32588
ffffffff80100fdc:	afa2003c 	sw	$v0,60($sp)
ffffffff80100fe0:	32c20004 	andi	$v0,$s6,0x4
ffffffff80100fe4:	10400006 	beqz	$v0,ffffffff80101000 <_doprntx+0x470>
ffffffff80100fe8:	2403fffc 	li	$v1,-4
ffffffff80100fec:	26220003 	addiu	$v0,$s1,3
ffffffff80100ff0:	00438824 	and	$s1,$v0,$v1
ffffffff80100ff4:	02202025 	move	$a0,$s1
ffffffff80100ff8:	08040404 	j	ffffffff80101010 <_doprntx+0x480>
ffffffff80100ffc:	84830002 	lh	$v1,2($a0)
ffffffff80101000:	26220003 	addiu	$v0,$s1,3
ffffffff80101004:	00438824 	and	$s1,$v0,$v1
ffffffff80101008:	02202025 	move	$a0,$s1
ffffffff8010100c:	8c830000 	lw	$v1,0($a0)
ffffffff80101010:	26310004 	addiu	$s1,$s1,4
ffffffff80101014:	32c20008 	andi	$v0,$s6,0x8
ffffffff80101018:	10400003 	beqz	$v0,ffffffff80101028 <_doprntx+0x498>
ffffffff8010101c:	24040010 	li	$a0,16
ffffffff80101020:	36c20040 	ori	$v0,$s6,0x40
ffffffff80101024:	0043b00b 	movn	$s6,$v0,$v1
ffffffff80101028:	00003025 	move	$a2,$zero
ffffffff8010102c:	06800003 	bltz	$s4,ffffffff8010103c <_doprntx+0x4ac>
ffffffff80101030:	afb40034 	sw	$s4,52($sp)
ffffffff80101034:	2402ffdf 	li	$v0,-33
ffffffff80101038:	02c2b024 	and	$s6,$s6,$v0
ffffffff8010103c:	14600004 	bnez	$v1,ffffffff80101050 <_doprntx+0x4c0>
ffffffff80101040:	27b30030 	addiu	$s3,$sp,48
ffffffff80101044:	8fa50034 	lw	$a1,52($sp)
ffffffff80101048:	10a0001d 	beqz	$a1,ffffffff801010c0 <_doprntx+0x530>
ffffffff8010104c:	03b31023 	subu	$v0,$sp,$s3
ffffffff80101050:	0064001b 	divu	$zero,$v1,$a0
ffffffff80101054:	50800001 	beqzl	$a0,ffffffff8010105c <_doprntx+0x4cc>
ffffffff80101058:	0007000d 	break	0x7
ffffffff8010105c:	8fa5003c 	lw	$a1,60($sp)
ffffffff80101060:	2673ffff 	addiu	$s3,$s3,-1
ffffffff80101064:	00001010 	mfhi	$v0
ffffffff80101068:	00a21021 	addu	$v0,$a1,$v0
ffffffff8010106c:	90450000 	lbu	$a1,0($v0)
ffffffff80101070:	00001812 	mflo	$v1
ffffffff80101074:	a2650000 	sb	$a1,0($s3)
ffffffff80101078:	5460fff6 	bnezl	$v1,ffffffff80101054 <_doprntx+0x4c4>
ffffffff8010107c:	0064001b 	divu	$zero,$v1,$a0
ffffffff80101080:	3c038010 	lui	$v1,0x8010
ffffffff80101084:	24637f30 	addiu	$v1,$v1,32560
ffffffff80101088:	32c20008 	andi	$v0,$s6,0x8
ffffffff8010108c:	1040000b 	beqz	$v0,ffffffff801010bc <_doprntx+0x52c>
ffffffff80101090:	afa3003c 	sw	$v1,60($sp)
ffffffff80101094:	24020008 	li	$v0,8
ffffffff80101098:	14820009 	bne	$a0,$v0,ffffffff801010c0 <_doprntx+0x530>
ffffffff8010109c:	03b31023 	subu	$v0,$sp,$s3
ffffffff801010a0:	00051600 	sll	$v0,$a1,0x18
ffffffff801010a4:	00021603 	sra	$v0,$v0,0x18
ffffffff801010a8:	24030030 	li	$v1,48
ffffffff801010ac:	10430004 	beq	$v0,$v1,ffffffff801010c0 <_doprntx+0x530>
ffffffff801010b0:	03b31023 	subu	$v0,$sp,$s3
ffffffff801010b4:	2673ffff 	addiu	$s3,$s3,-1
ffffffff801010b8:	a2630000 	sb	$v1,0($s3)
ffffffff801010bc:	03b31023 	subu	$v0,$sp,$s3
ffffffff801010c0:	245e0030 	addiu	$s8,$v0,48
ffffffff801010c4:	27c20001 	addiu	$v0,$s8,1
ffffffff801010c8:	03c0a825 	move	$s5,$s8
ffffffff801010cc:	0046a80b 	movn	$s5,$v0,$a2
ffffffff801010d0:	26a30002 	addiu	$v1,$s5,2
ffffffff801010d4:	32c50040 	andi	$a1,$s6,0x40
ffffffff801010d8:	02a0a025 	move	$s4,$s5
ffffffff801010dc:	0065a00b 	movn	$s4,$v1,$a1
ffffffff801010e0:	8fa30034 	lw	$v1,52($sp)
ffffffff801010e4:	0280a825 	move	$s5,$s4
ffffffff801010e8:	afa50040 	sw	$a1,64($sp)
ffffffff801010ec:	0283102a 	slt	$v0,$s4,$v1
ffffffff801010f0:	0062a00b 	movn	$s4,$v1,$v0
ffffffff801010f4:	8fa20038 	lw	$v0,56($sp)
ffffffff801010f8:	32c50030 	andi	$a1,$s6,0x30
ffffffff801010fc:	afa50044 	sw	$a1,68($sp)
ffffffff80101100:	14a0000f 	bnez	$a1,ffffffff80101140 <_doprntx+0x5b0>
ffffffff80101104:	0282b82a 	slt	$s7,$s4,$v0
ffffffff80101108:	1040000d 	beqz	$v0,ffffffff80101140 <_doprntx+0x5b0>
ffffffff8010110c:	2a970000 	slti	$s7,$s4,0
ffffffff80101110:	0282b82a 	slt	$s7,$s4,$v0
ffffffff80101114:	12e0000a 	beqz	$s7,ffffffff80101140 <_doprntx+0x5b0>
ffffffff80101118:	00000000 	nop
ffffffff8010111c:	00548023 	subu	$s0,$v0,$s4
ffffffff80101120:	8fa50084 	lw	$a1,132($sp)
ffffffff80101124:	8fa30080 	lw	$v1,128($sp)
ffffffff80101128:	afa60048 	sw	$a2,72($sp)
ffffffff8010112c:	0060f809 	jalr	$v1
ffffffff80101130:	24040020 	li	$a0,32
ffffffff80101134:	2610ffff 	addiu	$s0,$s0,-1
ffffffff80101138:	1600fff9 	bnez	$s0,ffffffff80101120 <_doprntx+0x590>
ffffffff8010113c:	8fa60048 	lw	$a2,72($sp)
ffffffff80101140:	10c00004 	beqz	$a2,ffffffff80101154 <_doprntx+0x5c4>
ffffffff80101144:	8fa50084 	lw	$a1,132($sp)
ffffffff80101148:	8fa20080 	lw	$v0,128($sp)
ffffffff8010114c:	0040f809 	jalr	$v0
ffffffff80101150:	00c02025 	move	$a0,$a2
ffffffff80101154:	8fa30040 	lw	$v1,64($sp)
ffffffff80101158:	10600008 	beqz	$v1,ffffffff8010117c <_doprntx+0x5ec>
ffffffff8010115c:	8fa50084 	lw	$a1,132($sp)
ffffffff80101160:	8fa20080 	lw	$v0,128($sp)
ffffffff80101164:	0040f809 	jalr	$v0
ffffffff80101168:	24040030 	li	$a0,48
ffffffff8010116c:	8fa50084 	lw	$a1,132($sp)
ffffffff80101170:	8fa30080 	lw	$v1,128($sp)
ffffffff80101174:	0060f809 	jalr	$v1
ffffffff80101178:	82440000 	lb	$a0,0($s2)
ffffffff8010117c:	8fa50044 	lw	$a1,68($sp)
ffffffff80101180:	24020020 	li	$v0,32
ffffffff80101184:	14a2000c 	bne	$a1,$v0,ffffffff801011b8 <_doprntx+0x628>
ffffffff80101188:	8fa50034 	lw	$a1,52($sp)
ffffffff8010118c:	12e0000a 	beqz	$s7,ffffffff801011b8 <_doprntx+0x628>
ffffffff80101190:	8fa20038 	lw	$v0,56($sp)
ffffffff80101194:	00548023 	subu	$s0,$v0,$s4
ffffffff80101198:	8fa50084 	lw	$a1,132($sp)
ffffffff8010119c:	8fa30080 	lw	$v1,128($sp)
ffffffff801011a0:	2610ffff 	addiu	$s0,$s0,-1
ffffffff801011a4:	0060f809 	jalr	$v1
ffffffff801011a8:	24040030 	li	$a0,48
ffffffff801011ac:	1600fffb 	bnez	$s0,ffffffff8010119c <_doprntx+0x60c>
ffffffff801011b0:	8fa50084 	lw	$a1,132($sp)
ffffffff801011b4:	8fa50034 	lw	$a1,52($sp)
ffffffff801011b8:	02a08025 	move	$s0,$s5
ffffffff801011bc:	0205102a 	slt	$v0,$s0,$a1
ffffffff801011c0:	5040000a 	beqzl	$v0,ffffffff801011ec <_doprntx+0x65c>
ffffffff801011c4:	27d0ffff 	addiu	$s0,$s8,-1
ffffffff801011c8:	00b08023 	subu	$s0,$a1,$s0
ffffffff801011cc:	8fa50084 	lw	$a1,132($sp)
ffffffff801011d0:	8fa20080 	lw	$v0,128($sp)
ffffffff801011d4:	2610ffff 	addiu	$s0,$s0,-1
ffffffff801011d8:	0040f809 	jalr	$v0
ffffffff801011dc:	24040030 	li	$a0,48
ffffffff801011e0:	1600fffb 	bnez	$s0,ffffffff801011d0 <_doprntx+0x640>
ffffffff801011e4:	8fa50084 	lw	$a1,132($sp)
ffffffff801011e8:	27d0ffff 	addiu	$s0,$s8,-1
ffffffff801011ec:	06000009 	bltz	$s0,ffffffff80101214 <_doprntx+0x684>
ffffffff801011f0:	32c20010 	andi	$v0,$s6,0x10
ffffffff801011f4:	82640000 	lb	$a0,0($s3)
ffffffff801011f8:	8fa50084 	lw	$a1,132($sp)
ffffffff801011fc:	8fa30080 	lw	$v1,128($sp)
ffffffff80101200:	0060f809 	jalr	$v1
ffffffff80101204:	2610ffff 	addiu	$s0,$s0,-1
ffffffff80101208:	0601fffa 	bgez	$s0,ffffffff801011f4 <_doprntx+0x664>
ffffffff8010120c:	26730001 	addiu	$s3,$s3,1
ffffffff80101210:	32c20010 	andi	$v0,$s6,0x10
ffffffff80101214:	1040000c 	beqz	$v0,ffffffff80101248 <_doprntx+0x6b8>
ffffffff80101218:	8fa30038 	lw	$v1,56($sp)
ffffffff8010121c:	12e0000a 	beqz	$s7,ffffffff80101248 <_doprntx+0x6b8>
ffffffff80101220:	8fa50038 	lw	$a1,56($sp)
ffffffff80101224:	00b48023 	subu	$s0,$a1,$s4
ffffffff80101228:	8fa50084 	lw	$a1,132($sp)
ffffffff8010122c:	8fa20080 	lw	$v0,128($sp)
ffffffff80101230:	2610ffff 	addiu	$s0,$s0,-1
ffffffff80101234:	0040f809 	jalr	$v0
ffffffff80101238:	24040020 	li	$a0,32
ffffffff8010123c:	1600fffb 	bnez	$s0,ffffffff8010122c <_doprntx+0x69c>
ffffffff80101240:	8fa50084 	lw	$a1,132($sp)
ffffffff80101244:	8fa30038 	lw	$v1,56($sp)
ffffffff80101248:	8fa50030 	lw	$a1,48($sp)
ffffffff8010124c:	0297180a 	movz	$v1,$s4,$s7
ffffffff80101250:	00a32821 	addu	$a1,$a1,$v1
ffffffff80101254:	080404a0 	j	ffffffff80101280 <_doprntx+0x6f0>
ffffffff80101258:	afa50030 	sw	$a1,48($sp)
ffffffff8010125c:	080404a2 	j	ffffffff80101288 <_doprntx+0x6f8>
ffffffff80101260:	8fa20030 	lw	$v0,48($sp)
ffffffff80101264:	8fa20030 	lw	$v0,48($sp)
ffffffff80101268:	82440000 	lb	$a0,0($s2)
ffffffff8010126c:	8fa50084 	lw	$a1,132($sp)
ffffffff80101270:	8fa30080 	lw	$v1,128($sp)
ffffffff80101274:	24420001 	addiu	$v0,$v0,1
ffffffff80101278:	0060f809 	jalr	$v1
ffffffff8010127c:	afa20030 	sw	$v0,48($sp)
ffffffff80101280:	080402f7 	j	ffffffff80100bdc <_doprntx+0x4c>
ffffffff80101284:	26520001 	addiu	$s2,$s2,1
ffffffff80101288:	8fbf0074 	lw	$ra,116($sp)
ffffffff8010128c:	8fbe0070 	lw	$s8,112($sp)
ffffffff80101290:	8fb7006c 	lw	$s7,108($sp)
ffffffff80101294:	8fb60068 	lw	$s6,104($sp)
ffffffff80101298:	8fb50064 	lw	$s5,100($sp)
ffffffff8010129c:	8fb40060 	lw	$s4,96($sp)
ffffffff801012a0:	8fb3005c 	lw	$s3,92($sp)
ffffffff801012a4:	8fb20058 	lw	$s2,88($sp)
ffffffff801012a8:	8fb10054 	lw	$s1,84($sp)
ffffffff801012ac:	8fb00050 	lw	$s0,80($sp)
ffffffff801012b0:	03e00008 	jr	$ra
ffffffff801012b4:	27bd0078 	addiu	$sp,$sp,120

ffffffff801012b8 <atoi>:
ffffffff801012b8:	27bdffe8 	addiu	$sp,$sp,-24
ffffffff801012bc:	afbf0010 	sw	$ra,16($sp)
ffffffff801012c0:	8fbf0010 	lw	$ra,16($sp)
ffffffff801012c4:	00002825 	move	$a1,$zero
ffffffff801012c8:	2406000a 	li	$a2,10
ffffffff801012cc:	08040520 	j	ffffffff80101480 <strtol>
ffffffff801012d0:	27bd0018 	addiu	$sp,$sp,24

ffffffff801012d4 <memchr>:
ffffffff801012d4:	24c6ffff 	addiu	$a2,$a2,-1
ffffffff801012d8:	04c00009 	bltz	$a2,ffffffff80101300 <memchr+0x2c>
ffffffff801012dc:	00001025 	move	$v0,$zero
ffffffff801012e0:	80830000 	lb	$v1,0($a0)
ffffffff801012e4:	24840001 	addiu	$a0,$a0,1
ffffffff801012e8:	10650005 	beq	$v1,$a1,ffffffff80101300 <memchr+0x2c>
ffffffff801012ec:	2482ffff 	addiu	$v0,$a0,-1
ffffffff801012f0:	24c6ffff 	addiu	$a2,$a2,-1
ffffffff801012f4:	04c3fffb 	bgezl	$a2,ffffffff801012e4 <memchr+0x10>
ffffffff801012f8:	80830000 	lb	$v1,0($a0)
ffffffff801012fc:	00001025 	move	$v0,$zero
ffffffff80101300:	03e00008 	jr	$ra
ffffffff80101304:	00000000 	nop

ffffffff80101308 <putch>:
ffffffff80101308:	8ca20000 	lw	$v0,0($a1)
ffffffff8010130c:	a0440000 	sb	$a0,0($v0)
ffffffff80101310:	24420001 	addiu	$v0,$v0,1
ffffffff80101314:	03e00008 	jr	$ra
ffffffff80101318:	aca20000 	sw	$v0,0($a1)

ffffffff8010131c <_putc>:
ffffffff8010131c:	27bdffe8 	addiu	$sp,$sp,-24
ffffffff80101320:	afbf0010 	sw	$ra,16($sp)
ffffffff80101324:	8fbf0010 	lw	$ra,16($sp)
ffffffff80101328:	00042600 	sll	$a0,$a0,0x18
ffffffff8010132c:	00042603 	sra	$a0,$a0,0x18
ffffffff80101330:	08040117 	j	ffffffff8010045c <CONSOL_SendCh>
ffffffff80101334:	27bd0018 	addiu	$sp,$sp,24

ffffffff80101338 <printf>:
ffffffff80101338:	afa40000 	sw	$a0,0($sp)
ffffffff8010133c:	afa50004 	sw	$a1,4($sp)
ffffffff80101340:	afa60008 	sw	$a2,8($sp)
ffffffff80101344:	afa7000c 	sw	$a3,12($sp)
ffffffff80101348:	27bdffe8 	addiu	$sp,$sp,-24
ffffffff8010134c:	27a5001c 	addiu	$a1,$sp,28
ffffffff80101350:	3c068010 	lui	$a2,0x8010
ffffffff80101354:	24c6131c 	addiu	$a2,$a2,4892
ffffffff80101358:	afbf0010 	sw	$ra,16($sp)
ffffffff8010135c:	0c0402e4 	jal	ffffffff80100b90 <_doprntx>
ffffffff80101360:	00003825 	move	$a3,$zero
ffffffff80101364:	8fbf0010 	lw	$ra,16($sp)
ffffffff80101368:	03e00008 	jr	$ra
ffffffff8010136c:	27bd0018 	addiu	$sp,$sp,24

ffffffff80101370 <vsprintf>:
ffffffff80101370:	27bdffe8 	addiu	$sp,$sp,-24
ffffffff80101374:	27a20018 	addiu	$v0,$sp,24
ffffffff80101378:	afa40018 	sw	$a0,24($sp)
ffffffff8010137c:	00403825 	move	$a3,$v0
ffffffff80101380:	00a02025 	move	$a0,$a1
ffffffff80101384:	00c02825 	move	$a1,$a2
ffffffff80101388:	3c068010 	lui	$a2,0x8010
ffffffff8010138c:	24c61308 	addiu	$a2,$a2,4872
ffffffff80101390:	afbf0014 	sw	$ra,20($sp)
ffffffff80101394:	0c0402e4 	jal	ffffffff80100b90 <_doprntx>
ffffffff80101398:	afb00010 	sw	$s0,16($sp)
ffffffff8010139c:	00408025 	move	$s0,$v0
ffffffff801013a0:	27a20018 	addiu	$v0,$sp,24
ffffffff801013a4:	00402825 	move	$a1,$v0
ffffffff801013a8:	0c0404c2 	jal	ffffffff80101308 <putch>
ffffffff801013ac:	00002025 	move	$a0,$zero
ffffffff801013b0:	8fbf0014 	lw	$ra,20($sp)
ffffffff801013b4:	02001025 	move	$v0,$s0
ffffffff801013b8:	8fb00010 	lw	$s0,16($sp)
ffffffff801013bc:	03e00008 	jr	$ra
ffffffff801013c0:	27bd0018 	addiu	$sp,$sp,24

ffffffff801013c4 <sprintf>:
ffffffff801013c4:	afa50004 	sw	$a1,4($sp)
ffffffff801013c8:	afa60008 	sw	$a2,8($sp)
ffffffff801013cc:	afa7000c 	sw	$a3,12($sp)
ffffffff801013d0:	afa40000 	sw	$a0,0($sp)
ffffffff801013d4:	27bdffe8 	addiu	$sp,$sp,-24
ffffffff801013d8:	27a5001f 	addiu	$a1,$sp,31
ffffffff801013dc:	2402fffc 	li	$v0,-4
ffffffff801013e0:	afbf0014 	sw	$ra,20($sp)
ffffffff801013e4:	afb00010 	sw	$s0,16($sp)
ffffffff801013e8:	afa40018 	sw	$a0,24($sp)
ffffffff801013ec:	00a22824 	and	$a1,$a1,$v0
ffffffff801013f0:	8ca40000 	lw	$a0,0($a1)
ffffffff801013f4:	27a20018 	addiu	$v0,$sp,24
ffffffff801013f8:	3c068010 	lui	$a2,0x8010
ffffffff801013fc:	24c61308 	addiu	$a2,$a2,4872
ffffffff80101400:	00403825 	move	$a3,$v0
ffffffff80101404:	0c0402e4 	jal	ffffffff80100b90 <_doprntx>
ffffffff80101408:	24a50004 	addiu	$a1,$a1,4
ffffffff8010140c:	00408025 	move	$s0,$v0
ffffffff80101410:	27a20018 	addiu	$v0,$sp,24
ffffffff80101414:	00402825 	move	$a1,$v0
ffffffff80101418:	0c0404c2 	jal	ffffffff80101308 <putch>
ffffffff8010141c:	00002025 	move	$a0,$zero
ffffffff80101420:	8fbf0014 	lw	$ra,20($sp)
ffffffff80101424:	02001025 	move	$v0,$s0
ffffffff80101428:	8fb00010 	lw	$s0,16($sp)
ffffffff8010142c:	03e00008 	jr	$ra
ffffffff80101430:	27bd0018 	addiu	$sp,$sp,24

ffffffff80101434 <strcpy>:
ffffffff80101434:	00803025 	move	$a2,$a0
ffffffff80101438:	90a20000 	lbu	$v0,0($a1)
ffffffff8010143c:	24a50001 	addiu	$a1,$a1,1
ffffffff80101440:	00021e00 	sll	$v1,$v0,0x18
ffffffff80101444:	a0820000 	sb	$v0,0($a0)
ffffffff80101448:	1460fffb 	bnez	$v1,ffffffff80101438 <strcpy+0x4>
ffffffff8010144c:	24840001 	addiu	$a0,$a0,1
ffffffff80101450:	03e00008 	jr	$ra
ffffffff80101454:	00c01025 	move	$v0,$a2

ffffffff80101458 <strlen>:
ffffffff80101458:	90820000 	lbu	$v0,0($a0)
ffffffff8010145c:	00001825 	move	$v1,$zero
ffffffff80101460:	10400005 	beqz	$v0,ffffffff80101478 <strlen+0x20>
ffffffff80101464:	24840001 	addiu	$a0,$a0,1
ffffffff80101468:	90820000 	lbu	$v0,0($a0)
ffffffff8010146c:	24630001 	addiu	$v1,$v1,1
ffffffff80101470:	1440fffd 	bnez	$v0,ffffffff80101468 <strlen+0x10>
ffffffff80101474:	24840001 	addiu	$a0,$a0,1
ffffffff80101478:	03e00008 	jr	$ra
ffffffff8010147c:	00601025 	move	$v0,$v1

ffffffff80101480 <strtol>:
ffffffff80101480:	27bdffc8 	addiu	$sp,$sp,-56
ffffffff80101484:	afb7002c 	sw	$s7,44($sp)
ffffffff80101488:	afb60028 	sw	$s6,40($sp)
ffffffff8010148c:	afb20018 	sw	$s2,24($sp)
ffffffff80101490:	afb10014 	sw	$s1,20($sp)
ffffffff80101494:	afb00010 	sw	$s0,16($sp)
ffffffff80101498:	afbf0030 	sw	$ra,48($sp)
ffffffff8010149c:	afb50024 	sw	$s5,36($sp)
ffffffff801014a0:	afb40020 	sw	$s4,32($sp)
ffffffff801014a4:	afb3001c 	sw	$s3,28($sp)
ffffffff801014a8:	00808025 	move	$s0,$a0
ffffffff801014ac:	92030000 	lbu	$v1,0($s0)
ffffffff801014b0:	00a0b825 	move	$s7,$a1
ffffffff801014b4:	00c08825 	move	$s1,$a2
ffffffff801014b8:	3c028011 	lui	$v0,0x8011
ffffffff801014bc:	00431021 	addu	$v0,$v0,$v1
ffffffff801014c0:	90428b30 	lbu	$v0,-29904($v0)
ffffffff801014c4:	00009025 	move	$s2,$zero
ffffffff801014c8:	30420008 	andi	$v0,$v0,0x8
ffffffff801014cc:	10400009 	beqz	$v0,ffffffff801014f4 <strtol+0x74>
ffffffff801014d0:	24160001 	li	$s6,1
ffffffff801014d4:	26100001 	addiu	$s0,$s0,1
ffffffff801014d8:	92030000 	lbu	$v1,0($s0)
ffffffff801014dc:	3c028011 	lui	$v0,0x8011
ffffffff801014e0:	00431021 	addu	$v0,$v0,$v1
ffffffff801014e4:	90428b30 	lbu	$v0,-29904($v0)
ffffffff801014e8:	30420008 	andi	$v0,$v0,0x8
ffffffff801014ec:	5440fffa 	bnezl	$v0,ffffffff801014d8 <strtol+0x58>
ffffffff801014f0:	26100001 	addiu	$s0,$s0,1
ffffffff801014f4:	82040000 	lb	$a0,0($s0)
ffffffff801014f8:	2402002b 	li	$v0,43
ffffffff801014fc:	14820004 	bne	$a0,$v0,ffffffff80101510 <strtol+0x90>
ffffffff80101500:	92030000 	lbu	$v1,0($s0)
ffffffff80101504:	26100001 	addiu	$s0,$s0,1
ffffffff80101508:	0804054a 	j	ffffffff80101528 <strtol+0xa8>
ffffffff8010150c:	92030000 	lbu	$v1,0($s0)
ffffffff80101510:	2402002d 	li	$v0,45
ffffffff80101514:	14820005 	bne	$a0,$v0,ffffffff8010152c <strtol+0xac>
ffffffff80101518:	00031600 	sll	$v0,$v1,0x18
ffffffff8010151c:	26100001 	addiu	$s0,$s0,1
ffffffff80101520:	92030000 	lbu	$v1,0($s0)
ffffffff80101524:	2416ffff 	li	$s6,-1
ffffffff80101528:	00031600 	sll	$v0,$v1,0x18
ffffffff8010152c:	00021603 	sra	$v0,$v0,0x18
ffffffff80101530:	24030030 	li	$v1,48
ffffffff80101534:	5443000c 	bnel	$v0,$v1,ffffffff80101568 <strtol+0xe8>
ffffffff80101538:	2402000a 	li	$v0,10
ffffffff8010153c:	26100001 	addiu	$s0,$s0,1
ffffffff80101540:	0c0405c3 	jal	ffffffff8010170c <toupper>
ffffffff80101544:	82040000 	lb	$a0,0($s0)
ffffffff80101548:	24030058 	li	$v1,88
ffffffff8010154c:	14430004 	bne	$v0,$v1,ffffffff80101560 <strtol+0xe0>
ffffffff80101550:	24020008 	li	$v0,8
ffffffff80101554:	24110010 	li	$s1,16
ffffffff80101558:	08040559 	j	ffffffff80101564 <strtol+0xe4>
ffffffff8010155c:	26100001 	addiu	$s0,$s0,1
ffffffff80101560:	0051880a 	movz	$s1,$v0,$s1
ffffffff80101564:	2402000a 	li	$v0,10
ffffffff80101568:	0051880a 	movz	$s1,$v0,$s1
ffffffff8010156c:	2a23000b 	slti	$v1,$s1,11
ffffffff80101570:	10600027 	beqz	$v1,ffffffff80101610 <strtol+0x190>
ffffffff80101574:	3c137fff 	lui	$s3,0x7fff
ffffffff80101578:	92030000 	lbu	$v1,0($s0)
ffffffff8010157c:	3c058011 	lui	$a1,0x8011
ffffffff80101580:	24a58b30 	addiu	$a1,$a1,-29904
ffffffff80101584:	3c028011 	lui	$v0,0x8011
ffffffff80101588:	00431021 	addu	$v0,$v0,$v1
ffffffff8010158c:	90428b30 	lbu	$v0,-29904($v0)
ffffffff80101590:	30420004 	andi	$v0,$v0,0x4
ffffffff80101594:	10400044 	beqz	$v0,ffffffff801016a8 <strtol+0x228>
ffffffff80101598:	3c047fff 	lui	$a0,0x7fff
ffffffff8010159c:	00a03025 	move	$a2,$a1
ffffffff801015a0:	3484ffff 	ori	$a0,$a0,0xffff
ffffffff801015a4:	24050022 	li	$a1,34
ffffffff801015a8:	0091001a 	div	$zero,$a0,$s1
ffffffff801015ac:	52200001 	beqzl	$s1,ffffffff801015b4 <strtol+0x134>
ffffffff801015b0:	0007000d 	break	0x7
ffffffff801015b4:	00001012 	mflo	$v0
ffffffff801015b8:	2442ffff 	addiu	$v0,$v0,-1
ffffffff801015bc:	0242102a 	slt	$v0,$s2,$v0
ffffffff801015c0:	50400007 	beqzl	$v0,ffffffff801015e0 <strtol+0x160>
ffffffff801015c4:	3c127fff 	lui	$s2,0x7fff
ffffffff801015c8:	82020000 	lb	$v0,0($s0)
ffffffff801015cc:	00400013 	mtlo	$v0
ffffffff801015d0:	72510000 	madd	$s2,$s1
ffffffff801015d4:	00001012 	mflo	$v0
ffffffff801015d8:	0804057b 	j	ffffffff801015ec <strtol+0x16c>
ffffffff801015dc:	2452ffd0 	addiu	$s2,$v0,-48
ffffffff801015e0:	3652ffff 	ori	$s2,$s2,0xffff
ffffffff801015e4:	3c018011 	lui	$at,0x8011
ffffffff801015e8:	ac259400 	sw	$a1,-27648($at)
ffffffff801015ec:	26100001 	addiu	$s0,$s0,1
ffffffff801015f0:	92020000 	lbu	$v0,0($s0)
ffffffff801015f4:	00461021 	addu	$v0,$v0,$a2
ffffffff801015f8:	90430000 	lbu	$v1,0($v0)
ffffffff801015fc:	30630004 	andi	$v1,$v1,0x4
ffffffff80101600:	5460ffea 	bnezl	$v1,ffffffff801015ac <strtol+0x12c>
ffffffff80101604:	0091001a 	div	$zero,$a0,$s1
ffffffff80101608:	080405aa 	j	ffffffff801016a8 <strtol+0x228>
ffffffff8010160c:	00000000 	nop
ffffffff80101610:	26340037 	addiu	$s4,$s1,55
ffffffff80101614:	3673ffff 	ori	$s3,$s3,0xffff
ffffffff80101618:	08040597 	j	ffffffff8010165c <strtol+0x1dc>
ffffffff8010161c:	24150022 	li	$s5,34
ffffffff80101620:	0271001a 	div	$zero,$s3,$s1
ffffffff80101624:	52200001 	beqzl	$s1,ffffffff8010162c <strtol+0x1ac>
ffffffff80101628:	0007000d 	break	0x7
ffffffff8010162c:	00001012 	mflo	$v0
ffffffff80101630:	2442ffff 	addiu	$v0,$v0,-1
ffffffff80101634:	0242102a 	slt	$v0,$s2,$v0
ffffffff80101638:	00600013 	mtlo	$v1
ffffffff8010163c:	72510000 	madd	$s2,$s1
ffffffff80101640:	00009012 	mflo	$s2
ffffffff80101644:	14400005 	bnez	$v0,ffffffff8010165c <strtol+0x1dc>
ffffffff80101648:	26100001 	addiu	$s0,$s0,1
ffffffff8010164c:	3c127fff 	lui	$s2,0x7fff
ffffffff80101650:	3c018011 	lui	$at,0x8011
ffffffff80101654:	ac359400 	sw	$s5,-27648($at)
ffffffff80101658:	3652ffff 	ori	$s2,$s2,0xffff
ffffffff8010165c:	82030000 	lb	$v1,0($s0)
ffffffff80101660:	306200ff 	andi	$v0,$v1,0xff
ffffffff80101664:	10600010 	beqz	$v1,ffffffff801016a8 <strtol+0x228>
ffffffff80101668:	00602025 	move	$a0,$v1
ffffffff8010166c:	3c018011 	lui	$at,0x8011
ffffffff80101670:	00220821 	addu	$at,$at,$v0
ffffffff80101674:	90228b30 	lbu	$v0,-29904($at)
ffffffff80101678:	30420004 	andi	$v0,$v0,0x4
ffffffff8010167c:	1440ffe8 	bnez	$v0,ffffffff80101620 <strtol+0x1a0>
ffffffff80101680:	2463ffd0 	addiu	$v1,$v1,-48
ffffffff80101684:	0c0405c3 	jal	ffffffff8010170c <toupper>
ffffffff80101688:	00000000 	nop
ffffffff8010168c:	00401825 	move	$v1,$v0
ffffffff80101690:	28620041 	slti	$v0,$v1,65
ffffffff80101694:	0074202a 	slt	$a0,$v1,$s4
ffffffff80101698:	14400003 	bnez	$v0,ffffffff801016a8 <strtol+0x228>
ffffffff8010169c:	2463ffc9 	addiu	$v1,$v1,-55
ffffffff801016a0:	5480ffe0 	bnezl	$a0,ffffffff80101624 <strtol+0x1a4>
ffffffff801016a4:	0271001a 	div	$zero,$s3,$s1
ffffffff801016a8:	56e00001 	bnezl	$s7,ffffffff801016b0 <strtol+0x230>
ffffffff801016ac:	aef00000 	sw	$s0,0($s7)
ffffffff801016b0:	00161827 	nor	$v1,$zero,$s6
ffffffff801016b4:	00121023 	negu	$v0,$s2
ffffffff801016b8:	0243100b 	movn	$v0,$s2,$v1
ffffffff801016bc:	8fbf0030 	lw	$ra,48($sp)
ffffffff801016c0:	8fb7002c 	lw	$s7,44($sp)
ffffffff801016c4:	8fb60028 	lw	$s6,40($sp)
ffffffff801016c8:	8fb50024 	lw	$s5,36($sp)
ffffffff801016cc:	8fb40020 	lw	$s4,32($sp)
ffffffff801016d0:	8fb3001c 	lw	$s3,28($sp)
ffffffff801016d4:	8fb20018 	lw	$s2,24($sp)
ffffffff801016d8:	8fb10014 	lw	$s1,20($sp)
ffffffff801016dc:	8fb00010 	lw	$s0,16($sp)
ffffffff801016e0:	03e00008 	jr	$ra
ffffffff801016e4:	27bd0038 	addiu	$sp,$sp,56

ffffffff801016e8 <tolower>:
ffffffff801016e8:	308200ff 	andi	$v0,$a0,0xff
ffffffff801016ec:	3c038011 	lui	$v1,0x8011
ffffffff801016f0:	00621821 	addu	$v1,$v1,$v0
ffffffff801016f4:	90638b30 	lbu	$v1,-29904($v1)
ffffffff801016f8:	24820020 	addiu	$v0,$a0,32
ffffffff801016fc:	30630001 	andi	$v1,$v1,0x1
ffffffff80101700:	38630000 	xori	$v1,$v1,0x0
ffffffff80101704:	03e00008 	jr	$ra
ffffffff80101708:	0083100a 	movz	$v0,$a0,$v1

ffffffff8010170c <toupper>:
ffffffff8010170c:	308200ff 	andi	$v0,$a0,0xff
ffffffff80101710:	3c038011 	lui	$v1,0x8011
ffffffff80101714:	00621821 	addu	$v1,$v1,$v0
ffffffff80101718:	90638b30 	lbu	$v1,-29904($v1)
ffffffff8010171c:	2482ffe0 	addiu	$v0,$a0,-32
ffffffff80101720:	30630002 	andi	$v1,$v1,0x2
ffffffff80101724:	38630000 	xori	$v1,$v1,0x0
ffffffff80101728:	03e00008 	jr	$ra
ffffffff8010172c:	0083100a 	movz	$v0,$a0,$v1

ffffffff80101730 <demo>:
ffffffff80101730:	27bdffb0 	addiu	$sp,$sp,-80
ffffffff80101734:	afb00028 	sw	$s0,40($sp)
ffffffff80101738:	00808025 	move	$s0,$a0
ffffffff8010173c:	3c048011 	lui	$a0,0x8011
ffffffff80101740:	24848150 	addiu	$a0,$a0,-32432
ffffffff80101744:	afb70044 	sw	$s7,68($sp)
ffffffff80101748:	afb60040 	sw	$s6,64($sp)
ffffffff8010174c:	afb5003c 	sw	$s5,60($sp)
ffffffff80101750:	afb40038 	sw	$s4,56($sp)
ffffffff80101754:	afb30034 	sw	$s3,52($sp)
ffffffff80101758:	afb20030 	sw	$s2,48($sp)
ffffffff8010175c:	afb1002c 	sw	$s1,44($sp)
ffffffff80101760:	afbf0048 	sw	$ra,72($sp)
ffffffff80101764:	0c0404ce 	jal	ffffffff80101338 <printf>
ffffffff80101768:	00008825 	move	$s1,$zero
ffffffff8010176c:	00003025 	move	$a2,$zero
ffffffff80101770:	24040001 	li	$a0,1
ffffffff80101774:	24050008 	li	$a1,8
ffffffff80101778:	24022710 	li	$v0,10000
ffffffff8010177c:	0c040fcb 	jal	ffffffff80103f2c <msgQCreate>
ffffffff80101780:	0050800a 	movz	$s0,$v0,$s0
ffffffff80101784:	24040001 	li	$a0,1
ffffffff80101788:	3c018011 	lui	$at,0x8011
ffffffff8010178c:	ac229408 	sw	$v0,-27640($at)
ffffffff80101790:	0c041179 	jal	ffffffff801045e4 <semBCreate>
ffffffff80101794:	24050001 	li	$a1,1
ffffffff80101798:	3c018011 	lui	$at,0x8011
ffffffff8010179c:	ac229410 	sw	$v0,-27632($at)
ffffffff801017a0:	0c0417e9 	jal	ffffffff80105fa4 <taskIdSelf>
ffffffff801017a4:	24150002 	li	$s5,2
ffffffff801017a8:	3c018011 	lui	$at,0x8011
ffffffff801017ac:	ac229414 	sw	$v0,-27628($at)
ffffffff801017b0:	3c178010 	lui	$s7,0x8010
ffffffff801017b4:	26f7188c 	addiu	$s7,$s7,6284
ffffffff801017b8:	24140003 	li	$s4,3
ffffffff801017bc:	24130004 	li	$s3,4
ffffffff801017c0:	24120005 	li	$s2,5
ffffffff801017c4:	3c168010 	lui	$s6,0x8010
ffffffff801017c8:	26d619a4 	addiu	$s6,$s6,6564
ffffffff801017cc:	3c048011 	lui	$a0,0x8011
ffffffff801017d0:	24848164 	addiu	$a0,$a0,-32412
ffffffff801017d4:	24050096 	li	$a1,150
ffffffff801017d8:	00003025 	move	$a2,$zero
ffffffff801017dc:	24070fa0 	li	$a3,4000
ffffffff801017e0:	afb70010 	sw	$s7,16($sp)
ffffffff801017e4:	afb00014 	sw	$s0,20($sp)
ffffffff801017e8:	afb50018 	sw	$s5,24($sp)
ffffffff801017ec:	afb4001c 	sw	$s4,28($sp)
ffffffff801017f0:	afb30020 	sw	$s3,32($sp)
ffffffff801017f4:	0c0415b3 	jal	ffffffff801056cc <taskSpawn>
ffffffff801017f8:	afb20024 	sw	$s2,36($sp)
ffffffff801017fc:	240500c8 	li	$a1,200
ffffffff80101800:	00003025 	move	$a2,$zero
ffffffff80101804:	3c048011 	lui	$a0,0x8011
ffffffff80101808:	24848170 	addiu	$a0,$a0,-32400
ffffffff8010180c:	afb60010 	sw	$s6,16($sp)
ffffffff80101810:	afb00014 	sw	$s0,20($sp)
ffffffff80101814:	afb50018 	sw	$s5,24($sp)
ffffffff80101818:	afb4001c 	sw	$s4,28($sp)
ffffffff8010181c:	afb30020 	sw	$s3,32($sp)
ffffffff80101820:	afb20024 	sw	$s2,36($sp)
ffffffff80101824:	3c018011 	lui	$at,0x8011
ffffffff80101828:	ac22940c 	sw	$v0,-27636($at)
ffffffff8010182c:	0c0415b3 	jal	ffffffff801056cc <taskSpawn>
ffffffff80101830:	24070fa0 	li	$a3,4000
ffffffff80101834:	3c018011 	lui	$at,0x8011
ffffffff80101838:	ac229404 	sw	$v0,-27644($at)
ffffffff8010183c:	0c041770 	jal	ffffffff80105dc0 <taskSuspend>
ffffffff80101840:	00002025 	move	$a0,$zero
ffffffff80101844:	02202825 	move	$a1,$s1
ffffffff80101848:	3c048011 	lui	$a0,0x8011
ffffffff8010184c:	24848178 	addiu	$a0,$a0,-32392
ffffffff80101850:	0c0404ce 	jal	ffffffff80101338 <printf>
ffffffff80101854:	26310001 	addiu	$s1,$s1,1
ffffffff80101858:	2a230004 	slti	$v1,$s1,4
ffffffff8010185c:	1460ffdb 	bnez	$v1,ffffffff801017cc <demo+0x9c>
ffffffff80101860:	8fbf0048 	lw	$ra,72($sp)
ffffffff80101864:	8fb70044 	lw	$s7,68($sp)
ffffffff80101868:	8fb60040 	lw	$s6,64($sp)
ffffffff8010186c:	8fb5003c 	lw	$s5,60($sp)
ffffffff80101870:	8fb40038 	lw	$s4,56($sp)
ffffffff80101874:	8fb30034 	lw	$s3,52($sp)
ffffffff80101878:	8fb20030 	lw	$s2,48($sp)
ffffffff8010187c:	8fb1002c 	lw	$s1,44($sp)
ffffffff80101880:	8fb00028 	lw	$s0,40($sp)
ffffffff80101884:	03e00008 	jr	$ra
ffffffff80101888:	27bd0050 	addiu	$sp,$sp,80

ffffffff8010188c <taskHighPri>:
ffffffff8010188c:	27bdffc0 	addiu	$sp,$sp,-64
ffffffff80101890:	afb20030 	sw	$s2,48($sp)
ffffffff80101894:	00809025 	move	$s2,$a0
ffffffff80101898:	afb00028 	sw	$s0,40($sp)
ffffffff8010189c:	afbf0038 	sw	$ra,56($sp)
ffffffff801018a0:	afb30034 	sw	$s3,52($sp)
ffffffff801018a4:	afb1002c 	sw	$s1,44($sp)
ffffffff801018a8:	1a400037 	blez	$s2,ffffffff80101988 <taskHighPri+0xfc>
ffffffff801018ac:	00008025 	move	$s0,$zero
ffffffff801018b0:	3c138011 	lui	$s3,0x8011
ffffffff801018b4:	267381a8 	addiu	$s3,$s3,-32344
ffffffff801018b8:	27b10020 	addiu	$s1,$sp,32
ffffffff801018bc:	3c048011 	lui	$a0,0x8011
ffffffff801018c0:	8c849410 	lw	$a0,-27632($a0)
ffffffff801018c4:	0c041347 	jal	ffffffff80104d1c <semGive>
ffffffff801018c8:	00000000 	nop
ffffffff801018cc:	3c048011 	lui	$a0,0x8011
ffffffff801018d0:	8c849410 	lw	$a0,-27632($a0)
ffffffff801018d4:	0c04135b 	jal	ffffffff80104d6c <semTake>
ffffffff801018d8:	24050064 	li	$a1,100
ffffffff801018dc:	3c048011 	lui	$a0,0x8011
ffffffff801018e0:	8c849410 	lw	$a0,-27632($a0)
ffffffff801018e4:	0c04135b 	jal	ffffffff80104d6c <semTake>
ffffffff801018e8:	2405ffff 	li	$a1,-1
ffffffff801018ec:	0c041770 	jal	ffffffff80105dc0 <taskSuspend>
ffffffff801018f0:	00002025 	move	$a0,$zero
ffffffff801018f4:	3c048011 	lui	$a0,0x8011
ffffffff801018f8:	8c849408 	lw	$a0,-27640($a0)
ffffffff801018fc:	27a50018 	addiu	$a1,$sp,24
ffffffff80101900:	24060008 	li	$a2,8
ffffffff80101904:	00003825 	move	$a3,$zero
ffffffff80101908:	afb00018 	sw	$s0,24($sp)
ffffffff8010190c:	afb3001c 	sw	$s3,28($sp)
ffffffff80101910:	0c041068 	jal	ffffffff801041a0 <msgQSend>
ffffffff80101914:	afa00010 	sw	$zero,16($sp)
ffffffff80101918:	3c048011 	lui	$a0,0x8011
ffffffff8010191c:	8c849408 	lw	$a0,-27640($a0)
ffffffff80101920:	00003825 	move	$a3,$zero
ffffffff80101924:	02202825 	move	$a1,$s1
ffffffff80101928:	0c0410bb 	jal	ffffffff801042ec <msgQReceive>
ffffffff8010192c:	24060008 	li	$a2,8
ffffffff80101930:	8fa50024 	lw	$a1,36($sp)
ffffffff80101934:	8fa60020 	lw	$a2,32($sp)
ffffffff80101938:	3c048011 	lui	$a0,0x8011
ffffffff8010193c:	248481cc 	addiu	$a0,$a0,-32308
ffffffff80101940:	0c0404ce 	jal	ffffffff80101338 <printf>
ffffffff80101944:	26100001 	addiu	$s0,$s0,1
ffffffff80101948:	3c048011 	lui	$a0,0x8011
ffffffff8010194c:	8c849408 	lw	$a0,-27640($a0)
ffffffff80101950:	2407ffff 	li	$a3,-1
ffffffff80101954:	02202825 	move	$a1,$s1
ffffffff80101958:	0c0410bb 	jal	ffffffff801042ec <msgQReceive>
ffffffff8010195c:	24060008 	li	$a2,8
ffffffff80101960:	8fa50024 	lw	$a1,36($sp)
ffffffff80101964:	3c048011 	lui	$a0,0x8011
ffffffff80101968:	248481ec 	addiu	$a0,$a0,-32276
ffffffff8010196c:	0c0404ce 	jal	ffffffff80101338 <printf>
ffffffff80101970:	8fa60020 	lw	$a2,32($sp)
ffffffff80101974:	0c04174b 	jal	ffffffff80105d2c <taskDelay>
ffffffff80101978:	2404003c 	li	$a0,60
ffffffff8010197c:	0212182a 	slt	$v1,$s0,$s2
ffffffff80101980:	1460ffce 	bnez	$v1,ffffffff801018bc <taskHighPri+0x30>
ffffffff80101984:	00000000 	nop
ffffffff80101988:	8fbf0038 	lw	$ra,56($sp)
ffffffff8010198c:	8fb30034 	lw	$s3,52($sp)
ffffffff80101990:	8fb20030 	lw	$s2,48($sp)
ffffffff80101994:	8fb1002c 	lw	$s1,44($sp)
ffffffff80101998:	8fb00028 	lw	$s0,40($sp)
ffffffff8010199c:	03e00008 	jr	$ra
ffffffff801019a0:	27bd0040 	addiu	$sp,$sp,64

ffffffff801019a4 <taskLowPri>:
ffffffff801019a4:	27bdffd0 	addiu	$sp,$sp,-48
ffffffff801019a8:	afb10024 	sw	$s1,36($sp)
ffffffff801019ac:	00808825 	move	$s1,$a0
ffffffff801019b0:	afb00020 	sw	$s0,32($sp)
ffffffff801019b4:	afbf002c 	sw	$ra,44($sp)
ffffffff801019b8:	afb20028 	sw	$s2,40($sp)
ffffffff801019bc:	1a20001a 	blez	$s1,ffffffff80101a28 <taskLowPri+0x84>
ffffffff801019c0:	00008025 	move	$s0,$zero
ffffffff801019c4:	3c128011 	lui	$s2,0x8011
ffffffff801019c8:	2652821c 	addiu	$s2,$s2,-32228
ffffffff801019cc:	3c048011 	lui	$a0,0x8011
ffffffff801019d0:	8c849410 	lw	$a0,-27632($a0)
ffffffff801019d4:	0c041347 	jal	ffffffff80104d1c <semGive>
ffffffff801019d8:	00000000 	nop
ffffffff801019dc:	3c048011 	lui	$a0,0x8011
ffffffff801019e0:	8c84940c 	lw	$a0,-27636($a0)
ffffffff801019e4:	0c041682 	jal	ffffffff80105a08 <taskResume>
ffffffff801019e8:	00000000 	nop
ffffffff801019ec:	3c048011 	lui	$a0,0x8011
ffffffff801019f0:	8c849408 	lw	$a0,-27640($a0)
ffffffff801019f4:	27a50018 	addiu	$a1,$sp,24
ffffffff801019f8:	24060008 	li	$a2,8
ffffffff801019fc:	00003825 	move	$a3,$zero
ffffffff80101a00:	afb00018 	sw	$s0,24($sp)
ffffffff80101a04:	afb2001c 	sw	$s2,28($sp)
ffffffff80101a08:	afa00010 	sw	$zero,16($sp)
ffffffff80101a0c:	0c041068 	jal	ffffffff801041a0 <msgQSend>
ffffffff80101a10:	26100001 	addiu	$s0,$s0,1
ffffffff80101a14:	0c04174b 	jal	ffffffff80105d2c <taskDelay>
ffffffff80101a18:	2404003c 	li	$a0,60
ffffffff80101a1c:	0211102a 	slt	$v0,$s0,$s1
ffffffff80101a20:	1440ffea 	bnez	$v0,ffffffff801019cc <taskLowPri+0x28>
ffffffff80101a24:	00000000 	nop
ffffffff80101a28:	3c048011 	lui	$a0,0x8011
ffffffff80101a2c:	8c849414 	lw	$a0,-27628($a0)
ffffffff80101a30:	0c041682 	jal	ffffffff80105a08 <taskResume>
ffffffff80101a34:	00000000 	nop
ffffffff80101a38:	8fbf002c 	lw	$ra,44($sp)
ffffffff80101a3c:	8fb20028 	lw	$s2,40($sp)
ffffffff80101a40:	8fb10024 	lw	$s1,36($sp)
ffffffff80101a44:	8fb00020 	lw	$s0,32($sp)
ffffffff80101a48:	03e00008 	jr	$ra
ffffffff80101a4c:	27bd0030 	addiu	$sp,$sp,48

ffffffff80101a50 <taskOne>:
ffffffff80101a50:	27bdffe8 	addiu	$sp,$sp,-24
ffffffff80101a54:	afb00010 	sw	$s0,16($sp)
ffffffff80101a58:	afbf0014 	sw	$ra,20($sp)
ffffffff80101a5c:	24100009 	li	$s0,9
ffffffff80101a60:	3c048011 	lui	$a0,0x8011
ffffffff80101a64:	8c8492d0 	lw	$a0,-27952($a0)
ffffffff80101a68:	2405ffff 	li	$a1,-1
ffffffff80101a6c:	0c04135b 	jal	ffffffff80104d6c <semTake>
ffffffff80101a70:	2610ffff 	addiu	$s0,$s0,-1
ffffffff80101a74:	3c038011 	lui	$v1,0x8011
ffffffff80101a78:	8c638c30 	lw	$v1,-29648($v1)
ffffffff80101a7c:	3c048011 	lui	$a0,0x8011
ffffffff80101a80:	24848240 	addiu	$a0,$a0,-32192
ffffffff80101a84:	24630001 	addiu	$v1,$v1,1
ffffffff80101a88:	3c018011 	lui	$at,0x8011
ffffffff80101a8c:	ac238c30 	sw	$v1,-29648($at)
ffffffff80101a90:	0c0404ce 	jal	ffffffff80101338 <printf>
ffffffff80101a94:	00602825 	move	$a1,$v1
ffffffff80101a98:	3c048011 	lui	$a0,0x8011
ffffffff80101a9c:	8c8492d0 	lw	$a0,-27952($a0)
ffffffff80101aa0:	0c041347 	jal	ffffffff80104d1c <semGive>
ffffffff80101aa4:	00000000 	nop
ffffffff80101aa8:	0601ffed 	bgez	$s0,ffffffff80101a60 <taskOne+0x10>
ffffffff80101aac:	8fbf0014 	lw	$ra,20($sp)
ffffffff80101ab0:	8fb00010 	lw	$s0,16($sp)
ffffffff80101ab4:	03e00008 	jr	$ra
ffffffff80101ab8:	27bd0018 	addiu	$sp,$sp,24

ffffffff80101abc <taskTwo>:
ffffffff80101abc:	3c048011 	lui	$a0,0x8011
ffffffff80101ac0:	8c8492d0 	lw	$a0,-27952($a0)
ffffffff80101ac4:	27bdffe8 	addiu	$sp,$sp,-24
ffffffff80101ac8:	afb00010 	sw	$s0,16($sp)
ffffffff80101acc:	afbf0014 	sw	$ra,20($sp)
ffffffff80101ad0:	0c041347 	jal	ffffffff80104d1c <semGive>
ffffffff80101ad4:	24100009 	li	$s0,9
ffffffff80101ad8:	3c048011 	lui	$a0,0x8011
ffffffff80101adc:	8c8492d0 	lw	$a0,-27952($a0)
ffffffff80101ae0:	2405ffff 	li	$a1,-1
ffffffff80101ae4:	0c04135b 	jal	ffffffff80104d6c <semTake>
ffffffff80101ae8:	2610ffff 	addiu	$s0,$s0,-1
ffffffff80101aec:	3c038011 	lui	$v1,0x8011
ffffffff80101af0:	8c638c30 	lw	$v1,-29648($v1)
ffffffff80101af4:	3c048011 	lui	$a0,0x8011
ffffffff80101af8:	24848274 	addiu	$a0,$a0,-32140
ffffffff80101afc:	2463ffff 	addiu	$v1,$v1,-1
ffffffff80101b00:	3c018011 	lui	$at,0x8011
ffffffff80101b04:	ac238c30 	sw	$v1,-29648($at)
ffffffff80101b08:	0c0404ce 	jal	ffffffff80101338 <printf>
ffffffff80101b0c:	00602825 	move	$a1,$v1
ffffffff80101b10:	3c048011 	lui	$a0,0x8011
ffffffff80101b14:	8c8492d0 	lw	$a0,-27952($a0)
ffffffff80101b18:	0c041347 	jal	ffffffff80104d1c <semGive>
ffffffff80101b1c:	00000000 	nop
ffffffff80101b20:	0601ffed 	bgez	$s0,ffffffff80101ad8 <taskTwo+0x1c>
ffffffff80101b24:	8fbf0014 	lw	$ra,20($sp)
ffffffff80101b28:	8fb00010 	lw	$s0,16($sp)
ffffffff80101b2c:	03e00008 	jr	$ra
ffffffff80101b30:	27bd0018 	addiu	$sp,$sp,24

ffffffff80101b34 <s3_sem1>:
ffffffff80101b34:	27bdffc0 	addiu	$sp,$sp,-64
ffffffff80101b38:	00002025 	move	$a0,$zero
ffffffff80101b3c:	24050001 	li	$a1,1
ffffffff80101b40:	afbf003c 	sw	$ra,60($sp)
ffffffff80101b44:	afb40038 	sw	$s4,56($sp)
ffffffff80101b48:	afb30034 	sw	$s3,52($sp)
ffffffff80101b4c:	afb20030 	sw	$s2,48($sp)
ffffffff80101b50:	afb1002c 	sw	$s1,44($sp)
ffffffff80101b54:	0c041179 	jal	ffffffff801045e4 <semBCreate>
ffffffff80101b58:	afb00028 	sw	$s0,40($sp)
ffffffff80101b5c:	00402025 	move	$a0,$v0
ffffffff80101b60:	2405ffff 	li	$a1,-1
ffffffff80101b64:	24100001 	li	$s0,1
ffffffff80101b68:	24110002 	li	$s1,2
ffffffff80101b6c:	24120003 	li	$s2,3
ffffffff80101b70:	24130004 	li	$s3,4
ffffffff80101b74:	3c018011 	lui	$at,0x8011
ffffffff80101b78:	ac2292d0 	sw	$v0,-27952($at)
ffffffff80101b7c:	0c04135b 	jal	ffffffff80104d6c <semTake>
ffffffff80101b80:	24140005 	li	$s4,5
ffffffff80101b84:	3c048011 	lui	$a0,0x8011
ffffffff80101b88:	248482a8 	addiu	$a0,$a0,-32088
ffffffff80101b8c:	2405005a 	li	$a1,90
ffffffff80101b90:	00003025 	move	$a2,$zero
ffffffff80101b94:	240707d0 	li	$a3,2000
ffffffff80101b98:	3c028010 	lui	$v0,0x8010
ffffffff80101b9c:	24421a50 	addiu	$v0,$v0,6736
ffffffff80101ba0:	afb00014 	sw	$s0,20($sp)
ffffffff80101ba4:	afb10018 	sw	$s1,24($sp)
ffffffff80101ba8:	afb2001c 	sw	$s2,28($sp)
ffffffff80101bac:	afb30020 	sw	$s3,32($sp)
ffffffff80101bb0:	afb40024 	sw	$s4,36($sp)
ffffffff80101bb4:	0c0415b3 	jal	ffffffff801056cc <taskSpawn>
ffffffff80101bb8:	afa20010 	sw	$v0,16($sp)
ffffffff80101bbc:	3c038010 	lui	$v1,0x8010
ffffffff80101bc0:	24631abc 	addiu	$v1,$v1,6844
ffffffff80101bc4:	3c048011 	lui	$a0,0x8011
ffffffff80101bc8:	248482b0 	addiu	$a0,$a0,-32080
ffffffff80101bcc:	2405005a 	li	$a1,90
ffffffff80101bd0:	00003025 	move	$a2,$zero
ffffffff80101bd4:	240707d0 	li	$a3,2000
ffffffff80101bd8:	afb00014 	sw	$s0,20($sp)
ffffffff80101bdc:	afb10018 	sw	$s1,24($sp)
ffffffff80101be0:	afb2001c 	sw	$s2,28($sp)
ffffffff80101be4:	afb30020 	sw	$s3,32($sp)
ffffffff80101be8:	afb40024 	sw	$s4,36($sp)
ffffffff80101bec:	0c0415b3 	jal	ffffffff801056cc <taskSpawn>
ffffffff80101bf0:	afa30010 	sw	$v1,16($sp)
ffffffff80101bf4:	8fbf003c 	lw	$ra,60($sp)
ffffffff80101bf8:	8fb40038 	lw	$s4,56($sp)
ffffffff80101bfc:	8fb30034 	lw	$s3,52($sp)
ffffffff80101c00:	8fb20030 	lw	$s2,48($sp)
ffffffff80101c04:	8fb1002c 	lw	$s1,44($sp)
ffffffff80101c08:	8fb00028 	lw	$s0,40($sp)
ffffffff80101c0c:	03e00008 	jr	$ra
ffffffff80101c10:	27bd0040 	addiu	$sp,$sp,64
	...

ffffffff80101c20 <taskOne>:
ffffffff80101c20:	27bdffe8 	addiu	$sp,$sp,-24
ffffffff80101c24:	afb00010 	sw	$s0,16($sp)
ffffffff80101c28:	afbf0014 	sw	$ra,20($sp)
ffffffff80101c2c:	24100009 	li	$s0,9
ffffffff80101c30:	3c048011 	lui	$a0,0x8011
ffffffff80101c34:	8c8492e0 	lw	$a0,-27936($a0)
ffffffff80101c38:	2405ffff 	li	$a1,-1
ffffffff80101c3c:	0c04135b 	jal	ffffffff80104d6c <semTake>
ffffffff80101c40:	2610ffff 	addiu	$s0,$s0,-1
ffffffff80101c44:	3c038011 	lui	$v1,0x8011
ffffffff80101c48:	8c638c40 	lw	$v1,-29632($v1)
ffffffff80101c4c:	3c048011 	lui	$a0,0x8011
ffffffff80101c50:	248482c0 	addiu	$a0,$a0,-32064
ffffffff80101c54:	24630001 	addiu	$v1,$v1,1
ffffffff80101c58:	3c018011 	lui	$at,0x8011
ffffffff80101c5c:	ac238c40 	sw	$v1,-29632($at)
ffffffff80101c60:	0c0404ce 	jal	ffffffff80101338 <printf>
ffffffff80101c64:	00602825 	move	$a1,$v1
ffffffff80101c68:	3c048011 	lui	$a0,0x8011
ffffffff80101c6c:	8c8492e0 	lw	$a0,-27936($a0)
ffffffff80101c70:	0c041347 	jal	ffffffff80104d1c <semGive>
ffffffff80101c74:	00000000 	nop
ffffffff80101c78:	0601ffed 	bgez	$s0,ffffffff80101c30 <taskOne+0x10>
ffffffff80101c7c:	8fbf0014 	lw	$ra,20($sp)
ffffffff80101c80:	8fb00010 	lw	$s0,16($sp)
ffffffff80101c84:	03e00008 	jr	$ra
ffffffff80101c88:	27bd0018 	addiu	$sp,$sp,24

ffffffff80101c8c <taskTwo>:
ffffffff80101c8c:	27bdffe8 	addiu	$sp,$sp,-24
ffffffff80101c90:	afb00010 	sw	$s0,16($sp)
ffffffff80101c94:	afbf0014 	sw	$ra,20($sp)
ffffffff80101c98:	24100009 	li	$s0,9
ffffffff80101c9c:	3c048011 	lui	$a0,0x8011
ffffffff80101ca0:	8c8492e0 	lw	$a0,-27936($a0)
ffffffff80101ca4:	2405ffff 	li	$a1,-1
ffffffff80101ca8:	0c04135b 	jal	ffffffff80104d6c <semTake>
ffffffff80101cac:	2610ffff 	addiu	$s0,$s0,-1
ffffffff80101cb0:	3c038011 	lui	$v1,0x8011
ffffffff80101cb4:	8c638c40 	lw	$v1,-29632($v1)
ffffffff80101cb8:	3c048011 	lui	$a0,0x8011
ffffffff80101cbc:	248482f4 	addiu	$a0,$a0,-32012
ffffffff80101cc0:	2463ffff 	addiu	$v1,$v1,-1
ffffffff80101cc4:	3c018011 	lui	$at,0x8011
ffffffff80101cc8:	ac238c40 	sw	$v1,-29632($at)
ffffffff80101ccc:	0c0404ce 	jal	ffffffff80101338 <printf>
ffffffff80101cd0:	00602825 	move	$a1,$v1
ffffffff80101cd4:	3c048011 	lui	$a0,0x8011
ffffffff80101cd8:	8c8492e0 	lw	$a0,-27936($a0)
ffffffff80101cdc:	0c041347 	jal	ffffffff80104d1c <semGive>
ffffffff80101ce0:	00000000 	nop
ffffffff80101ce4:	0601ffed 	bgez	$s0,ffffffff80101c9c <taskTwo+0x10>
ffffffff80101ce8:	8fbf0014 	lw	$ra,20($sp)
ffffffff80101cec:	8fb00010 	lw	$s0,16($sp)
ffffffff80101cf0:	03e00008 	jr	$ra
ffffffff80101cf4:	27bd0018 	addiu	$sp,$sp,24

ffffffff80101cf8 <s3_sem2>:
ffffffff80101cf8:	27bdffc0 	addiu	$sp,$sp,-64
ffffffff80101cfc:	00002025 	move	$a0,$zero
ffffffff80101d00:	24050001 	li	$a1,1
ffffffff80101d04:	afbf003c 	sw	$ra,60($sp)
ffffffff80101d08:	afb40038 	sw	$s4,56($sp)
ffffffff80101d0c:	afb30034 	sw	$s3,52($sp)
ffffffff80101d10:	afb20030 	sw	$s2,48($sp)
ffffffff80101d14:	afb1002c 	sw	$s1,44($sp)
ffffffff80101d18:	afb00028 	sw	$s0,40($sp)
ffffffff80101d1c:	0c041179 	jal	ffffffff801045e4 <semBCreate>
ffffffff80101d20:	24110002 	li	$s1,2
ffffffff80101d24:	24100001 	li	$s0,1
ffffffff80101d28:	24120003 	li	$s2,3
ffffffff80101d2c:	24130004 	li	$s3,4
ffffffff80101d30:	24140005 	li	$s4,5
ffffffff80101d34:	3c038010 	lui	$v1,0x8010
ffffffff80101d38:	24631c20 	addiu	$v1,$v1,7200
ffffffff80101d3c:	3c048011 	lui	$a0,0x8011
ffffffff80101d40:	24848328 	addiu	$a0,$a0,-31960
ffffffff80101d44:	2405005a 	li	$a1,90
ffffffff80101d48:	00003025 	move	$a2,$zero
ffffffff80101d4c:	afa30010 	sw	$v1,16($sp)
ffffffff80101d50:	afb00014 	sw	$s0,20($sp)
ffffffff80101d54:	afb10018 	sw	$s1,24($sp)
ffffffff80101d58:	afb2001c 	sw	$s2,28($sp)
ffffffff80101d5c:	afb30020 	sw	$s3,32($sp)
ffffffff80101d60:	afb40024 	sw	$s4,36($sp)
ffffffff80101d64:	3c018011 	lui	$at,0x8011
ffffffff80101d68:	ac2292e0 	sw	$v0,-27936($at)
ffffffff80101d6c:	0c0415b3 	jal	ffffffff801056cc <taskSpawn>
ffffffff80101d70:	240707d0 	li	$a3,2000
ffffffff80101d74:	3c038010 	lui	$v1,0x8010
ffffffff80101d78:	24631c8c 	addiu	$v1,$v1,7308
ffffffff80101d7c:	3c048011 	lui	$a0,0x8011
ffffffff80101d80:	24848330 	addiu	$a0,$a0,-31952
ffffffff80101d84:	2405005a 	li	$a1,90
ffffffff80101d88:	00003025 	move	$a2,$zero
ffffffff80101d8c:	240707d0 	li	$a3,2000
ffffffff80101d90:	afb00014 	sw	$s0,20($sp)
ffffffff80101d94:	afb10018 	sw	$s1,24($sp)
ffffffff80101d98:	afb2001c 	sw	$s2,28($sp)
ffffffff80101d9c:	afb30020 	sw	$s3,32($sp)
ffffffff80101da0:	afb40024 	sw	$s4,36($sp)
ffffffff80101da4:	0c0415b3 	jal	ffffffff801056cc <taskSpawn>
ffffffff80101da8:	afa30010 	sw	$v1,16($sp)
ffffffff80101dac:	8fbf003c 	lw	$ra,60($sp)
ffffffff80101db0:	8fb40038 	lw	$s4,56($sp)
ffffffff80101db4:	8fb30034 	lw	$s3,52($sp)
ffffffff80101db8:	8fb20030 	lw	$s2,48($sp)
ffffffff80101dbc:	8fb1002c 	lw	$s1,44($sp)
ffffffff80101dc0:	8fb00028 	lw	$s0,40($sp)
ffffffff80101dc4:	03e00008 	jr	$ra
ffffffff80101dc8:	27bd0040 	addiu	$sp,$sp,64
ffffffff80101dcc:	00000000 	nop

ffffffff80101dd0 <taskOne>:
ffffffff80101dd0:	27bdff80 	addiu	$sp,$sp,-128
ffffffff80101dd4:	afb20078 	sw	$s2,120($sp)
ffffffff80101dd8:	afb10074 	sw	$s1,116($sp)
ffffffff80101ddc:	afb00070 	sw	$s0,112($sp)
ffffffff80101de0:	afbf007c 	sw	$ra,124($sp)
ffffffff80101de4:	27b00038 	addiu	$s0,$sp,56
ffffffff80101de8:	3c058011 	lui	$a1,0x8011
ffffffff80101dec:	24a58340 	addiu	$a1,$a1,-31936
ffffffff80101df0:	88a20000 	lwl	$v0,0($a1)
ffffffff80101df4:	98a20003 	lwr	$v0,3($a1)
ffffffff80101df8:	88a30004 	lwl	$v1,4($a1)
ffffffff80101dfc:	98a30007 	lwr	$v1,7($a1)
ffffffff80101e00:	88a40008 	lwl	$a0,8($a1)
ffffffff80101e04:	98a4000b 	lwr	$a0,11($a1)
ffffffff80101e08:	aba20018 	swl	$v0,24($sp)
ffffffff80101e0c:	bba2001b 	swr	$v0,27($sp)
ffffffff80101e10:	aba3001c 	swl	$v1,28($sp)
ffffffff80101e14:	bba3001f 	swr	$v1,31($sp)
ffffffff80101e18:	aba40020 	swl	$a0,32($sp)
ffffffff80101e1c:	bba40023 	swr	$a0,35($sp)
ffffffff80101e20:	88a2000c 	lwl	$v0,12($a1)
ffffffff80101e24:	98a2000f 	lwr	$v0,15($a1)
ffffffff80101e28:	88a30010 	lwl	$v1,16($a1)
ffffffff80101e2c:	98a30013 	lwr	$v1,19($a1)
ffffffff80101e30:	88a40014 	lwl	$a0,20($a1)
ffffffff80101e34:	98a40017 	lwr	$a0,23($a1)
ffffffff80101e38:	aba20024 	swl	$v0,36($sp)
ffffffff80101e3c:	bba20027 	swr	$v0,39($sp)
ffffffff80101e40:	aba30028 	swl	$v1,40($sp)
ffffffff80101e44:	bba3002b 	swr	$v1,43($sp)
ffffffff80101e48:	aba4002c 	swl	$a0,44($sp)
ffffffff80101e4c:	bba4002f 	swr	$a0,47($sp)
ffffffff80101e50:	88a20018 	lwl	$v0,24($a1)
ffffffff80101e54:	98a2001b 	lwr	$v0,27($a1)
ffffffff80101e58:	80a3001c 	lb	$v1,28($a1)
ffffffff80101e5c:	80a4001d 	lb	$a0,29($a1)
ffffffff80101e60:	aba20030 	swl	$v0,48($sp)
ffffffff80101e64:	bba20033 	swr	$v0,51($sp)
ffffffff80101e68:	a3a30034 	sb	$v1,52($sp)
ffffffff80101e6c:	a3a40035 	sb	$a0,53($sp)
ffffffff80101e70:	80a2001e 	lb	$v0,30($a1)
ffffffff80101e74:	a3a20036 	sb	$v0,54($sp)
ffffffff80101e78:	24120001 	li	$s2,1
ffffffff80101e7c:	24110004 	li	$s1,4
ffffffff80101e80:	3c048011 	lui	$a0,0x8011
ffffffff80101e84:	8c8492f0 	lw	$a0,-27920($a0)
ffffffff80101e88:	27a50018 	addiu	$a1,$sp,24
ffffffff80101e8c:	24060032 	li	$a2,50
ffffffff80101e90:	2407ffff 	li	$a3,-1
ffffffff80101e94:	0c041068 	jal	ffffffff801041a0 <msgQSend>
ffffffff80101e98:	afa00010 	sw	$zero,16($sp)
ffffffff80101e9c:	3c048011 	lui	$a0,0x8011
ffffffff80101ea0:	24848380 	addiu	$a0,$a0,-31872
ffffffff80101ea4:	14520007 	bne	$v0,$s2,ffffffff80101ec4 <taskOne+0xf4>
ffffffff80101ea8:	00000000 	nop
ffffffff80101eac:	3c048011 	lui	$a0,0x8011
ffffffff80101eb0:	24848360 	addiu	$a0,$a0,-31904
ffffffff80101eb4:	0c0404ce 	jal	ffffffff80101338 <printf>
ffffffff80101eb8:	00000000 	nop
ffffffff80101ebc:	080407b3 	j	ffffffff80101ecc <taskOne+0xfc>
ffffffff80101ec0:	00000000 	nop
ffffffff80101ec4:	0c0404ce 	jal	ffffffff80101338 <printf>
ffffffff80101ec8:	00000000 	nop
ffffffff80101ecc:	3c048011 	lui	$a0,0x8011
ffffffff80101ed0:	8c8492f4 	lw	$a0,-27916($a0)
ffffffff80101ed4:	02002825 	move	$a1,$s0
ffffffff80101ed8:	24060032 	li	$a2,50
ffffffff80101edc:	0c0410bb 	jal	ffffffff801042ec <msgQReceive>
ffffffff80101ee0:	2407ffff 	li	$a3,-1
ffffffff80101ee4:	3c048011 	lui	$a0,0x8011
ffffffff80101ee8:	2484839c 	addiu	$a0,$a0,-31844
ffffffff80101eec:	14520005 	bne	$v0,$s2,ffffffff80101f04 <taskOne+0x134>
ffffffff80101ef0:	02002825 	move	$a1,$s0
ffffffff80101ef4:	0c0404ce 	jal	ffffffff80101338 <printf>
ffffffff80101ef8:	2631ffff 	addiu	$s1,$s1,-1
ffffffff80101efc:	080407c5 	j	ffffffff80101f14 <taskOne+0x144>
ffffffff80101f00:	00000000 	nop
ffffffff80101f04:	3c048011 	lui	$a0,0x8011
ffffffff80101f08:	248483bc 	addiu	$a0,$a0,-31812
ffffffff80101f0c:	0c0404ce 	jal	ffffffff80101338 <printf>
ffffffff80101f10:	2631ffff 	addiu	$s1,$s1,-1
ffffffff80101f14:	0621ffda 	bgez	$s1,ffffffff80101e80 <taskOne+0xb0>
ffffffff80101f18:	00000000 	nop
ffffffff80101f1c:	3c048011 	lui	$a0,0x8011
ffffffff80101f20:	8c8492f4 	lw	$a0,-27916($a0)
ffffffff80101f24:	0c040ffd 	jal	ffffffff80103ff4 <msgQDelete>
ffffffff80101f28:	00000000 	nop
ffffffff80101f2c:	8fbf007c 	lw	$ra,124($sp)
ffffffff80101f30:	8fb20078 	lw	$s2,120($sp)
ffffffff80101f34:	8fb10074 	lw	$s1,116($sp)
ffffffff80101f38:	8fb00070 	lw	$s0,112($sp)
ffffffff80101f3c:	03e00008 	jr	$ra
ffffffff80101f40:	27bd0080 	addiu	$sp,$sp,128

ffffffff80101f44 <taskTwo>:
ffffffff80101f44:	27bdff80 	addiu	$sp,$sp,-128
ffffffff80101f48:	afb20078 	sw	$s2,120($sp)
ffffffff80101f4c:	afb10074 	sw	$s1,116($sp)
ffffffff80101f50:	afb00070 	sw	$s0,112($sp)
ffffffff80101f54:	afbf007c 	sw	$ra,124($sp)
ffffffff80101f58:	27b00038 	addiu	$s0,$sp,56
ffffffff80101f5c:	3c058011 	lui	$a1,0x8011
ffffffff80101f60:	24a583c8 	addiu	$a1,$a1,-31800
ffffffff80101f64:	88a20000 	lwl	$v0,0($a1)
ffffffff80101f68:	98a20003 	lwr	$v0,3($a1)
ffffffff80101f6c:	88a30004 	lwl	$v1,4($a1)
ffffffff80101f70:	98a30007 	lwr	$v1,7($a1)
ffffffff80101f74:	88a40008 	lwl	$a0,8($a1)
ffffffff80101f78:	98a4000b 	lwr	$a0,11($a1)
ffffffff80101f7c:	aba20018 	swl	$v0,24($sp)
ffffffff80101f80:	bba2001b 	swr	$v0,27($sp)
ffffffff80101f84:	aba3001c 	swl	$v1,28($sp)
ffffffff80101f88:	bba3001f 	swr	$v1,31($sp)
ffffffff80101f8c:	aba40020 	swl	$a0,32($sp)
ffffffff80101f90:	bba40023 	swr	$a0,35($sp)
ffffffff80101f94:	88a2000c 	lwl	$v0,12($a1)
ffffffff80101f98:	98a2000f 	lwr	$v0,15($a1)
ffffffff80101f9c:	88a30010 	lwl	$v1,16($a1)
ffffffff80101fa0:	98a30013 	lwr	$v1,19($a1)
ffffffff80101fa4:	88a40014 	lwl	$a0,20($a1)
ffffffff80101fa8:	98a40017 	lwr	$a0,23($a1)
ffffffff80101fac:	aba20024 	swl	$v0,36($sp)
ffffffff80101fb0:	bba20027 	swr	$v0,39($sp)
ffffffff80101fb4:	aba30028 	swl	$v1,40($sp)
ffffffff80101fb8:	bba3002b 	swr	$v1,43($sp)
ffffffff80101fbc:	aba4002c 	swl	$a0,44($sp)
ffffffff80101fc0:	bba4002f 	swr	$a0,47($sp)
ffffffff80101fc4:	88a20018 	lwl	$v0,24($a1)
ffffffff80101fc8:	98a2001b 	lwr	$v0,27($a1)
ffffffff80101fcc:	80a3001c 	lb	$v1,28($a1)
ffffffff80101fd0:	80a4001d 	lb	$a0,29($a1)
ffffffff80101fd4:	aba20030 	swl	$v0,48($sp)
ffffffff80101fd8:	bba20033 	swr	$v0,51($sp)
ffffffff80101fdc:	a3a30034 	sb	$v1,52($sp)
ffffffff80101fe0:	a3a40035 	sb	$a0,53($sp)
ffffffff80101fe4:	80a2001e 	lb	$v0,30($a1)
ffffffff80101fe8:	a3a20036 	sb	$v0,54($sp)
ffffffff80101fec:	24120001 	li	$s2,1
ffffffff80101ff0:	24110004 	li	$s1,4
ffffffff80101ff4:	3c048011 	lui	$a0,0x8011
ffffffff80101ff8:	8c8492f0 	lw	$a0,-27920($a0)
ffffffff80101ffc:	02002825 	move	$a1,$s0
ffffffff80102000:	24060032 	li	$a2,50
ffffffff80102004:	0c0410bb 	jal	ffffffff801042ec <msgQReceive>
ffffffff80102008:	2407ffff 	li	$a3,-1
ffffffff8010200c:	3c048011 	lui	$a0,0x8011
ffffffff80102010:	24848408 	addiu	$a0,$a0,-31736
ffffffff80102014:	14520007 	bne	$v0,$s2,ffffffff80102034 <taskTwo+0xf0>
ffffffff80102018:	02002825 	move	$a1,$s0
ffffffff8010201c:	3c048011 	lui	$a0,0x8011
ffffffff80102020:	248483e8 	addiu	$a0,$a0,-31768
ffffffff80102024:	0c0404ce 	jal	ffffffff80101338 <printf>
ffffffff80102028:	00000000 	nop
ffffffff8010202c:	0804080f 	j	ffffffff8010203c <taskTwo+0xf8>
ffffffff80102030:	00000000 	nop
ffffffff80102034:	0c0404ce 	jal	ffffffff80101338 <printf>
ffffffff80102038:	00000000 	nop
ffffffff8010203c:	3c048011 	lui	$a0,0x8011
ffffffff80102040:	8c8492f4 	lw	$a0,-27916($a0)
ffffffff80102044:	27a50018 	addiu	$a1,$sp,24
ffffffff80102048:	24060032 	li	$a2,50
ffffffff8010204c:	2407ffff 	li	$a3,-1
ffffffff80102050:	0c041068 	jal	ffffffff801041a0 <msgQSend>
ffffffff80102054:	afa00010 	sw	$zero,16($sp)
ffffffff80102058:	3c048011 	lui	$a0,0x8011
ffffffff8010205c:	24848414 	addiu	$a0,$a0,-31724
ffffffff80102060:	14520005 	bne	$v0,$s2,ffffffff80102078 <taskTwo+0x134>
ffffffff80102064:	00000000 	nop
ffffffff80102068:	0c0404ce 	jal	ffffffff80101338 <printf>
ffffffff8010206c:	2631ffff 	addiu	$s1,$s1,-1
ffffffff80102070:	08040822 	j	ffffffff80102088 <taskTwo+0x144>
ffffffff80102074:	00000000 	nop
ffffffff80102078:	3c048011 	lui	$a0,0x8011
ffffffff8010207c:	24848434 	addiu	$a0,$a0,-31692
ffffffff80102080:	0c0404ce 	jal	ffffffff80101338 <printf>
ffffffff80102084:	2631ffff 	addiu	$s1,$s1,-1
ffffffff80102088:	0621ffda 	bgez	$s1,ffffffff80101ff4 <taskTwo+0xb0>
ffffffff8010208c:	00000000 	nop
ffffffff80102090:	3c048011 	lui	$a0,0x8011
ffffffff80102094:	8c8492f0 	lw	$a0,-27920($a0)
ffffffff80102098:	0c040ffd 	jal	ffffffff80103ff4 <msgQDelete>
ffffffff8010209c:	00000000 	nop
ffffffff801020a0:	8fbf007c 	lw	$ra,124($sp)
ffffffff801020a4:	8fb20078 	lw	$s2,120($sp)
ffffffff801020a8:	8fb10074 	lw	$s1,116($sp)
ffffffff801020ac:	8fb00070 	lw	$s0,112($sp)
ffffffff801020b0:	03e00008 	jr	$ra
ffffffff801020b4:	27bd0080 	addiu	$sp,$sp,128

ffffffff801020b8 <s4_msgq2>:
ffffffff801020b8:	27bdffc0 	addiu	$sp,$sp,-64
ffffffff801020bc:	24040005 	li	$a0,5
ffffffff801020c0:	24050032 	li	$a1,50
ffffffff801020c4:	00003025 	move	$a2,$zero
ffffffff801020c8:	afbf003c 	sw	$ra,60($sp)
ffffffff801020cc:	afb40038 	sw	$s4,56($sp)
ffffffff801020d0:	afb30034 	sw	$s3,52($sp)
ffffffff801020d4:	afb20030 	sw	$s2,48($sp)
ffffffff801020d8:	afb1002c 	sw	$s1,44($sp)
ffffffff801020dc:	0c040fcb 	jal	ffffffff80103f2c <msgQCreate>
ffffffff801020e0:	afb00028 	sw	$s0,40($sp)
ffffffff801020e4:	3c018011 	lui	$at,0x8011
ffffffff801020e8:	ac2292f0 	sw	$v0,-27920($at)
ffffffff801020ec:	3c048011 	lui	$a0,0x8011
ffffffff801020f0:	24848450 	addiu	$a0,$a0,-31664
ffffffff801020f4:	54400004 	bnezl	$v0,ffffffff80102108 <s4_msgq2+0x50>
ffffffff801020f8:	24040005 	li	$a0,5
ffffffff801020fc:	0c0404ce 	jal	ffffffff80101338 <printf>
ffffffff80102100:	00000000 	nop
ffffffff80102104:	24040005 	li	$a0,5
ffffffff80102108:	24050032 	li	$a1,50
ffffffff8010210c:	0c040fcb 	jal	ffffffff80103f2c <msgQCreate>
ffffffff80102110:	00003025 	move	$a2,$zero
ffffffff80102114:	3c018011 	lui	$at,0x8011
ffffffff80102118:	ac2292f4 	sw	$v0,-27916($at)
ffffffff8010211c:	3c048011 	lui	$a0,0x8011
ffffffff80102120:	24848450 	addiu	$a0,$a0,-31664
ffffffff80102124:	14400003 	bnez	$v0,ffffffff80102134 <s4_msgq2+0x7c>
ffffffff80102128:	00000000 	nop
ffffffff8010212c:	0c0404ce 	jal	ffffffff80101338 <printf>
ffffffff80102130:	00000000 	nop
ffffffff80102134:	3c048011 	lui	$a0,0x8011
ffffffff80102138:	24848468 	addiu	$a0,$a0,-31640
ffffffff8010213c:	3c028010 	lui	$v0,0x8010
ffffffff80102140:	24421dd0 	addiu	$v0,$v0,7632
ffffffff80102144:	24100001 	li	$s0,1
ffffffff80102148:	24110002 	li	$s1,2
ffffffff8010214c:	24120003 	li	$s2,3
ffffffff80102150:	24130004 	li	$s3,4
ffffffff80102154:	24140005 	li	$s4,5
ffffffff80102158:	2405005a 	li	$a1,90
ffffffff8010215c:	00003025 	move	$a2,$zero
ffffffff80102160:	240707d0 	li	$a3,2000
ffffffff80102164:	afa20010 	sw	$v0,16($sp)
ffffffff80102168:	afb00014 	sw	$s0,20($sp)
ffffffff8010216c:	afb10018 	sw	$s1,24($sp)
ffffffff80102170:	afb2001c 	sw	$s2,28($sp)
ffffffff80102174:	afb30020 	sw	$s3,32($sp)
ffffffff80102178:	0c0415b3 	jal	ffffffff801056cc <taskSpawn>
ffffffff8010217c:	afb40024 	sw	$s4,36($sp)
ffffffff80102180:	3c048011 	lui	$a0,0x8011
ffffffff80102184:	24848470 	addiu	$a0,$a0,-31632
ffffffff80102188:	14500003 	bne	$v0,$s0,ffffffff80102198 <s4_msgq2+0xe0>
ffffffff8010218c:	00000000 	nop
ffffffff80102190:	0c0404ce 	jal	ffffffff80101338 <printf>
ffffffff80102194:	00000000 	nop
ffffffff80102198:	3c028010 	lui	$v0,0x8010
ffffffff8010219c:	24421f44 	addiu	$v0,$v0,8004
ffffffff801021a0:	3c048011 	lui	$a0,0x8011
ffffffff801021a4:	2484848c 	addiu	$a0,$a0,-31604
ffffffff801021a8:	2405005a 	li	$a1,90
ffffffff801021ac:	00003025 	move	$a2,$zero
ffffffff801021b0:	240707d0 	li	$a3,2000
ffffffff801021b4:	afb10018 	sw	$s1,24($sp)
ffffffff801021b8:	afb2001c 	sw	$s2,28($sp)
ffffffff801021bc:	afb30020 	sw	$s3,32($sp)
ffffffff801021c0:	afb40024 	sw	$s4,36($sp)
ffffffff801021c4:	afb00014 	sw	$s0,20($sp)
ffffffff801021c8:	0c0415b3 	jal	ffffffff801056cc <taskSpawn>
ffffffff801021cc:	afa20010 	sw	$v0,16($sp)
ffffffff801021d0:	3c048011 	lui	$a0,0x8011
ffffffff801021d4:	24848494 	addiu	$a0,$a0,-31596
ffffffff801021d8:	14500008 	bne	$v0,$s0,ffffffff801021fc <s4_msgq2+0x144>
ffffffff801021dc:	8fbf003c 	lw	$ra,60($sp)
ffffffff801021e0:	8fb40038 	lw	$s4,56($sp)
ffffffff801021e4:	8fb30034 	lw	$s3,52($sp)
ffffffff801021e8:	8fb20030 	lw	$s2,48($sp)
ffffffff801021ec:	8fb1002c 	lw	$s1,44($sp)
ffffffff801021f0:	8fb00028 	lw	$s0,40($sp)
ffffffff801021f4:	080404ce 	j	ffffffff80101338 <printf>
ffffffff801021f8:	27bd0040 	addiu	$sp,$sp,64
ffffffff801021fc:	8fb40038 	lw	$s4,56($sp)
ffffffff80102200:	8fb30034 	lw	$s3,52($sp)
ffffffff80102204:	8fb20030 	lw	$s2,48($sp)
ffffffff80102208:	8fb1002c 	lw	$s1,44($sp)
ffffffff8010220c:	8fb00028 	lw	$s0,40($sp)
ffffffff80102210:	03e00008 	jr	$ra
ffffffff80102214:	27bd0040 	addiu	$sp,$sp,64
	...

ffffffff80102220 <prioLow>:
ffffffff80102220:	27bdffe0 	addiu	$sp,$sp,-32
ffffffff80102224:	afb00010 	sw	$s0,16($sp)
ffffffff80102228:	3c10007f 	lui	$s0,0x7f
ffffffff8010222c:	afb10014 	sw	$s1,20($sp)
ffffffff80102230:	afbf0018 	sw	$ra,24($sp)
ffffffff80102234:	00008825 	move	$s1,$zero
ffffffff80102238:	3610ffff 	ori	$s0,$s0,0xffff
ffffffff8010223c:	3c048011 	lui	$a0,0x8011
ffffffff80102240:	248484b0 	addiu	$a0,$a0,-31568
ffffffff80102244:	0c0404ce 	jal	ffffffff80101338 <printf>
ffffffff80102248:	00000000 	nop
ffffffff8010224c:	3c048011 	lui	$a0,0x8011
ffffffff80102250:	8c849300 	lw	$a0,-27904($a0)
ffffffff80102254:	0c04135b 	jal	ffffffff80104d6c <semTake>
ffffffff80102258:	2405ffff 	li	$a1,-1
ffffffff8010225c:	3c048011 	lui	$a0,0x8011
ffffffff80102260:	248484dc 	addiu	$a0,$a0,-31524
ffffffff80102264:	0c0404ce 	jal	ffffffff80101338 <printf>
ffffffff80102268:	00000000 	nop
ffffffff8010226c:	26020001 	addiu	$v0,$s0,1
ffffffff80102270:	2442ffff 	addiu	$v0,$v0,-1
ffffffff80102274:	5440ffff 	bnezl	$v0,ffffffff80102274 <prioLow+0x54>
ffffffff80102278:	2442ffff 	addiu	$v0,$v0,-1
ffffffff8010227c:	3c048011 	lui	$a0,0x8011
ffffffff80102280:	24848500 	addiu	$a0,$a0,-31488
ffffffff80102284:	0c0404ce 	jal	ffffffff80101338 <printf>
ffffffff80102288:	26310001 	addiu	$s1,$s1,1
ffffffff8010228c:	3c048011 	lui	$a0,0x8011
ffffffff80102290:	8c849300 	lw	$a0,-27904($a0)
ffffffff80102294:	0c041347 	jal	ffffffff80104d1c <semGive>
ffffffff80102298:	00000000 	nop
ffffffff8010229c:	2a230003 	slti	$v1,$s1,3
ffffffff801022a0:	1460ffe6 	bnez	$v1,ffffffff8010223c <prioLow+0x1c>
ffffffff801022a4:	8fbf0018 	lw	$ra,24($sp)
ffffffff801022a8:	8fb10014 	lw	$s1,20($sp)
ffffffff801022ac:	8fb00010 	lw	$s0,16($sp)
ffffffff801022b0:	3c048011 	lui	$a0,0x8011
ffffffff801022b4:	24848528 	addiu	$a0,$a0,-31448
ffffffff801022b8:	080404ce 	j	ffffffff80101338 <printf>
ffffffff801022bc:	27bd0020 	addiu	$sp,$sp,32

ffffffff801022c0 <prioMedium>:
ffffffff801022c0:	27bdffe0 	addiu	$sp,$sp,-32
ffffffff801022c4:	afb20018 	sw	$s2,24($sp)
ffffffff801022c8:	afb10014 	sw	$s1,20($sp)
ffffffff801022cc:	24040014 	li	$a0,20
ffffffff801022d0:	3c12007f 	lui	$s2,0x7f
ffffffff801022d4:	3c1104ff 	lui	$s1,0x4ff
ffffffff801022d8:	afb00010 	sw	$s0,16($sp)
ffffffff801022dc:	afbf001c 	sw	$ra,28($sp)
ffffffff801022e0:	0c04174b 	jal	ffffffff80105d2c <taskDelay>
ffffffff801022e4:	00008025 	move	$s0,$zero
ffffffff801022e8:	3652ffff 	ori	$s2,$s2,0xffff
ffffffff801022ec:	3631ffff 	ori	$s1,$s1,0xffff
ffffffff801022f0:	02121024 	and	$v0,$s0,$s2
ffffffff801022f4:	14400005 	bnez	$v0,ffffffff8010230c <prioMedium+0x4c>
ffffffff801022f8:	26100001 	addiu	$s0,$s0,1
ffffffff801022fc:	3c048011 	lui	$a0,0x8011
ffffffff80102300:	2484855c 	addiu	$a0,$a0,-31396
ffffffff80102304:	0c0404ce 	jal	ffffffff80101338 <printf>
ffffffff80102308:	00000000 	nop
ffffffff8010230c:	0230102a 	slt	$v0,$s1,$s0
ffffffff80102310:	5040fff8 	beqzl	$v0,ffffffff801022f4 <prioMedium+0x34>
ffffffff80102314:	02121024 	and	$v0,$s0,$s2
ffffffff80102318:	8fbf001c 	lw	$ra,28($sp)
ffffffff8010231c:	8fb20018 	lw	$s2,24($sp)
ffffffff80102320:	8fb10014 	lw	$s1,20($sp)
ffffffff80102324:	8fb00010 	lw	$s0,16($sp)
ffffffff80102328:	3c048011 	lui	$a0,0x8011
ffffffff8010232c:	24848574 	addiu	$a0,$a0,-31372
ffffffff80102330:	080404ce 	j	ffffffff80101338 <printf>
ffffffff80102334:	27bd0020 	addiu	$sp,$sp,32

ffffffff80102338 <prioHigh>:
ffffffff80102338:	27bdffe0 	addiu	$sp,$sp,-32
ffffffff8010233c:	afb00010 	sw	$s0,16($sp)
ffffffff80102340:	2404001e 	li	$a0,30
ffffffff80102344:	3c10007f 	lui	$s0,0x7f
ffffffff80102348:	afb10014 	sw	$s1,20($sp)
ffffffff8010234c:	afbf0018 	sw	$ra,24($sp)
ffffffff80102350:	0c04174b 	jal	ffffffff80105d2c <taskDelay>
ffffffff80102354:	00008825 	move	$s1,$zero
ffffffff80102358:	3610ffff 	ori	$s0,$s0,0xffff
ffffffff8010235c:	3c048011 	lui	$a0,0x8011
ffffffff80102360:	248485ac 	addiu	$a0,$a0,-31316
ffffffff80102364:	0c0404ce 	jal	ffffffff80101338 <printf>
ffffffff80102368:	00000000 	nop
ffffffff8010236c:	3c048011 	lui	$a0,0x8011
ffffffff80102370:	8c849300 	lw	$a0,-27904($a0)
ffffffff80102374:	0c04135b 	jal	ffffffff80104d6c <semTake>
ffffffff80102378:	2405ffff 	li	$a1,-1
ffffffff8010237c:	3c048011 	lui	$a0,0x8011
ffffffff80102380:	248485dc 	addiu	$a0,$a0,-31268
ffffffff80102384:	0c0404ce 	jal	ffffffff80101338 <printf>
ffffffff80102388:	00000000 	nop
ffffffff8010238c:	26020001 	addiu	$v0,$s0,1
ffffffff80102390:	2442ffff 	addiu	$v0,$v0,-1
ffffffff80102394:	5440ffff 	bnezl	$v0,ffffffff80102394 <prioHigh+0x5c>
ffffffff80102398:	2442ffff 	addiu	$v0,$v0,-1
ffffffff8010239c:	3c048011 	lui	$a0,0x8011
ffffffff801023a0:	24848604 	addiu	$a0,$a0,-31228
ffffffff801023a4:	0c0404ce 	jal	ffffffff80101338 <printf>
ffffffff801023a8:	26310001 	addiu	$s1,$s1,1
ffffffff801023ac:	3c048011 	lui	$a0,0x8011
ffffffff801023b0:	8c849300 	lw	$a0,-27904($a0)
ffffffff801023b4:	0c041347 	jal	ffffffff80104d1c <semGive>
ffffffff801023b8:	00000000 	nop
ffffffff801023bc:	2a230003 	slti	$v1,$s1,3
ffffffff801023c0:	1460ffe6 	bnez	$v1,ffffffff8010235c <prioHigh+0x24>
ffffffff801023c4:	8fbf0018 	lw	$ra,24($sp)
ffffffff801023c8:	8fb10014 	lw	$s1,20($sp)
ffffffff801023cc:	8fb00010 	lw	$s0,16($sp)
ffffffff801023d0:	3c048011 	lui	$a0,0x8011
ffffffff801023d4:	2484862c 	addiu	$a0,$a0,-31188
ffffffff801023d8:	080404ce 	j	ffffffff80101338 <printf>
ffffffff801023dc:	27bd0020 	addiu	$sp,$sp,32

ffffffff801023e0 <s7_inversion>:
ffffffff801023e0:	27bdffd0 	addiu	$sp,$sp,-48
ffffffff801023e4:	3c048011 	lui	$a0,0x8011
ffffffff801023e8:	24848664 	addiu	$a0,$a0,-31132
ffffffff801023ec:	afb00028 	sw	$s0,40($sp)
ffffffff801023f0:	afbf002c 	sw	$ra,44($sp)
ffffffff801023f4:	0c0404ce 	jal	ffffffff80101338 <printf>
ffffffff801023f8:	24100001 	li	$s0,1
ffffffff801023fc:	0c041458 	jal	ffffffff80105160 <semMCreate>
ffffffff80102400:	24040001 	li	$a0,1
ffffffff80102404:	3c048011 	lui	$a0,0x8011
ffffffff80102408:	24848694 	addiu	$a0,$a0,-31084
ffffffff8010240c:	3c038010 	lui	$v1,0x8010
ffffffff80102410:	24632220 	addiu	$v1,$v1,8736
ffffffff80102414:	24050068 	li	$a1,104
ffffffff80102418:	24060100 	li	$a2,256
ffffffff8010241c:	24074e20 	li	$a3,20000
ffffffff80102420:	3c018011 	lui	$at,0x8011
ffffffff80102424:	ac229300 	sw	$v0,-27904($at)
ffffffff80102428:	afa30010 	sw	$v1,16($sp)
ffffffff8010242c:	afa00014 	sw	$zero,20($sp)
ffffffff80102430:	afa00018 	sw	$zero,24($sp)
ffffffff80102434:	afa0001c 	sw	$zero,28($sp)
ffffffff80102438:	afa00020 	sw	$zero,32($sp)
ffffffff8010243c:	0c0415b3 	jal	ffffffff801056cc <taskSpawn>
ffffffff80102440:	afa00024 	sw	$zero,36($sp)
ffffffff80102444:	3c048011 	lui	$a0,0x8011
ffffffff80102448:	2484869c 	addiu	$a0,$a0,-31076
ffffffff8010244c:	14500003 	bne	$v0,$s0,ffffffff8010245c <s7_inversion+0x7c>
ffffffff80102450:	00000000 	nop
ffffffff80102454:	0c0404ce 	jal	ffffffff80101338 <printf>
ffffffff80102458:	00000000 	nop
ffffffff8010245c:	3c048011 	lui	$a0,0x8011
ffffffff80102460:	248486b8 	addiu	$a0,$a0,-31048
ffffffff80102464:	24050067 	li	$a1,103
ffffffff80102468:	24060100 	li	$a2,256
ffffffff8010246c:	24074e20 	li	$a3,20000
ffffffff80102470:	3c028010 	lui	$v0,0x8010
ffffffff80102474:	244222c0 	addiu	$v0,$v0,8896
ffffffff80102478:	afa00014 	sw	$zero,20($sp)
ffffffff8010247c:	afa00018 	sw	$zero,24($sp)
ffffffff80102480:	afa0001c 	sw	$zero,28($sp)
ffffffff80102484:	afa00020 	sw	$zero,32($sp)
ffffffff80102488:	afa00024 	sw	$zero,36($sp)
ffffffff8010248c:	0c0415b3 	jal	ffffffff801056cc <taskSpawn>
ffffffff80102490:	afa20010 	sw	$v0,16($sp)
ffffffff80102494:	3c048011 	lui	$a0,0x8011
ffffffff80102498:	248486c0 	addiu	$a0,$a0,-31040
ffffffff8010249c:	00002825 	move	$a1,$zero
ffffffff801024a0:	00003025 	move	$a2,$zero
ffffffff801024a4:	14500005 	bne	$v0,$s0,ffffffff801024bc <s7_inversion+0xdc>
ffffffff801024a8:	00003825 	move	$a3,$zero
ffffffff801024ac:	afa00010 	sw	$zero,16($sp)
ffffffff801024b0:	afa00014 	sw	$zero,20($sp)
ffffffff801024b4:	0c0404ce 	jal	ffffffff80101338 <printf>
ffffffff801024b8:	afa00018 	sw	$zero,24($sp)
ffffffff801024bc:	3c028010 	lui	$v0,0x8010
ffffffff801024c0:	24422338 	addiu	$v0,$v0,9016
ffffffff801024c4:	3c048011 	lui	$a0,0x8011
ffffffff801024c8:	248486e0 	addiu	$a0,$a0,-31008
ffffffff801024cc:	24050066 	li	$a1,102
ffffffff801024d0:	24060100 	li	$a2,256
ffffffff801024d4:	24074e20 	li	$a3,20000
ffffffff801024d8:	afa00014 	sw	$zero,20($sp)
ffffffff801024dc:	afa00018 	sw	$zero,24($sp)
ffffffff801024e0:	afa0001c 	sw	$zero,28($sp)
ffffffff801024e4:	afa00020 	sw	$zero,32($sp)
ffffffff801024e8:	afa00024 	sw	$zero,36($sp)
ffffffff801024ec:	0c0415b3 	jal	ffffffff801056cc <taskSpawn>
ffffffff801024f0:	afa20010 	sw	$v0,16($sp)
ffffffff801024f4:	3c048011 	lui	$a0,0x8011
ffffffff801024f8:	248486e8 	addiu	$a0,$a0,-31000
ffffffff801024fc:	00002825 	move	$a1,$zero
ffffffff80102500:	00003025 	move	$a2,$zero
ffffffff80102504:	14500005 	bne	$v0,$s0,ffffffff8010251c <s7_inversion+0x13c>
ffffffff80102508:	00003825 	move	$a3,$zero
ffffffff8010250c:	afa00010 	sw	$zero,16($sp)
ffffffff80102510:	afa00014 	sw	$zero,20($sp)
ffffffff80102514:	0c0404ce 	jal	ffffffff80101338 <printf>
ffffffff80102518:	afa00018 	sw	$zero,24($sp)
ffffffff8010251c:	8fbf002c 	lw	$ra,44($sp)
ffffffff80102520:	8fb00028 	lw	$s0,40($sp)
ffffffff80102524:	03e00008 	jr	$ra
ffffffff80102528:	27bd0030 	addiu	$sp,$sp,48
ffffffff8010252c:	00000000 	nop

ffffffff80102530 <prioLow>:
ffffffff80102530:	27bdffe0 	addiu	$sp,$sp,-32
ffffffff80102534:	afb00010 	sw	$s0,16($sp)
ffffffff80102538:	3c10007f 	lui	$s0,0x7f
ffffffff8010253c:	afb10014 	sw	$s1,20($sp)
ffffffff80102540:	afbf0018 	sw	$ra,24($sp)
ffffffff80102544:	00008825 	move	$s1,$zero
ffffffff80102548:	3610ffff 	ori	$s0,$s0,0xffff
ffffffff8010254c:	3c048011 	lui	$a0,0x8011
ffffffff80102550:	24848710 	addiu	$a0,$a0,-30960
ffffffff80102554:	0c0404ce 	jal	ffffffff80101338 <printf>
ffffffff80102558:	00000000 	nop
ffffffff8010255c:	3c048011 	lui	$a0,0x8011
ffffffff80102560:	8c849310 	lw	$a0,-27888($a0)
ffffffff80102564:	0c04135b 	jal	ffffffff80104d6c <semTake>
ffffffff80102568:	2405ffff 	li	$a1,-1
ffffffff8010256c:	3c048011 	lui	$a0,0x8011
ffffffff80102570:	2484873c 	addiu	$a0,$a0,-30916
ffffffff80102574:	0c0404ce 	jal	ffffffff80101338 <printf>
ffffffff80102578:	00000000 	nop
ffffffff8010257c:	26020001 	addiu	$v0,$s0,1
ffffffff80102580:	2442ffff 	addiu	$v0,$v0,-1
ffffffff80102584:	5440ffff 	bnezl	$v0,ffffffff80102584 <prioLow+0x54>
ffffffff80102588:	2442ffff 	addiu	$v0,$v0,-1
ffffffff8010258c:	3c048011 	lui	$a0,0x8011
ffffffff80102590:	24848760 	addiu	$a0,$a0,-30880
ffffffff80102594:	0c0404ce 	jal	ffffffff80101338 <printf>
ffffffff80102598:	26310001 	addiu	$s1,$s1,1
ffffffff8010259c:	3c048011 	lui	$a0,0x8011
ffffffff801025a0:	8c849310 	lw	$a0,-27888($a0)
ffffffff801025a4:	0c041347 	jal	ffffffff80104d1c <semGive>
ffffffff801025a8:	00000000 	nop
ffffffff801025ac:	2a230003 	slti	$v1,$s1,3
ffffffff801025b0:	1460ffe6 	bnez	$v1,ffffffff8010254c <prioLow+0x1c>
ffffffff801025b4:	8fbf0018 	lw	$ra,24($sp)
ffffffff801025b8:	8fb10014 	lw	$s1,20($sp)
ffffffff801025bc:	8fb00010 	lw	$s0,16($sp)
ffffffff801025c0:	3c048011 	lui	$a0,0x8011
ffffffff801025c4:	24848788 	addiu	$a0,$a0,-30840
ffffffff801025c8:	080404ce 	j	ffffffff80101338 <printf>
ffffffff801025cc:	27bd0020 	addiu	$sp,$sp,32

ffffffff801025d0 <prioMedium>:
ffffffff801025d0:	27bdffe0 	addiu	$sp,$sp,-32
ffffffff801025d4:	afb20018 	sw	$s2,24($sp)
ffffffff801025d8:	afb10014 	sw	$s1,20($sp)
ffffffff801025dc:	24040014 	li	$a0,20
ffffffff801025e0:	3c12007f 	lui	$s2,0x7f
ffffffff801025e4:	3c1104ff 	lui	$s1,0x4ff
ffffffff801025e8:	afb00010 	sw	$s0,16($sp)
ffffffff801025ec:	afbf001c 	sw	$ra,28($sp)
ffffffff801025f0:	0c04174b 	jal	ffffffff80105d2c <taskDelay>
ffffffff801025f4:	00008025 	move	$s0,$zero
ffffffff801025f8:	3652ffff 	ori	$s2,$s2,0xffff
ffffffff801025fc:	3631ffff 	ori	$s1,$s1,0xffff
ffffffff80102600:	02121024 	and	$v0,$s0,$s2
ffffffff80102604:	14400005 	bnez	$v0,ffffffff8010261c <prioMedium+0x4c>
ffffffff80102608:	26100001 	addiu	$s0,$s0,1
ffffffff8010260c:	3c048011 	lui	$a0,0x8011
ffffffff80102610:	248487bc 	addiu	$a0,$a0,-30788
ffffffff80102614:	0c0404ce 	jal	ffffffff80101338 <printf>
ffffffff80102618:	00000000 	nop
ffffffff8010261c:	0230102a 	slt	$v0,$s1,$s0
ffffffff80102620:	5040fff8 	beqzl	$v0,ffffffff80102604 <prioMedium+0x34>
ffffffff80102624:	02121024 	and	$v0,$s0,$s2
ffffffff80102628:	8fbf001c 	lw	$ra,28($sp)
ffffffff8010262c:	8fb20018 	lw	$s2,24($sp)
ffffffff80102630:	8fb10014 	lw	$s1,20($sp)
ffffffff80102634:	8fb00010 	lw	$s0,16($sp)
ffffffff80102638:	3c048011 	lui	$a0,0x8011
ffffffff8010263c:	248487d4 	addiu	$a0,$a0,-30764
ffffffff80102640:	080404ce 	j	ffffffff80101338 <printf>
ffffffff80102644:	27bd0020 	addiu	$sp,$sp,32

ffffffff80102648 <prioHigh>:
ffffffff80102648:	27bdffe0 	addiu	$sp,$sp,-32
ffffffff8010264c:	afb00010 	sw	$s0,16($sp)
ffffffff80102650:	2404001e 	li	$a0,30
ffffffff80102654:	3c10007f 	lui	$s0,0x7f
ffffffff80102658:	afb10014 	sw	$s1,20($sp)
ffffffff8010265c:	afbf0018 	sw	$ra,24($sp)
ffffffff80102660:	0c04174b 	jal	ffffffff80105d2c <taskDelay>
ffffffff80102664:	00008825 	move	$s1,$zero
ffffffff80102668:	3610ffff 	ori	$s0,$s0,0xffff
ffffffff8010266c:	3c048011 	lui	$a0,0x8011
ffffffff80102670:	2484880c 	addiu	$a0,$a0,-30708
ffffffff80102674:	0c0404ce 	jal	ffffffff80101338 <printf>
ffffffff80102678:	00000000 	nop
ffffffff8010267c:	3c048011 	lui	$a0,0x8011
ffffffff80102680:	8c849310 	lw	$a0,-27888($a0)
ffffffff80102684:	0c04135b 	jal	ffffffff80104d6c <semTake>
ffffffff80102688:	2405ffff 	li	$a1,-1
ffffffff8010268c:	3c048011 	lui	$a0,0x8011
ffffffff80102690:	2484883c 	addiu	$a0,$a0,-30660
ffffffff80102694:	0c0404ce 	jal	ffffffff80101338 <printf>
ffffffff80102698:	00000000 	nop
ffffffff8010269c:	26020001 	addiu	$v0,$s0,1
ffffffff801026a0:	2442ffff 	addiu	$v0,$v0,-1
ffffffff801026a4:	5440ffff 	bnezl	$v0,ffffffff801026a4 <prioHigh+0x5c>
ffffffff801026a8:	2442ffff 	addiu	$v0,$v0,-1
ffffffff801026ac:	3c048011 	lui	$a0,0x8011
ffffffff801026b0:	24848864 	addiu	$a0,$a0,-30620
ffffffff801026b4:	0c0404ce 	jal	ffffffff80101338 <printf>
ffffffff801026b8:	26310001 	addiu	$s1,$s1,1
ffffffff801026bc:	3c048011 	lui	$a0,0x8011
ffffffff801026c0:	8c849310 	lw	$a0,-27888($a0)
ffffffff801026c4:	0c041347 	jal	ffffffff80104d1c <semGive>
ffffffff801026c8:	00000000 	nop
ffffffff801026cc:	2a230003 	slti	$v1,$s1,3
ffffffff801026d0:	1460ffe6 	bnez	$v1,ffffffff8010266c <prioHigh+0x24>
ffffffff801026d4:	8fbf0018 	lw	$ra,24($sp)
ffffffff801026d8:	8fb10014 	lw	$s1,20($sp)
ffffffff801026dc:	8fb00010 	lw	$s0,16($sp)
ffffffff801026e0:	3c048011 	lui	$a0,0x8011
ffffffff801026e4:	2484888c 	addiu	$a0,$a0,-30580
ffffffff801026e8:	080404ce 	j	ffffffff80101338 <printf>
ffffffff801026ec:	27bd0020 	addiu	$sp,$sp,32

ffffffff801026f0 <s7_inversion2>:
ffffffff801026f0:	27bdffd0 	addiu	$sp,$sp,-48
ffffffff801026f4:	3c048011 	lui	$a0,0x8011
ffffffff801026f8:	248488c4 	addiu	$a0,$a0,-30524
ffffffff801026fc:	afb00028 	sw	$s0,40($sp)
ffffffff80102700:	afbf002c 	sw	$ra,44($sp)
ffffffff80102704:	0c0404ce 	jal	ffffffff80101338 <printf>
ffffffff80102708:	24100001 	li	$s0,1
ffffffff8010270c:	0c041458 	jal	ffffffff80105160 <semMCreate>
ffffffff80102710:	24040009 	li	$a0,9
ffffffff80102714:	3c048011 	lui	$a0,0x8011
ffffffff80102718:	248488f4 	addiu	$a0,$a0,-30476
ffffffff8010271c:	3c038010 	lui	$v1,0x8010
ffffffff80102720:	24632530 	addiu	$v1,$v1,9520
ffffffff80102724:	24050068 	li	$a1,104
ffffffff80102728:	24060100 	li	$a2,256
ffffffff8010272c:	24074e20 	li	$a3,20000
ffffffff80102730:	3c018011 	lui	$at,0x8011
ffffffff80102734:	ac229310 	sw	$v0,-27888($at)
ffffffff80102738:	afa30010 	sw	$v1,16($sp)
ffffffff8010273c:	afa00014 	sw	$zero,20($sp)
ffffffff80102740:	afa00018 	sw	$zero,24($sp)
ffffffff80102744:	afa0001c 	sw	$zero,28($sp)
ffffffff80102748:	afa00020 	sw	$zero,32($sp)
ffffffff8010274c:	0c0415b3 	jal	ffffffff801056cc <taskSpawn>
ffffffff80102750:	afa00024 	sw	$zero,36($sp)
ffffffff80102754:	3c048011 	lui	$a0,0x8011
ffffffff80102758:	248488fc 	addiu	$a0,$a0,-30468
ffffffff8010275c:	14500003 	bne	$v0,$s0,ffffffff8010276c <s7_inversion2+0x7c>
ffffffff80102760:	00000000 	nop
ffffffff80102764:	0c0404ce 	jal	ffffffff80101338 <printf>
ffffffff80102768:	00000000 	nop
ffffffff8010276c:	3c048011 	lui	$a0,0x8011
ffffffff80102770:	24848918 	addiu	$a0,$a0,-30440
ffffffff80102774:	3c028010 	lui	$v0,0x8010
ffffffff80102778:	244225d0 	addiu	$v0,$v0,9680
ffffffff8010277c:	24050067 	li	$a1,103
ffffffff80102780:	24060100 	li	$a2,256
ffffffff80102784:	24074e20 	li	$a3,20000
ffffffff80102788:	afa00014 	sw	$zero,20($sp)
ffffffff8010278c:	afa00018 	sw	$zero,24($sp)
ffffffff80102790:	afa0001c 	sw	$zero,28($sp)
ffffffff80102794:	afa00020 	sw	$zero,32($sp)
ffffffff80102798:	afa00024 	sw	$zero,36($sp)
ffffffff8010279c:	0c0415b3 	jal	ffffffff801056cc <taskSpawn>
ffffffff801027a0:	afa20010 	sw	$v0,16($sp)
ffffffff801027a4:	3c048011 	lui	$a0,0x8011
ffffffff801027a8:	24848920 	addiu	$a0,$a0,-30432
ffffffff801027ac:	14500003 	bne	$v0,$s0,ffffffff801027bc <s7_inversion2+0xcc>
ffffffff801027b0:	00000000 	nop
ffffffff801027b4:	0c0404ce 	jal	ffffffff80101338 <printf>
ffffffff801027b8:	00000000 	nop
ffffffff801027bc:	3c028010 	lui	$v0,0x8010
ffffffff801027c0:	24422648 	addiu	$v0,$v0,9800
ffffffff801027c4:	3c048011 	lui	$a0,0x8011
ffffffff801027c8:	24848940 	addiu	$a0,$a0,-30400
ffffffff801027cc:	24050066 	li	$a1,102
ffffffff801027d0:	24060100 	li	$a2,256
ffffffff801027d4:	24074e20 	li	$a3,20000
ffffffff801027d8:	afa00014 	sw	$zero,20($sp)
ffffffff801027dc:	afa00018 	sw	$zero,24($sp)
ffffffff801027e0:	afa0001c 	sw	$zero,28($sp)
ffffffff801027e4:	afa00020 	sw	$zero,32($sp)
ffffffff801027e8:	afa00024 	sw	$zero,36($sp)
ffffffff801027ec:	0c0415b3 	jal	ffffffff801056cc <taskSpawn>
ffffffff801027f0:	afa20010 	sw	$v0,16($sp)
ffffffff801027f4:	3c048011 	lui	$a0,0x8011
ffffffff801027f8:	24848948 	addiu	$a0,$a0,-30392
ffffffff801027fc:	14500004 	bne	$v0,$s0,ffffffff80102810 <s7_inversion2+0x120>
ffffffff80102800:	8fbf002c 	lw	$ra,44($sp)
ffffffff80102804:	8fb00028 	lw	$s0,40($sp)
ffffffff80102808:	080404ce 	j	ffffffff80101338 <printf>
ffffffff8010280c:	27bd0030 	addiu	$sp,$sp,48
ffffffff80102810:	8fb00028 	lw	$s0,40($sp)
ffffffff80102814:	03e00008 	jr	$ra
ffffffff80102818:	27bd0030 	addiu	$sp,$sp,48
ffffffff8010281c:	00000000 	nop

ffffffff80102820 <ICACHE_vInvalidateAddr>:
ffffffff80102820:	40098000 	mfc0	$t1,$16
ffffffff80102824:	00000040 	sll	$zero,$zero,0x1
ffffffff80102828:	00000040 	sll	$zero,$zero,0x1
ffffffff8010282c:	00000040 	sll	$zero,$zero,0x1
ffffffff80102830:	00000040 	sll	$zero,$zero,0x1
ffffffff80102834:	31290007 	andi	$t1,$t1,0x7
ffffffff80102838:	39290002 	xori	$t1,$t1,0x2
ffffffff8010283c:	1120001b 	beqz	$t1,ffffffff801028ac <ICACHE_vInvalidateAddr+0x8c>
ffffffff80102840:	00000000 	nop
ffffffff80102844:	3c098011 	lui	$t1,0x8011
ffffffff80102848:	25298980 	addiu	$t1,$t1,-30336
ffffffff8010284c:	81290000 	lb	$t1,0($t1)
ffffffff80102850:	11200009 	beqz	$t1,ffffffff80102878 <ICACHE_vInvalidateAddr+0x58>
ffffffff80102854:	00000000 	nop
ffffffff80102858:	bc970000 	cache	0x17,0($a0)
ffffffff8010285c:	0000000f 	sync
	...
ffffffff80102870:	1000000e 	b	ffffffff801028ac <ICACHE_vInvalidateAddr+0x8c>
ffffffff80102874:	00000000 	nop
ffffffff80102878:	3c098010 	lui	$t1,0x8010
ffffffff8010287c:	25292898 	addiu	$t1,$t1,10392
ffffffff80102880:	bd340000 	cache	0x14,0($t1)
ffffffff80102884:	0000000f 	sync
	...
ffffffff80102898:	bc900000 	cache	0x10,0($a0)
	...
ffffffff801028ac:	14a00003 	bnez	$a1,ffffffff801028bc <IPIPE_vFlush>
ffffffff801028b0:	00000000 	nop
ffffffff801028b4:	03e00008 	jr	$ra
ffffffff801028b8:	00000000 	nop

ffffffff801028bc <IPIPE_vFlush>:
ffffffff801028bc:	40086000 	mfc0	$t0,$12
ffffffff801028c0:	00000040 	sll	$zero,$zero,0x1
ffffffff801028c4:	00000040 	sll	$zero,$zero,0x1
ffffffff801028c8:	00000040 	sll	$zero,$zero,0x1
ffffffff801028cc:	00000040 	sll	$zero,$zero,0x1
ffffffff801028d0:	35090019 	ori	$t1,$t0,0x19
ffffffff801028d4:	39290019 	xori	$t1,$t1,0x19
ffffffff801028d8:	00000000 	nop
ffffffff801028dc:	40896000 	mtc0	$t1,$12
ffffffff801028e0:	00000040 	sll	$zero,$zero,0x1
ffffffff801028e4:	00000040 	sll	$zero,$zero,0x1
ffffffff801028e8:	00000040 	sll	$zero,$zero,0x1
ffffffff801028ec:	00000040 	sll	$zero,$zero,0x1
ffffffff801028f0:	3c0a0040 	lui	$t2,0x40
ffffffff801028f4:	012a4825 	or	$t1,$t1,$t2
ffffffff801028f8:	00000000 	nop
ffffffff801028fc:	40896000 	mtc0	$t1,$12
ffffffff80102900:	00000040 	sll	$zero,$zero,0x1
ffffffff80102904:	00000040 	sll	$zero,$zero,0x1
ffffffff80102908:	00000040 	sll	$zero,$zero,0x1
ffffffff8010290c:	00000040 	sll	$zero,$zero,0x1
ffffffff80102910:	35290004 	ori	$t1,$t1,0x4
ffffffff80102914:	39290004 	xori	$t1,$t1,0x4
ffffffff80102918:	00000000 	nop
ffffffff8010291c:	40896000 	mtc0	$t1,$12
ffffffff80102920:	00000040 	sll	$zero,$zero,0x1
ffffffff80102924:	00000040 	sll	$zero,$zero,0x1
ffffffff80102928:	00000040 	sll	$zero,$zero,0x1
ffffffff8010292c:	00000040 	sll	$zero,$zero,0x1
ffffffff80102930:	3c098011 	lui	$t1,0x8011
ffffffff80102934:	25298981 	addiu	$t1,$t1,-30335
ffffffff80102938:	81290000 	lb	$t1,0($t1)
ffffffff8010293c:	15200017 	bnez	$t1,ffffffff8010299c <after_eret32+0x20>
ffffffff80102940:	00000000 	nop
ffffffff80102944:	40097000 	mfc0	$t1,$14
ffffffff80102948:	00000040 	sll	$zero,$zero,0x1
ffffffff8010294c:	00000040 	sll	$zero,$zero,0x1
ffffffff80102950:	00000040 	sll	$zero,$zero,0x1
ffffffff80102954:	00000040 	sll	$zero,$zero,0x1
ffffffff80102958:	3c0a8010 	lui	$t2,0x8010
ffffffff8010295c:	254a297c 	addiu	$t2,$t2,10620
ffffffff80102960:	00000000 	nop
ffffffff80102964:	408a7000 	mtc0	$t2,$14
ffffffff80102968:	00000040 	sll	$zero,$zero,0x1
ffffffff8010296c:	00000040 	sll	$zero,$zero,0x1
ffffffff80102970:	00000040 	sll	$zero,$zero,0x1
ffffffff80102974:	00000040 	sll	$zero,$zero,0x1
ffffffff80102978:	42000018 	eret

ffffffff8010297c <after_eret32>:
ffffffff8010297c:	00000000 	nop
ffffffff80102980:	40897000 	mtc0	$t1,$14
ffffffff80102984:	00000040 	sll	$zero,$zero,0x1
ffffffff80102988:	00000040 	sll	$zero,$zero,0x1
ffffffff8010298c:	00000040 	sll	$zero,$zero,0x1
ffffffff80102990:	00000040 	sll	$zero,$zero,0x1
ffffffff80102994:	10000015 	b	ffffffff801029ec <after_eret64+0x18>
ffffffff80102998:	00000000 	nop
ffffffff8010299c:	40297000 	0x40297000
ffffffff801029a0:	00000040 	sll	$zero,$zero,0x1
ffffffff801029a4:	00000040 	sll	$zero,$zero,0x1
ffffffff801029a8:	00000040 	sll	$zero,$zero,0x1
ffffffff801029ac:	00000040 	sll	$zero,$zero,0x1
ffffffff801029b0:	3c0a8010 	lui	$t2,0x8010
ffffffff801029b4:	254a29d4 	addiu	$t2,$t2,10708
ffffffff801029b8:	00000000 	nop
ffffffff801029bc:	40aa7000 	0x40aa7000
ffffffff801029c0:	00000040 	sll	$zero,$zero,0x1
ffffffff801029c4:	00000040 	sll	$zero,$zero,0x1
ffffffff801029c8:	00000040 	sll	$zero,$zero,0x1
ffffffff801029cc:	00000040 	sll	$zero,$zero,0x1
ffffffff801029d0:	42000018 	eret

ffffffff801029d4 <after_eret64>:
ffffffff801029d4:	00000000 	nop
ffffffff801029d8:	40a97000 	0x40a97000
ffffffff801029dc:	00000040 	sll	$zero,$zero,0x1
ffffffff801029e0:	00000040 	sll	$zero,$zero,0x1
ffffffff801029e4:	00000040 	sll	$zero,$zero,0x1
ffffffff801029e8:	00000040 	sll	$zero,$zero,0x1
ffffffff801029ec:	00000000 	nop
ffffffff801029f0:	40886000 	mtc0	$t0,$12
ffffffff801029f4:	00000040 	sll	$zero,$zero,0x1
ffffffff801029f8:	00000040 	sll	$zero,$zero,0x1
ffffffff801029fc:	00000040 	sll	$zero,$zero,0x1
ffffffff80102a00:	00000040 	sll	$zero,$zero,0x1
ffffffff80102a04:	03e00008 	jr	$ra
ffffffff80102a08:	00000000 	nop

ffffffff80102a0c <DCACHE_vFlushAddr>:
ffffffff80102a0c:	40098000 	mfc0	$t1,$16
ffffffff80102a10:	00000040 	sll	$zero,$zero,0x1
ffffffff80102a14:	00000040 	sll	$zero,$zero,0x1
ffffffff80102a18:	00000040 	sll	$zero,$zero,0x1
ffffffff80102a1c:	00000040 	sll	$zero,$zero,0x1
ffffffff80102a20:	31290007 	andi	$t1,$t1,0x7
ffffffff80102a24:	39290002 	xori	$t1,$t1,0x2
ffffffff80102a28:	1120000f 	beqz	$t1,ffffffff80102a68 <DCACHE_vFlushAddr+0x5c>
ffffffff80102a2c:	00000000 	nop
ffffffff80102a30:	3c098011 	lui	$t1,0x8011
ffffffff80102a34:	25298980 	addiu	$t1,$t1,-30336
ffffffff80102a38:	81290000 	lb	$t1,0($t1)
ffffffff80102a3c:	11200009 	beqz	$t1,ffffffff80102a64 <DCACHE_vFlushAddr+0x58>
ffffffff80102a40:	00000000 	nop
ffffffff80102a44:	bc970000 	cache	0x17,0($a0)
ffffffff80102a48:	0000000f 	sync
	...
ffffffff80102a5c:	10000002 	b	ffffffff80102a68 <DCACHE_vFlushAddr+0x5c>
ffffffff80102a60:	00000000 	nop
ffffffff80102a64:	bc950000 	cache	0x15,0($a0)
ffffffff80102a68:	0000000f 	sync
ffffffff80102a6c:	03e00008 	jr	$ra
ffffffff80102a70:	80800000 	lb	$zero,0($a0)
	...

ffffffff80102a80 <memcpy>:
ffffffff80102a80:	28c10008 	slti	$at,$a2,8
ffffffff80102a84:	1420002e 	bnez	$at,ffffffff80102b40 <last8>
ffffffff80102a88:	00801025 	move	$v0,$a0
ffffffff80102a8c:	00a45026 	xor	$t2,$a1,$a0
ffffffff80102a90:	314a0003 	andi	$t2,$t2,0x3
ffffffff80102a94:	15400033 	bnez	$t2,ffffffff80102b64 <shift>
ffffffff80102a98:	00051823 	negu	$v1,$a1
ffffffff80102a9c:	30630003 	andi	$v1,$v1,0x3
ffffffff80102aa0:	10600005 	beqz	$v1,ffffffff80102ab8 <chk8w>
ffffffff80102aa4:	00c33023 	subu	$a2,$a2,$v1
ffffffff80102aa8:	88aa0000 	lwl	$t2,0($a1)
ffffffff80102aac:	00a32821 	addu	$a1,$a1,$v1
ffffffff80102ab0:	a88a0000 	swl	$t2,0($a0)
ffffffff80102ab4:	00832021 	addu	$a0,$a0,$v1

ffffffff80102ab8 <chk8w>:
ffffffff80102ab8:	30ca001f 	andi	$t2,$a2,0x1f
ffffffff80102abc:	10ca0016 	beq	$a2,$t2,ffffffff80102b18 <chk1w>
ffffffff80102ac0:	00ca3823 	subu	$a3,$a2,$t2
ffffffff80102ac4:	00e53821 	addu	$a3,$a3,$a1

ffffffff80102ac8 <loop8w>:
ffffffff80102ac8:	8caf0000 	lw	$t7,0($a1)
ffffffff80102acc:	8ca30004 	lw	$v1,4($a1)
ffffffff80102ad0:	8ca80008 	lw	$t0,8($a1)
ffffffff80102ad4:	8ca9000c 	lw	$t1,12($a1)
ffffffff80102ad8:	8cab0010 	lw	$t3,16($a1)
ffffffff80102adc:	8cac0014 	lw	$t4,20($a1)
ffffffff80102ae0:	8cad0018 	lw	$t5,24($a1)
ffffffff80102ae4:	8cae001c 	lw	$t6,28($a1)
ffffffff80102ae8:	ac8f0000 	sw	$t7,0($a0)
ffffffff80102aec:	ac830004 	sw	$v1,4($a0)
ffffffff80102af0:	ac880008 	sw	$t0,8($a0)
ffffffff80102af4:	ac89000c 	sw	$t1,12($a0)
ffffffff80102af8:	ac8b0010 	sw	$t3,16($a0)
ffffffff80102afc:	24a50020 	addiu	$a1,$a1,32
ffffffff80102b00:	ac8c0014 	sw	$t4,20($a0)
ffffffff80102b04:	ac8d0018 	sw	$t5,24($a0)
ffffffff80102b08:	24840020 	addiu	$a0,$a0,32
ffffffff80102b0c:	14a7ffee 	bne	$a1,$a3,ffffffff80102ac8 <loop8w>
ffffffff80102b10:	ac8efffc 	sw	$t6,-4($a0)
ffffffff80102b14:	01403025 	move	$a2,$t2

ffffffff80102b18 <chk1w>:
ffffffff80102b18:	30ca0003 	andi	$t2,$a2,0x3
ffffffff80102b1c:	10ca0008 	beq	$a2,$t2,ffffffff80102b40 <last8>
ffffffff80102b20:	00ca3823 	subu	$a3,$a2,$t2
ffffffff80102b24:	00e53821 	addu	$a3,$a3,$a1

ffffffff80102b28 <loop1w>:
ffffffff80102b28:	8cab0000 	lw	$t3,0($a1)
ffffffff80102b2c:	24a50004 	addiu	$a1,$a1,4
ffffffff80102b30:	24840004 	addiu	$a0,$a0,4
ffffffff80102b34:	14a7fffc 	bne	$a1,$a3,ffffffff80102b28 <loop1w>
ffffffff80102b38:	ac8bfffc 	sw	$t3,-4($a0)
ffffffff80102b3c:	01403025 	move	$a2,$t2

ffffffff80102b40 <last8>:
ffffffff80102b40:	18c00006 	blez	$a2,ffffffff80102b5c <last8e>
ffffffff80102b44:	00c53821 	addu	$a3,$a2,$a1

ffffffff80102b48 <last8l>:
ffffffff80102b48:	80aa0000 	lb	$t2,0($a1)
ffffffff80102b4c:	24a50001 	addiu	$a1,$a1,1
ffffffff80102b50:	24840001 	addiu	$a0,$a0,1
ffffffff80102b54:	14a7fffc 	bne	$a1,$a3,ffffffff80102b48 <last8l>
ffffffff80102b58:	a08affff 	sb	$t2,-1($a0)

ffffffff80102b5c <last8e>:
ffffffff80102b5c:	03e00008 	jr	$ra
ffffffff80102b60:	00000000 	nop

ffffffff80102b64 <shift>:
ffffffff80102b64:	00043823 	negu	$a3,$a0
ffffffff80102b68:	30e70003 	andi	$a3,$a3,0x3
ffffffff80102b6c:	10e00006 	beqz	$a3,ffffffff80102b88 <shift1>
ffffffff80102b70:	00c73023 	subu	$a2,$a2,$a3
ffffffff80102b74:	88aa0000 	lwl	$t2,0($a1)
ffffffff80102b78:	98aa0003 	lwr	$t2,3($a1)
ffffffff80102b7c:	00a72821 	addu	$a1,$a1,$a3
ffffffff80102b80:	a88a0000 	swl	$t2,0($a0)
ffffffff80102b84:	00872021 	addu	$a0,$a0,$a3

ffffffff80102b88 <shift1>:
ffffffff80102b88:	30ca0003 	andi	$t2,$a2,0x3
ffffffff80102b8c:	00ca3823 	subu	$a3,$a2,$t2
ffffffff80102b90:	00e53821 	addu	$a3,$a3,$a1

ffffffff80102b94 <shifth>:
ffffffff80102b94:	88ab0000 	lwl	$t3,0($a1)
ffffffff80102b98:	98ab0003 	lwr	$t3,3($a1)
ffffffff80102b9c:	24a50004 	addiu	$a1,$a1,4
ffffffff80102ba0:	24840004 	addiu	$a0,$a0,4
ffffffff80102ba4:	14a7fffb 	bne	$a1,$a3,ffffffff80102b94 <shifth>
ffffffff80102ba8:	ac8bfffc 	sw	$t3,-4($a0)
ffffffff80102bac:	1000ffe4 	b	ffffffff80102b40 <last8>
ffffffff80102bb0:	01403025 	move	$a2,$t2

ffffffff80102bb4 <memset>:
ffffffff80102bb4:	30a500ff 	andi	$a1,$a1,0xff
ffffffff80102bb8:	28c10008 	slti	$at,$a2,8
ffffffff80102bbc:	1420ffe0 	bnez	$at,ffffffff80102b40 <last8>
ffffffff80102bc0:	00801025 	move	$v0,$a0
ffffffff80102bc4:	10a00005 	beqz	$a1,ffffffff80102bdc <uneven>
ffffffff80102bc8:	00041823 	negu	$v1,$a0
ffffffff80102bcc:	00054200 	sll	$t0,$a1,0x8
ffffffff80102bd0:	00a82825 	or	$a1,$a1,$t0
ffffffff80102bd4:	00054400 	sll	$t0,$a1,0x10
ffffffff80102bd8:	00a82825 	or	$a1,$a1,$t0

ffffffff80102bdc <uneven>:
ffffffff80102bdc:	30630003 	andi	$v1,$v1,0x3
ffffffff80102be0:	10600003 	beqz	$v1,ffffffff80102bf0 <chkw>
ffffffff80102be4:	00c33023 	subu	$a2,$a2,$v1
ffffffff80102be8:	a8850000 	swl	$a1,0($a0)
ffffffff80102bec:	00832021 	addu	$a0,$a0,$v1

ffffffff80102bf0 <chkw>:
ffffffff80102bf0:	30c80007 	andi	$t0,$a2,0x7
ffffffff80102bf4:	10c80007 	beq	$a2,$t0,ffffffff80102c14 <chkl>
ffffffff80102bf8:	00c83823 	subu	$a3,$a2,$t0
ffffffff80102bfc:	00e43821 	addu	$a3,$a3,$a0

ffffffff80102c00 <loopw>:
ffffffff80102c00:	24840008 	addiu	$a0,$a0,8
ffffffff80102c04:	ac85fff8 	sw	$a1,-8($a0)
ffffffff80102c08:	1487fffd 	bne	$a0,$a3,ffffffff80102c00 <loopw>
ffffffff80102c0c:	ac85fffc 	sw	$a1,-4($a0)
ffffffff80102c10:	01003025 	move	$a2,$t0

ffffffff80102c14 <chkl>:
ffffffff80102c14:	30c80004 	andi	$t0,$a2,0x4
ffffffff80102c18:	11000003 	beqz	$t0,ffffffff80102c28 <end8>
ffffffff80102c1c:	00c83023 	subu	$a2,$a2,$t0
ffffffff80102c20:	ac850000 	sw	$a1,0($a0)
ffffffff80102c24:	24840004 	addiu	$a0,$a0,4

ffffffff80102c28 <end8>:
ffffffff80102c28:	18c00004 	blez	$a2,ffffffff80102c3c <end8e>
ffffffff80102c2c:	00c43821 	addu	$a3,$a2,$a0

ffffffff80102c30 <end8l>:
ffffffff80102c30:	24840001 	addiu	$a0,$a0,1
ffffffff80102c34:	1487fffe 	bne	$a0,$a3,ffffffff80102c30 <end8l>
ffffffff80102c38:	a085ffff 	sb	$a1,-1($a0)

ffffffff80102c3c <end8e>:
ffffffff80102c3c:	03e00008 	jr	$ra
	...

ffffffff80102c50 <excIntHandle>:
ffffffff80102c50:	03e00008 	jr	$ra
ffffffff80102c54:	00000000 	nop

ffffffff80102c58 <excExcHandle>:
ffffffff80102c58:	03e00008 	jr	$ra
ffffffff80102c5c:	00000000 	nop

ffffffff80102c60 <excVecInit>:
ffffffff80102c60:	3c068011 	lui	$a2,0x8011
ffffffff80102c64:	8cc692b0 	lw	$a2,-27984($a2)
ffffffff80102c68:	3c048000 	lui	$a0,0x8000
ffffffff80102c6c:	27bdffe8 	addiu	$sp,$sp,-24
ffffffff80102c70:	3c058010 	lui	$a1,0x8010
ffffffff80102c74:	24a57430 	addiu	$a1,$a1,29744
ffffffff80102c78:	afbf0010 	sw	$ra,16($sp)
ffffffff80102c7c:	0c040aa0 	jal	ffffffff80102a80 <memcpy>
ffffffff80102c80:	34840180 	ori	$a0,$a0,0x180
ffffffff80102c84:	3c058011 	lui	$a1,0x8011
ffffffff80102c88:	8ca592b0 	lw	$a1,-27984($a1)
ffffffff80102c8c:	3c048000 	lui	$a0,0x8000
ffffffff80102c90:	0c040a08 	jal	ffffffff80102820 <ICACHE_vInvalidateAddr>
ffffffff80102c94:	34840180 	ori	$a0,$a0,0x180
ffffffff80102c98:	0c041daa 	jal	ffffffff801076a8 <intSRGet>
ffffffff80102c9c:	00000000 	nop
ffffffff80102ca0:	3c04ffbf 	lui	$a0,0xffbf
ffffffff80102ca4:	3484ffff 	ori	$a0,$a0,0xffff
ffffffff80102ca8:	0c041db0 	jal	ffffffff801076c0 <intSRSet>
ffffffff80102cac:	00442024 	and	$a0,$v0,$a0
ffffffff80102cb0:	8fbf0010 	lw	$ra,16($sp)
ffffffff80102cb4:	00001025 	move	$v0,$zero
ffffffff80102cb8:	03e00008 	jr	$ra
ffffffff80102cbc:	27bd0018 	addiu	$sp,$sp,24

ffffffff80102cc0 <intConnect>:
ffffffff80102cc0:	27bdffe8 	addiu	$sp,$sp,-24
ffffffff80102cc4:	afb00010 	sw	$s0,16($sp)
ffffffff80102cc8:	00808025 	move	$s0,$a0
ffffffff80102ccc:	00a02025 	move	$a0,$a1
ffffffff80102cd0:	afbf0014 	sw	$ra,20($sp)
ffffffff80102cd4:	0c040b43 	jal	ffffffff80102d0c <intHandleCreate>
ffffffff80102cd8:	00c02825 	move	$a1,$a2
ffffffff80102cdc:	00401825 	move	$v1,$v0
ffffffff80102ce0:	02002025 	move	$a0,$s0
ffffffff80102ce4:	00602825 	move	$a1,$v1
ffffffff80102ce8:	10600004 	beqz	$v1,ffffffff80102cfc <intConnect+0x3c>
ffffffff80102cec:	24020001 	li	$v0,1
ffffffff80102cf0:	0c040b80 	jal	ffffffff80102e00 <intVecSet>
ffffffff80102cf4:	00000000 	nop
ffffffff80102cf8:	00001025 	move	$v0,$zero
ffffffff80102cfc:	8fbf0014 	lw	$ra,20($sp)
ffffffff80102d00:	8fb00010 	lw	$s0,16($sp)
ffffffff80102d04:	03e00008 	jr	$ra
ffffffff80102d08:	27bd0018 	addiu	$sp,$sp,24

ffffffff80102d0c <intHandleCreate>:
ffffffff80102d0c:	27bdffe0 	addiu	$sp,$sp,-32
ffffffff80102d10:	afb20018 	sw	$s2,24($sp)
ffffffff80102d14:	00809025 	move	$s2,$a0
ffffffff80102d18:	3c048011 	lui	$a0,0x8011
ffffffff80102d1c:	8c849298 	lw	$a0,-28008($a0)
ffffffff80102d20:	afb10014 	sw	$s1,20($sp)
ffffffff80102d24:	00a08825 	move	$s1,$a1
ffffffff80102d28:	afb00010 	sw	$s0,16($sp)
ffffffff80102d2c:	afbf001c 	sw	$ra,28($sp)
ffffffff80102d30:	0c041bf2 	jal	ffffffff80106fc8 <memPartAlloc>
ffffffff80102d34:	24050014 	li	$a1,20
ffffffff80102d38:	00408025 	move	$s0,$v0
ffffffff80102d3c:	02002025 	move	$a0,$s0
ffffffff80102d40:	3c058011 	lui	$a1,0x8011
ffffffff80102d44:	24a59054 	addiu	$a1,$a1,-28588
ffffffff80102d48:	12000016 	beqz	$s0,ffffffff80102da4 <intHandleCreate+0x98>
ffffffff80102d4c:	24060014 	li	$a2,20
ffffffff80102d50:	0c040aa0 	jal	ffffffff80102a80 <memcpy>
ffffffff80102d54:	00000000 	nop
ffffffff80102d58:	8e040000 	lw	$a0,0($s0)
ffffffff80102d5c:	8e050004 	lw	$a1,4($s0)
ffffffff80102d60:	8e060008 	lw	$a2,8($s0)
ffffffff80102d64:	8e070010 	lw	$a3,16($s0)
ffffffff80102d68:	3248ffff 	andi	$t0,$s2,0xffff
ffffffff80102d6c:	3229ffff 	andi	$t1,$s1,0xffff
ffffffff80102d70:	00121402 	srl	$v0,$s2,0x10
ffffffff80102d74:	00111c02 	srl	$v1,$s1,0x10
ffffffff80102d78:	00822025 	or	$a0,$a0,$v0
ffffffff80102d7c:	00a32825 	or	$a1,$a1,$v1
ffffffff80102d80:	00c83025 	or	$a2,$a2,$t0
ffffffff80102d84:	00e93825 	or	$a3,$a3,$t1
ffffffff80102d88:	ae040000 	sw	$a0,0($s0)
ffffffff80102d8c:	ae050004 	sw	$a1,4($s0)
ffffffff80102d90:	ae060008 	sw	$a2,8($s0)
ffffffff80102d94:	ae070010 	sw	$a3,16($s0)
ffffffff80102d98:	02002025 	move	$a0,$s0
ffffffff80102d9c:	0c040a08 	jal	ffffffff80102820 <ICACHE_vInvalidateAddr>
ffffffff80102da0:	24050014 	li	$a1,20
ffffffff80102da4:	02001025 	move	$v0,$s0
ffffffff80102da8:	8fbf001c 	lw	$ra,28($sp)
ffffffff80102dac:	8fb20018 	lw	$s2,24($sp)
ffffffff80102db0:	8fb10014 	lw	$s1,20($sp)
ffffffff80102db4:	8fb00010 	lw	$s0,16($sp)
ffffffff80102db8:	03e00008 	jr	$ra
ffffffff80102dbc:	27bd0020 	addiu	$sp,$sp,32

ffffffff80102dc0 <intVecBaseSet>:
ffffffff80102dc0:	03e00008 	jr	$ra
ffffffff80102dc4:	00000000 	nop

ffffffff80102dc8 <intVecBaseGet>:
ffffffff80102dc8:	3c028011 	lui	$v0,0x8011
ffffffff80102dcc:	03e00008 	jr	$ra
ffffffff80102dd0:	24428c54 	addiu	$v0,$v0,-29612

ffffffff80102dd4 <intVecGet>:
ffffffff80102dd4:	27bdffe8 	addiu	$sp,$sp,-24
ffffffff80102dd8:	afbf0014 	sw	$ra,20($sp)
ffffffff80102ddc:	afb00010 	sw	$s0,16($sp)
ffffffff80102de0:	0c040b72 	jal	ffffffff80102dc8 <intVecBaseGet>
ffffffff80102de4:	00808025 	move	$s0,$a0
ffffffff80102de8:	02028021 	addu	$s0,$s0,$v0
ffffffff80102dec:	8e020000 	lw	$v0,0($s0)
ffffffff80102df0:	8fbf0014 	lw	$ra,20($sp)
ffffffff80102df4:	8fb00010 	lw	$s0,16($sp)
ffffffff80102df8:	03e00008 	jr	$ra
ffffffff80102dfc:	27bd0018 	addiu	$sp,$sp,24

ffffffff80102e00 <intVecSet>:
ffffffff80102e00:	27bdffe0 	addiu	$sp,$sp,-32
ffffffff80102e04:	afbf0018 	sw	$ra,24($sp)
ffffffff80102e08:	afb10014 	sw	$s1,20($sp)
ffffffff80102e0c:	afb00010 	sw	$s0,16($sp)
ffffffff80102e10:	00a08825 	move	$s1,$a1
ffffffff80102e14:	0c040b72 	jal	ffffffff80102dc8 <intVecBaseGet>
ffffffff80102e18:	00808025 	move	$s0,$a0
ffffffff80102e1c:	02028021 	addu	$s0,$s0,$v0
ffffffff80102e20:	ae110000 	sw	$s1,0($s0)
ffffffff80102e24:	8fbf0018 	lw	$ra,24($sp)
ffffffff80102e28:	8fb10014 	lw	$s1,20($sp)
ffffffff80102e2c:	8fb00010 	lw	$s0,16($sp)
ffffffff80102e30:	03e00008 	jr	$ra
ffffffff80102e34:	27bd0020 	addiu	$sp,$sp,32

ffffffff80102e38 <intRegsLock>:
ffffffff80102e38:	8c820000 	lw	$v0,0($a0)
ffffffff80102e3c:	2403fffe 	li	$v1,-2
ffffffff80102e40:	00431824 	and	$v1,$v0,$v1
ffffffff80102e44:	03e00008 	jr	$ra
ffffffff80102e48:	ac830000 	sw	$v1,0($a0)

ffffffff80102e4c <intRegsUnlock>:
ffffffff80102e4c:	03e00008 	jr	$ra
	...

ffffffff80102e60 <kernelPreInit>:
ffffffff80102e60:	3c058011 	lui	$a1,0x8011
ffffffff80102e64:	8ca591f8 	lw	$a1,-28168($a1)
ffffffff80102e68:	27bdffd0 	addiu	$sp,$sp,-48
ffffffff80102e6c:	afb20028 	sw	$s2,40($sp)
ffffffff80102e70:	afb10024 	sw	$s1,36($sp)
ffffffff80102e74:	afb00020 	sw	$s0,32($sp)
ffffffff80102e78:	24110003 	li	$s1,3
ffffffff80102e7c:	24120004 	li	$s2,4
ffffffff80102e80:	24100005 	li	$s0,5
ffffffff80102e84:	3c048011 	lui	$a0,0x8011
ffffffff80102e88:	24849070 	addiu	$a0,$a0,-28560
ffffffff80102e8c:	24060001 	li	$a2,1
ffffffff80102e90:	24070002 	li	$a3,2
ffffffff80102e94:	afbf002c 	sw	$ra,44($sp)
ffffffff80102e98:	afb10010 	sw	$s1,16($sp)
ffffffff80102e9c:	afb20014 	sw	$s2,20($sp)
ffffffff80102ea0:	0c041a34 	jal	ffffffff801068d0 <qInit>
ffffffff80102ea4:	afb00018 	sw	$s0,24($sp)
ffffffff80102ea8:	3c058011 	lui	$a1,0x8011
ffffffff80102eac:	8ca59278 	lw	$a1,-28040($a1)
ffffffff80102eb0:	3c048011 	lui	$a0,0x8011
ffffffff80102eb4:	24849430 	addiu	$a0,$a0,-27600
ffffffff80102eb8:	24060001 	li	$a2,1
ffffffff80102ebc:	24070002 	li	$a3,2
ffffffff80102ec0:	afb10010 	sw	$s1,16($sp)
ffffffff80102ec4:	afb20014 	sw	$s2,20($sp)
ffffffff80102ec8:	0c041a34 	jal	ffffffff801068d0 <qInit>
ffffffff80102ecc:	afb00018 	sw	$s0,24($sp)
ffffffff80102ed0:	3c058011 	lui	$a1,0x8011
ffffffff80102ed4:	8ca59278 	lw	$a1,-28040($a1)
ffffffff80102ed8:	3c048011 	lui	$a0,0x8011
ffffffff80102edc:	24849420 	addiu	$a0,$a0,-27616
ffffffff80102ee0:	24060001 	li	$a2,1
ffffffff80102ee4:	24070002 	li	$a3,2
ffffffff80102ee8:	afb10010 	sw	$s1,16($sp)
ffffffff80102eec:	afb20014 	sw	$s2,20($sp)
ffffffff80102ef0:	0c041a34 	jal	ffffffff801068d0 <qInit>
ffffffff80102ef4:	afb00018 	sw	$s0,24($sp)
ffffffff80102ef8:	8fbf002c 	lw	$ra,44($sp)
ffffffff80102efc:	8fb20028 	lw	$s2,40($sp)
ffffffff80102f00:	8fb10024 	lw	$s1,36($sp)
ffffffff80102f04:	8fb00020 	lw	$s0,32($sp)
ffffffff80102f08:	08040ef8 	j	ffffffff80103be0 <workQInit>
ffffffff80102f0c:	27bd0030 	addiu	$sp,$sp,48

ffffffff80102f10 <kernelInit>:
ffffffff80102f10:	27bdfe58 	addiu	$sp,$sp,-424
ffffffff80102f14:	8fa801b8 	lw	$t0,440($sp)
ffffffff80102f18:	2403fff0 	li	$v1,-16
ffffffff80102f1c:	afb10194 	sw	$s1,404($sp)
ffffffff80102f20:	2502000f 	addiu	$v0,$t0,15
ffffffff80102f24:	24d1000f 	addiu	$s1,$a2,15
ffffffff80102f28:	02238824 	and	$s1,$s1,$v1
ffffffff80102f2c:	00434024 	and	$t0,$v0,$v1
ffffffff80102f30:	24a2000f 	addiu	$v0,$a1,15
ffffffff80102f34:	afb401a0 	sw	$s4,416($sp)
ffffffff80102f38:	00431024 	and	$v0,$v0,$v1
ffffffff80102f3c:	0080a025 	move	$s4,$a0
ffffffff80102f40:	01003025 	move	$a2,$t0
ffffffff80102f44:	02202025 	move	$a0,$s1
ffffffff80102f48:	02284021 	addu	$t0,$s1,$t0
ffffffff80102f4c:	00002825 	move	$a1,$zero
ffffffff80102f50:	afbf01a4 	sw	$ra,420($sp)
ffffffff80102f54:	afb3019c 	sw	$s3,412($sp)
ffffffff80102f58:	afb20198 	sw	$s2,408($sp)
ffffffff80102f5c:	afb00190 	sw	$s0,400($sp)
ffffffff80102f60:	3c018011 	lui	$at,0x8011
ffffffff80102f64:	ac289084 	sw	$t0,-28540($at)
ffffffff80102f68:	3c018011 	lui	$at,0x8011
ffffffff80102f6c:	ac319088 	sw	$s1,-28536($at)
ffffffff80102f70:	3c018011 	lui	$at,0x8011
ffffffff80102f74:	ac229080 	sw	$v0,-28544($at)
ffffffff80102f78:	3c018011 	lui	$at,0x8011
ffffffff80102f7c:	ac2091b0 	sw	$zero,-28240($at)
ffffffff80102f80:	0c040aed 	jal	ffffffff80102bb4 <memset>
ffffffff80102f84:	00e38024 	and	$s0,$a3,$v1
ffffffff80102f88:	3c128011 	lui	$s2,0x8011
ffffffff80102f8c:	8e529080 	lw	$s2,-28544($s2)
ffffffff80102f90:	27a40030 	addiu	$a0,$sp,48
ffffffff80102f94:	00002825 	move	$a1,$zero
ffffffff80102f98:	02128023 	subu	$s0,$s0,$s2
ffffffff80102f9c:	24060160 	li	$a2,352
ffffffff80102fa0:	3c018011 	lui	$at,0x8011
ffffffff80102fa4:	ac30908c 	sw	$s0,-28532($at)
ffffffff80102fa8:	3c018011 	lui	$at,0x8011
ffffffff80102fac:	ac20919c 	sw	$zero,-28260($at)
ffffffff80102fb0:	0c040aed 	jal	ffffffff80102bb4 <memset>
ffffffff80102fb4:	2652fe70 	addiu	$s2,$s2,-400
ffffffff80102fb8:	3c038011 	lui	$v1,0x8011
ffffffff80102fbc:	8c63908c 	lw	$v1,-28532($v1)
ffffffff80102fc0:	02129821 	addu	$s3,$s0,$s2
ffffffff80102fc4:	26730020 	addiu	$s3,$s3,32
ffffffff80102fc8:	00711823 	subu	$v1,$v1,$s1
ffffffff80102fcc:	24090003 	li	$t1,3
ffffffff80102fd0:	24080005 	li	$t0,5
ffffffff80102fd4:	02602025 	move	$a0,$s3
ffffffff80102fd8:	3c058011 	lui	$a1,0x8011
ffffffff80102fdc:	24a58970 	addiu	$a1,$a1,-30352
ffffffff80102fe0:	00003025 	move	$a2,$zero
ffffffff80102fe4:	24070006 	li	$a3,6
ffffffff80102fe8:	24020004 	li	$v0,4
ffffffff80102fec:	afb20014 	sw	$s2,20($sp)
ffffffff80102ff0:	afb40018 	sw	$s4,24($sp)
ffffffff80102ff4:	afb1001c 	sw	$s1,28($sp)
ffffffff80102ff8:	afb30010 	sw	$s3,16($sp)
ffffffff80102ffc:	afa30020 	sw	$v1,32($sp)
ffffffff80103000:	afa90024 	sw	$t1,36($sp)
ffffffff80103004:	afa20028 	sw	$v0,40($sp)
ffffffff80103008:	0c041609 	jal	ffffffff80105824 <taskInit>
ffffffff8010300c:	afa8002c 	sw	$t0,44($sp)
ffffffff80103010:	27a20030 	addiu	$v0,$sp,48
ffffffff80103014:	3c018011 	lui	$at,0x8011
ffffffff80103018:	ac339090 	sw	$s3,-28528($at)
ffffffff8010301c:	3c018011 	lui	$at,0x8011
ffffffff80103020:	ac22919c 	sw	$v0,-28260($at)
ffffffff80103024:	0c04167d 	jal	ffffffff801059f4 <taskActivate>
ffffffff80103028:	02602025 	move	$a0,$s3
ffffffff8010302c:	8fbf01a4 	lw	$ra,420($sp)
ffffffff80103030:	8fb401a0 	lw	$s4,416($sp)
ffffffff80103034:	8fb3019c 	lw	$s3,412($sp)
ffffffff80103038:	8fb20198 	lw	$s2,408($sp)
ffffffff8010303c:	8fb10194 	lw	$s1,404($sp)
ffffffff80103040:	8fb00190 	lw	$s0,400($sp)
ffffffff80103044:	03e00008 	jr	$ra
ffffffff80103048:	27bd01a8 	addiu	$sp,$sp,424

ffffffff8010304c <kernelSpawn>:
ffffffff8010304c:	3c038011 	lui	$v1,0x8011
ffffffff80103050:	8c63907c 	lw	$v1,-28548($v1)
ffffffff80103054:	27bdffe8 	addiu	$sp,$sp,-24
ffffffff80103058:	afbf0010 	sw	$ra,16($sp)
ffffffff8010305c:	8c620010 	lw	$v0,16($v1)
ffffffff80103060:	24840020 	addiu	$a0,$a0,32
ffffffff80103064:	00802825 	move	$a1,$a0
ffffffff80103068:	3c048011 	lui	$a0,0x8011
ffffffff8010306c:	24849070 	addiu	$a0,$a0,-28560
ffffffff80103070:	0040f809 	jalr	$v0
ffffffff80103074:	00003025 	move	$a2,$zero
ffffffff80103078:	8fbf0010 	lw	$ra,16($sp)
ffffffff8010307c:	03e00008 	jr	$ra
ffffffff80103080:	27bd0018 	addiu	$sp,$sp,24

ffffffff80103084 <kernelReadyQPut>:
ffffffff80103084:	27bdffe8 	addiu	$sp,$sp,-24
ffffffff80103088:	afb00010 	sw	$s0,16($sp)
ffffffff8010308c:	afbf0014 	sw	$ra,20($sp)
ffffffff80103090:	00808025 	move	$s0,$a0
ffffffff80103094:	8e02003c 	lw	$v0,60($s0)
ffffffff80103098:	2403fffe 	li	$v1,-2
ffffffff8010309c:	00002825 	move	$a1,$zero
ffffffff801030a0:	00431024 	and	$v0,$v0,$v1
ffffffff801030a4:	0c0417b2 	jal	ffffffff80105ec8 <taskRtnValueSet>
ffffffff801030a8:	ae02003c 	sw	$v0,60($s0)
ffffffff801030ac:	8e02003c 	lw	$v0,60($s0)
ffffffff801030b0:	3c048011 	lui	$a0,0x8011
ffffffff801030b4:	24849420 	addiu	$a0,$a0,-27616
ffffffff801030b8:	30430004 	andi	$v1,$v0,0x4
ffffffff801030bc:	10600008 	beqz	$v1,ffffffff801030e0 <kernelReadyQPut+0x5c>
ffffffff801030c0:	26050010 	addiu	$a1,$s0,16
ffffffff801030c4:	ae03003c 	sw	$v1,60($s0)
ffffffff801030c8:	3c038011 	lui	$v1,0x8011
ffffffff801030cc:	8c63942c 	lw	$v1,-27604($v1)
ffffffff801030d0:	8c620018 	lw	$v0,24($v1)
ffffffff801030d4:	0040f809 	jalr	$v0
ffffffff801030d8:	00000000 	nop
ffffffff801030dc:	8e02003c 	lw	$v0,60($s0)
ffffffff801030e0:	1440000a 	bnez	$v0,ffffffff8010310c <kernelReadyQPut+0x88>
ffffffff801030e4:	8fbf0014 	lw	$ra,20($sp)
ffffffff801030e8:	3c038011 	lui	$v1,0x8011
ffffffff801030ec:	8c63943c 	lw	$v1,-27588($v1)
ffffffff801030f0:	02002825 	move	$a1,$s0
ffffffff801030f4:	8c620010 	lw	$v0,16($v1)
ffffffff801030f8:	3c048011 	lui	$a0,0x8011
ffffffff801030fc:	24849430 	addiu	$a0,$a0,-27600
ffffffff80103100:	0040f809 	jalr	$v0
ffffffff80103104:	8ca60040 	lw	$a2,64($a1)
ffffffff80103108:	8fbf0014 	lw	$ra,20($sp)
ffffffff8010310c:	8fb00010 	lw	$s0,16($sp)
ffffffff80103110:	03e00008 	jr	$ra
ffffffff80103114:	27bd0018 	addiu	$sp,$sp,24

ffffffff80103118 <kernelReadQRemove>:
ffffffff80103118:	3c038011 	lui	$v1,0x8011
ffffffff8010311c:	8c63943c 	lw	$v1,-27588($v1)
ffffffff80103120:	27bdffe0 	addiu	$sp,$sp,-32
ffffffff80103124:	afb10014 	sw	$s1,20($sp)
ffffffff80103128:	afb00010 	sw	$s0,16($sp)
ffffffff8010312c:	afbf0018 	sw	$ra,24($sp)
ffffffff80103130:	8c620018 	lw	$v0,24($v1)
ffffffff80103134:	00a08825 	move	$s1,$a1
ffffffff80103138:	3c058011 	lui	$a1,0x8011
ffffffff8010313c:	8ca5919c 	lw	$a1,-28260($a1)
ffffffff80103140:	00808025 	move	$s0,$a0
ffffffff80103144:	3c048011 	lui	$a0,0x8011
ffffffff80103148:	24849430 	addiu	$a0,$a0,-27600
ffffffff8010314c:	0040f809 	jalr	$v0
ffffffff80103150:	00000000 	nop
ffffffff80103154:	3c038011 	lui	$v1,0x8011
ffffffff80103158:	8c63919c 	lw	$v1,-28260($v1)
ffffffff8010315c:	2404ffff 	li	$a0,-1
ffffffff80103160:	8c62003c 	lw	$v0,60($v1)
ffffffff80103164:	ac700058 	sw	$s0,88($v1)
ffffffff80103168:	34420002 	ori	$v0,$v0,0x2
ffffffff8010316c:	12240023 	beq	$s1,$a0,ffffffff801031fc <kernelReadQRemove+0xe4>
ffffffff80103170:	ac62003c 	sw	$v0,60($v1)
ffffffff80103174:	3c048011 	lui	$a0,0x8011
ffffffff80103178:	8c8491b0 	lw	$a0,-28240($a0)
ffffffff8010317c:	00911021 	addu	$v0,$a0,$s1
ffffffff80103180:	00042827 	nor	$a1,$zero,$a0
ffffffff80103184:	0044102b 	sltu	$v0,$v0,$a0
ffffffff80103188:	1040000c 	beqz	$v0,ffffffff801031bc <kernelReadQRemove+0xa4>
ffffffff8010318c:	24a50001 	addiu	$a1,$a1,1
ffffffff80103190:	3c038011 	lui	$v1,0x8011
ffffffff80103194:	8c63942c 	lw	$v1,-27604($v1)
ffffffff80103198:	3c108011 	lui	$s0,0x8011
ffffffff8010319c:	26109420 	addiu	$s0,$s0,-27616
ffffffff801031a0:	8c62002c 	lw	$v0,44($v1)
ffffffff801031a4:	0040f809 	jalr	$v0
ffffffff801031a8:	02002025 	move	$a0,$s0
ffffffff801031ac:	3c018011 	lui	$at,0x8011
ffffffff801031b0:	ac2091b0 	sw	$zero,-28240($at)
ffffffff801031b4:	08040c71 	j	ffffffff801031c4 <kernelReadQRemove+0xac>
ffffffff801031b8:	00002025 	move	$a0,$zero
ffffffff801031bc:	3c108011 	lui	$s0,0x8011
ffffffff801031c0:	26109420 	addiu	$s0,$s0,-27616
ffffffff801031c4:	3c038011 	lui	$v1,0x8011
ffffffff801031c8:	8c63942c 	lw	$v1,-27604($v1)
ffffffff801031cc:	3c058011 	lui	$a1,0x8011
ffffffff801031d0:	8ca5919c 	lw	$a1,-28260($a1)
ffffffff801031d4:	02243021 	addu	$a2,$s1,$a0
ffffffff801031d8:	8c620010 	lw	$v0,16($v1)
ffffffff801031dc:	02002025 	move	$a0,$s0
ffffffff801031e0:	0040f809 	jalr	$v0
ffffffff801031e4:	24a50010 	addiu	$a1,$a1,16
ffffffff801031e8:	3c038011 	lui	$v1,0x8011
ffffffff801031ec:	8c63919c 	lw	$v1,-28260($v1)
ffffffff801031f0:	8c62003c 	lw	$v0,60($v1)
ffffffff801031f4:	34420004 	ori	$v0,$v0,0x4
ffffffff801031f8:	ac62003c 	sw	$v0,60($v1)
ffffffff801031fc:	8fbf0018 	lw	$ra,24($sp)
ffffffff80103200:	8fb10014 	lw	$s1,20($sp)
ffffffff80103204:	8fb00010 	lw	$s0,16($sp)
ffffffff80103208:	03e00008 	jr	$ra
ffffffff8010320c:	27bd0020 	addiu	$sp,$sp,32

ffffffff80103210 <kernelResume>:
ffffffff80103210:	27bdffe8 	addiu	$sp,$sp,-24
ffffffff80103214:	afb00010 	sw	$s0,16($sp)
ffffffff80103218:	afbf0014 	sw	$ra,20($sp)
ffffffff8010321c:	00808025 	move	$s0,$a0
ffffffff80103220:	8e03003c 	lw	$v1,60($s0)
ffffffff80103224:	24020001 	li	$v0,1
ffffffff80103228:	3c048011 	lui	$a0,0x8011
ffffffff8010322c:	24849430 	addiu	$a0,$a0,-27600
ffffffff80103230:	14620007 	bne	$v1,$v0,ffffffff80103250 <kernelResume+0x40>
ffffffff80103234:	02002825 	move	$a1,$s0
ffffffff80103238:	3c038011 	lui	$v1,0x8011
ffffffff8010323c:	8c63943c 	lw	$v1,-27588($v1)
ffffffff80103240:	8c620010 	lw	$v0,16($v1)
ffffffff80103244:	0040f809 	jalr	$v0
ffffffff80103248:	8e060040 	lw	$a2,64($s0)
ffffffff8010324c:	8e03003c 	lw	$v1,60($s0)
ffffffff80103250:	2402fffe 	li	$v0,-2
ffffffff80103254:	00621024 	and	$v0,$v1,$v0
ffffffff80103258:	ae02003c 	sw	$v0,60($s0)
ffffffff8010325c:	8fbf0014 	lw	$ra,20($sp)
ffffffff80103260:	8fb00010 	lw	$s0,16($sp)
ffffffff80103264:	03e00008 	jr	$ra
ffffffff80103268:	27bd0018 	addiu	$sp,$sp,24

ffffffff8010326c <kernelSemDelete>:
ffffffff8010326c:	27bdffe0 	addiu	$sp,$sp,-32
ffffffff80103270:	afb10014 	sw	$s1,20($sp)
ffffffff80103274:	00808825 	move	$s1,$a0
ffffffff80103278:	26240008 	addiu	$a0,$s1,8
ffffffff8010327c:	afbf0018 	sw	$ra,24($sp)
ffffffff80103280:	0c040d7b 	jal	ffffffff801035ec <kernelPendQTerminate>
ffffffff80103284:	afb00010 	sw	$s0,16($sp)
ffffffff80103288:	92230004 	lbu	$v1,4($s1)
ffffffff8010328c:	24020001 	li	$v0,1
ffffffff80103290:	14620029 	bne	$v1,$v0,ffffffff80103338 <kernelSemDelete+0xcc>
ffffffff80103294:	8fbf0018 	lw	$ra,24($sp)
ffffffff80103298:	8e300018 	lw	$s0,24($s1)
ffffffff8010329c:	52000027 	beqzl	$s0,ffffffff8010333c <kernelSemDelete+0xd0>
ffffffff801032a0:	8fb10014 	lw	$s1,20($sp)
ffffffff801032a4:	8e030030 	lw	$v1,48($s0)
ffffffff801032a8:	3c028011 	lui	$v0,0x8011
ffffffff801032ac:	8c429194 	lw	$v0,-28268($v0)
ffffffff801032b0:	54620022 	bnel	$v1,$v0,ffffffff8010333c <kernelSemDelete+0xd0>
ffffffff801032b4:	8fb10014 	lw	$s1,20($sp)
ffffffff801032b8:	92230005 	lbu	$v1,5($s1)
ffffffff801032bc:	30620008 	andi	$v0,$v1,0x8
ffffffff801032c0:	1040000d 	beqz	$v0,ffffffff801032f8 <kernelSemDelete+0x8c>
ffffffff801032c4:	30620004 	andi	$v0,$v1,0x4
ffffffff801032c8:	8e020048 	lw	$v0,72($s0)
ffffffff801032cc:	2442ffff 	addiu	$v0,$v0,-1
ffffffff801032d0:	14400007 	bnez	$v0,ffffffff801032f0 <kernelSemDelete+0x84>
ffffffff801032d4:	ae020048 	sw	$v0,72($s0)
ffffffff801032d8:	8e020040 	lw	$v0,64($s0)
ffffffff801032dc:	8e050044 	lw	$a1,68($s0)
ffffffff801032e0:	50450004 	beql	$v0,$a1,ffffffff801032f4 <kernelSemDelete+0x88>
ffffffff801032e4:	92230005 	lbu	$v1,5($s1)
ffffffff801032e8:	0c040eab 	jal	ffffffff80103aac <kernelPrioritySet>
ffffffff801032ec:	02002025 	move	$a0,$s0
ffffffff801032f0:	92230005 	lbu	$v1,5($s1)
ffffffff801032f4:	30620004 	andi	$v0,$v1,0x4
ffffffff801032f8:	1040000f 	beqz	$v0,ffffffff80103338 <kernelSemDelete+0xcc>
ffffffff801032fc:	8fbf0018 	lw	$ra,24($sp)
ffffffff80103300:	8e02005c 	lw	$v0,92($s0)
ffffffff80103304:	2442ffff 	addiu	$v0,$v0,-1
ffffffff80103308:	ae02005c 	sw	$v0,92($s0)
ffffffff8010330c:	8e03005c 	lw	$v1,92($s0)
ffffffff80103310:	14600009 	bnez	$v1,ffffffff80103338 <kernelSemDelete+0xcc>
ffffffff80103314:	8fbf0018 	lw	$ra,24($sp)
ffffffff80103318:	8e020060 	lw	$v0,96($s0)
ffffffff8010331c:	10400006 	beqz	$v0,ffffffff80103338 <kernelSemDelete+0xcc>
ffffffff80103320:	26040060 	addiu	$a0,$s0,96
ffffffff80103324:	8fbf0018 	lw	$ra,24($sp)
ffffffff80103328:	8fb10014 	lw	$s1,20($sp)
ffffffff8010332c:	8fb00010 	lw	$s0,16($sp)
ffffffff80103330:	08040cd2 	j	ffffffff80103348 <kernelPendQFlush>
ffffffff80103334:	27bd0020 	addiu	$sp,$sp,32
ffffffff80103338:	8fb10014 	lw	$s1,20($sp)
ffffffff8010333c:	8fb00010 	lw	$s0,16($sp)
ffffffff80103340:	03e00008 	jr	$ra
ffffffff80103344:	27bd0020 	addiu	$sp,$sp,32

ffffffff80103348 <kernelPendQFlush>:
ffffffff80103348:	27bdffd8 	addiu	$sp,$sp,-40
ffffffff8010334c:	afb3001c 	sw	$s3,28($sp)
ffffffff80103350:	afb20018 	sw	$s2,24($sp)
ffffffff80103354:	afb10014 	sw	$s1,20($sp)
ffffffff80103358:	2413fffd 	li	$s3,-3
ffffffff8010335c:	00808825 	move	$s1,$a0
ffffffff80103360:	2412fffb 	li	$s2,-5
ffffffff80103364:	afbf0020 	sw	$ra,32($sp)
ffffffff80103368:	08040cf8 	j	ffffffff801033e0 <kernelPendQFlush+0x98>
ffffffff8010336c:	afb00010 	sw	$s0,16($sp)
ffffffff80103370:	8e02003c 	lw	$v0,60($s0)
ffffffff80103374:	00531024 	and	$v0,$v0,$s3
ffffffff80103378:	0c0417b2 	jal	ffffffff80105ec8 <taskRtnValueSet>
ffffffff8010337c:	ae02003c 	sw	$v0,60($s0)
ffffffff80103380:	8e03003c 	lw	$v1,60($s0)
ffffffff80103384:	3c048011 	lui	$a0,0x8011
ffffffff80103388:	24849420 	addiu	$a0,$a0,-27616
ffffffff8010338c:	26050010 	addiu	$a1,$s0,16
ffffffff80103390:	30620004 	andi	$v0,$v1,0x4
ffffffff80103394:	10400008 	beqz	$v0,ffffffff801033b8 <kernelPendQFlush+0x70>
ffffffff80103398:	00723024 	and	$a2,$v1,$s2
ffffffff8010339c:	ae06003c 	sw	$a2,60($s0)
ffffffff801033a0:	3c038011 	lui	$v1,0x8011
ffffffff801033a4:	8c63942c 	lw	$v1,-27604($v1)
ffffffff801033a8:	8c620018 	lw	$v0,24($v1)
ffffffff801033ac:	0040f809 	jalr	$v0
ffffffff801033b0:	00000000 	nop
ffffffff801033b4:	8e03003c 	lw	$v1,60($s0)
ffffffff801033b8:	5460000a 	bnezl	$v1,ffffffff801033e4 <kernelPendQFlush+0x9c>
ffffffff801033bc:	8e23000c 	lw	$v1,12($s1)
ffffffff801033c0:	3c038011 	lui	$v1,0x8011
ffffffff801033c4:	8c63943c 	lw	$v1,-27588($v1)
ffffffff801033c8:	02002825 	move	$a1,$s0
ffffffff801033cc:	8c620010 	lw	$v0,16($v1)
ffffffff801033d0:	3c048011 	lui	$a0,0x8011
ffffffff801033d4:	24849430 	addiu	$a0,$a0,-27600
ffffffff801033d8:	0040f809 	jalr	$v0
ffffffff801033dc:	8ca60040 	lw	$a2,64($a1)
ffffffff801033e0:	8e23000c 	lw	$v1,12($s1)
ffffffff801033e4:	8c620014 	lw	$v0,20($v1)
ffffffff801033e8:	0040f809 	jalr	$v0
ffffffff801033ec:	02202025 	move	$a0,$s1
ffffffff801033f0:	00408025 	move	$s0,$v0
ffffffff801033f4:	02002025 	move	$a0,$s0
ffffffff801033f8:	1600ffdd 	bnez	$s0,ffffffff80103370 <kernelPendQFlush+0x28>
ffffffff801033fc:	00002825 	move	$a1,$zero
ffffffff80103400:	8fbf0020 	lw	$ra,32($sp)
ffffffff80103404:	8fb3001c 	lw	$s3,28($sp)
ffffffff80103408:	8fb20018 	lw	$s2,24($sp)
ffffffff8010340c:	8fb10014 	lw	$s1,20($sp)
ffffffff80103410:	8fb00010 	lw	$s0,16($sp)
ffffffff80103414:	03e00008 	jr	$ra
ffffffff80103418:	27bd0028 	addiu	$sp,$sp,40

ffffffff8010341c <kernelPendQGet>:
ffffffff8010341c:	27bdffe8 	addiu	$sp,$sp,-24
ffffffff80103420:	afb00010 	sw	$s0,16($sp)
ffffffff80103424:	afbf0014 	sw	$ra,20($sp)
ffffffff80103428:	8c83000c 	lw	$v1,12($a0)
ffffffff8010342c:	8c620014 	lw	$v0,20($v1)
ffffffff80103430:	0040f809 	jalr	$v0
ffffffff80103434:	00000000 	nop
ffffffff80103438:	00408025 	move	$s0,$v0
ffffffff8010343c:	8e02003c 	lw	$v0,60($s0)
ffffffff80103440:	2403fffd 	li	$v1,-3
ffffffff80103444:	02002025 	move	$a0,$s0
ffffffff80103448:	00431024 	and	$v0,$v0,$v1
ffffffff8010344c:	ae02003c 	sw	$v0,60($s0)
ffffffff80103450:	0c0417b2 	jal	ffffffff80105ec8 <taskRtnValueSet>
ffffffff80103454:	00002825 	move	$a1,$zero
ffffffff80103458:	8e06003c 	lw	$a2,60($s0)
ffffffff8010345c:	2403fffb 	li	$v1,-5
ffffffff80103460:	3c048011 	lui	$a0,0x8011
ffffffff80103464:	24849420 	addiu	$a0,$a0,-27616
ffffffff80103468:	30c20004 	andi	$v0,$a2,0x4
ffffffff8010346c:	26050010 	addiu	$a1,$s0,16
ffffffff80103470:	10400008 	beqz	$v0,ffffffff80103494 <kernelPendQGet+0x78>
ffffffff80103474:	00c31824 	and	$v1,$a2,$v1
ffffffff80103478:	ae03003c 	sw	$v1,60($s0)
ffffffff8010347c:	3c038011 	lui	$v1,0x8011
ffffffff80103480:	8c63942c 	lw	$v1,-27604($v1)
ffffffff80103484:	8c620018 	lw	$v0,24($v1)
ffffffff80103488:	0040f809 	jalr	$v0
ffffffff8010348c:	00000000 	nop
ffffffff80103490:	8e06003c 	lw	$a2,60($s0)
ffffffff80103494:	14c0000a 	bnez	$a2,ffffffff801034c0 <kernelPendQGet+0xa4>
ffffffff80103498:	8fbf0014 	lw	$ra,20($sp)
ffffffff8010349c:	3c038011 	lui	$v1,0x8011
ffffffff801034a0:	8c63943c 	lw	$v1,-27588($v1)
ffffffff801034a4:	02002825 	move	$a1,$s0
ffffffff801034a8:	8c620010 	lw	$v0,16($v1)
ffffffff801034ac:	3c048011 	lui	$a0,0x8011
ffffffff801034b0:	24849430 	addiu	$a0,$a0,-27600
ffffffff801034b4:	0040f809 	jalr	$v0
ffffffff801034b8:	8ca60040 	lw	$a2,64($a1)
ffffffff801034bc:	8fbf0014 	lw	$ra,20($sp)
ffffffff801034c0:	8fb00010 	lw	$s0,16($sp)
ffffffff801034c4:	03e00008 	jr	$ra
ffffffff801034c8:	27bd0018 	addiu	$sp,$sp,24

ffffffff801034cc <kernelPendQPut>:
ffffffff801034cc:	27bdffe0 	addiu	$sp,$sp,-32
ffffffff801034d0:	afb10014 	sw	$s1,20($sp)
ffffffff801034d4:	00a08825 	move	$s1,$a1
ffffffff801034d8:	afb00010 	sw	$s0,16($sp)
ffffffff801034dc:	afbf0018 	sw	$ra,24($sp)
ffffffff801034e0:	00808025 	move	$s0,$a0
ffffffff801034e4:	3c048011 	lui	$a0,0x8011
ffffffff801034e8:	24849430 	addiu	$a0,$a0,-27600
ffffffff801034ec:	1220003a 	beqz	$s1,ffffffff801035d8 <kernelPendQPut+0x10c>
ffffffff801034f0:	24020001 	li	$v0,1
ffffffff801034f4:	3c038011 	lui	$v1,0x8011
ffffffff801034f8:	8c63943c 	lw	$v1,-27588($v1)
ffffffff801034fc:	3c058011 	lui	$a1,0x8011
ffffffff80103500:	8ca5919c 	lw	$a1,-28260($a1)
ffffffff80103504:	8c620018 	lw	$v0,24($v1)
ffffffff80103508:	0040f809 	jalr	$v0
ffffffff8010350c:	00000000 	nop
ffffffff80103510:	3c038011 	lui	$v1,0x8011
ffffffff80103514:	8c63919c 	lw	$v1,-28260($v1)
ffffffff80103518:	02002025 	move	$a0,$s0
ffffffff8010351c:	8c62003c 	lw	$v0,60($v1)
ffffffff80103520:	ac700058 	sw	$s0,88($v1)
ffffffff80103524:	00602825 	move	$a1,$v1
ffffffff80103528:	34420002 	ori	$v0,$v0,0x2
ffffffff8010352c:	ac62003c 	sw	$v0,60($v1)
ffffffff80103530:	8e07000c 	lw	$a3,12($s0)
ffffffff80103534:	8ce20010 	lw	$v0,16($a3)
ffffffff80103538:	0040f809 	jalr	$v0
ffffffff8010353c:	8ca60040 	lw	$a2,64($a1)
ffffffff80103540:	2403ffff 	li	$v1,-1
ffffffff80103544:	12230024 	beq	$s1,$v1,ffffffff801035d8 <kernelPendQPut+0x10c>
ffffffff80103548:	00001025 	move	$v0,$zero
ffffffff8010354c:	3c048011 	lui	$a0,0x8011
ffffffff80103550:	8c8491b0 	lw	$a0,-28240($a0)
ffffffff80103554:	00911021 	addu	$v0,$a0,$s1
ffffffff80103558:	00042827 	nor	$a1,$zero,$a0
ffffffff8010355c:	0044102b 	sltu	$v0,$v0,$a0
ffffffff80103560:	1040000c 	beqz	$v0,ffffffff80103594 <kernelPendQPut+0xc8>
ffffffff80103564:	24a50001 	addiu	$a1,$a1,1
ffffffff80103568:	3c038011 	lui	$v1,0x8011
ffffffff8010356c:	8c63942c 	lw	$v1,-27604($v1)
ffffffff80103570:	3c108011 	lui	$s0,0x8011
ffffffff80103574:	26109420 	addiu	$s0,$s0,-27616
ffffffff80103578:	8c62002c 	lw	$v0,44($v1)
ffffffff8010357c:	0040f809 	jalr	$v0
ffffffff80103580:	02002025 	move	$a0,$s0
ffffffff80103584:	3c018011 	lui	$at,0x8011
ffffffff80103588:	ac2091b0 	sw	$zero,-28240($at)
ffffffff8010358c:	08040d67 	j	ffffffff8010359c <kernelPendQPut+0xd0>
ffffffff80103590:	00002025 	move	$a0,$zero
ffffffff80103594:	3c108011 	lui	$s0,0x8011
ffffffff80103598:	26109420 	addiu	$s0,$s0,-27616
ffffffff8010359c:	3c038011 	lui	$v1,0x8011
ffffffff801035a0:	8c63942c 	lw	$v1,-27604($v1)
ffffffff801035a4:	3c058011 	lui	$a1,0x8011
ffffffff801035a8:	8ca5919c 	lw	$a1,-28260($a1)
ffffffff801035ac:	02243021 	addu	$a2,$s1,$a0
ffffffff801035b0:	8c620010 	lw	$v0,16($v1)
ffffffff801035b4:	02002025 	move	$a0,$s0
ffffffff801035b8:	0040f809 	jalr	$v0
ffffffff801035bc:	24a50010 	addiu	$a1,$a1,16
ffffffff801035c0:	3c038011 	lui	$v1,0x8011
ffffffff801035c4:	8c63919c 	lw	$v1,-28260($v1)
ffffffff801035c8:	8c62003c 	lw	$v0,60($v1)
ffffffff801035cc:	34420004 	ori	$v0,$v0,0x4
ffffffff801035d0:	ac62003c 	sw	$v0,60($v1)
ffffffff801035d4:	00001025 	move	$v0,$zero
ffffffff801035d8:	8fbf0018 	lw	$ra,24($sp)
ffffffff801035dc:	8fb10014 	lw	$s1,20($sp)
ffffffff801035e0:	8fb00010 	lw	$s0,16($sp)
ffffffff801035e4:	03e00008 	jr	$ra
ffffffff801035e8:	27bd0020 	addiu	$sp,$sp,32

ffffffff801035ec <kernelPendQTerminate>:
ffffffff801035ec:	27bdffd8 	addiu	$sp,$sp,-40
ffffffff801035f0:	afb40020 	sw	$s4,32($sp)
ffffffff801035f4:	afb3001c 	sw	$s3,28($sp)
ffffffff801035f8:	afb20018 	sw	$s2,24($sp)
ffffffff801035fc:	afb10014 	sw	$s1,20($sp)
ffffffff80103600:	2414fffd 	li	$s4,-3
ffffffff80103604:	00808825 	move	$s1,$a0
ffffffff80103608:	24130001 	li	$s3,1
ffffffff8010360c:	2412fffb 	li	$s2,-5
ffffffff80103610:	afbf0024 	sw	$ra,36($sp)
ffffffff80103614:	08040da5 	j	ffffffff80103694 <kernelPendQTerminate+0xa8>
ffffffff80103618:	afb00010 	sw	$s0,16($sp)
ffffffff8010361c:	8e02003c 	lw	$v0,60($s0)
ffffffff80103620:	ae00004c 	sw	$zero,76($s0)
ffffffff80103624:	ae130080 	sw	$s3,128($s0)
ffffffff80103628:	00541024 	and	$v0,$v0,$s4
ffffffff8010362c:	0c0417b2 	jal	ffffffff80105ec8 <taskRtnValueSet>
ffffffff80103630:	ae02003c 	sw	$v0,60($s0)
ffffffff80103634:	8e03003c 	lw	$v1,60($s0)
ffffffff80103638:	3c048011 	lui	$a0,0x8011
ffffffff8010363c:	24849420 	addiu	$a0,$a0,-27616
ffffffff80103640:	26050010 	addiu	$a1,$s0,16
ffffffff80103644:	30620004 	andi	$v0,$v1,0x4
ffffffff80103648:	10400008 	beqz	$v0,ffffffff8010366c <kernelPendQTerminate+0x80>
ffffffff8010364c:	00723024 	and	$a2,$v1,$s2
ffffffff80103650:	ae06003c 	sw	$a2,60($s0)
ffffffff80103654:	3c038011 	lui	$v1,0x8011
ffffffff80103658:	8c63942c 	lw	$v1,-27604($v1)
ffffffff8010365c:	8c620018 	lw	$v0,24($v1)
ffffffff80103660:	0040f809 	jalr	$v0
ffffffff80103664:	00000000 	nop
ffffffff80103668:	8e03003c 	lw	$v1,60($s0)
ffffffff8010366c:	5460000a 	bnezl	$v1,ffffffff80103698 <kernelPendQTerminate+0xac>
ffffffff80103670:	8e23000c 	lw	$v1,12($s1)
ffffffff80103674:	3c038011 	lui	$v1,0x8011
ffffffff80103678:	8c63943c 	lw	$v1,-27588($v1)
ffffffff8010367c:	02002825 	move	$a1,$s0
ffffffff80103680:	8c620010 	lw	$v0,16($v1)
ffffffff80103684:	3c048011 	lui	$a0,0x8011
ffffffff80103688:	24849430 	addiu	$a0,$a0,-27600
ffffffff8010368c:	0040f809 	jalr	$v0
ffffffff80103690:	8ca60040 	lw	$a2,64($a1)
ffffffff80103694:	8e23000c 	lw	$v1,12($s1)
ffffffff80103698:	8c620014 	lw	$v0,20($v1)
ffffffff8010369c:	0040f809 	jalr	$v0
ffffffff801036a0:	02202025 	move	$a0,$s1
ffffffff801036a4:	00408025 	move	$s0,$v0
ffffffff801036a8:	02002025 	move	$a0,$s0
ffffffff801036ac:	1600ffdb 	bnez	$s0,ffffffff8010361c <kernelPendQTerminate+0x30>
ffffffff801036b0:	24050001 	li	$a1,1
ffffffff801036b4:	8fbf0024 	lw	$ra,36($sp)
ffffffff801036b8:	8fb40020 	lw	$s4,32($sp)
ffffffff801036bc:	8fb3001c 	lw	$s3,28($sp)
ffffffff801036c0:	8fb20018 	lw	$s2,24($sp)
ffffffff801036c4:	8fb10014 	lw	$s1,20($sp)
ffffffff801036c8:	8fb00010 	lw	$s0,16($sp)
ffffffff801036cc:	03e00008 	jr	$ra
ffffffff801036d0:	27bd0028 	addiu	$sp,$sp,40

ffffffff801036d4 <kernelSuspend>:
ffffffff801036d4:	27bdffe8 	addiu	$sp,$sp,-24
ffffffff801036d8:	afb00010 	sw	$s0,16($sp)
ffffffff801036dc:	afbf0014 	sw	$ra,20($sp)
ffffffff801036e0:	00808025 	move	$s0,$a0
ffffffff801036e4:	8e02003c 	lw	$v0,60($s0)
ffffffff801036e8:	3c048011 	lui	$a0,0x8011
ffffffff801036ec:	24849430 	addiu	$a0,$a0,-27600
ffffffff801036f0:	14400007 	bnez	$v0,ffffffff80103710 <kernelSuspend+0x3c>
ffffffff801036f4:	02002825 	move	$a1,$s0
ffffffff801036f8:	3c038011 	lui	$v1,0x8011
ffffffff801036fc:	8c63943c 	lw	$v1,-27588($v1)
ffffffff80103700:	8c620018 	lw	$v0,24($v1)
ffffffff80103704:	0040f809 	jalr	$v0
ffffffff80103708:	00000000 	nop
ffffffff8010370c:	8e02003c 	lw	$v0,60($s0)
ffffffff80103710:	34420001 	ori	$v0,$v0,0x1
ffffffff80103714:	ae02003c 	sw	$v0,60($s0)
ffffffff80103718:	8fbf0014 	lw	$ra,20($sp)
ffffffff8010371c:	8fb00010 	lw	$s0,16($sp)
ffffffff80103720:	03e00008 	jr	$ra
ffffffff80103724:	27bd0018 	addiu	$sp,$sp,24

ffffffff80103728 <kernelDelete>:
ffffffff80103728:	27bdffe0 	addiu	$sp,$sp,-32
ffffffff8010372c:	afb10014 	sw	$s1,20($sp)
ffffffff80103730:	afb00010 	sw	$s0,16($sp)
ffffffff80103734:	afbf0018 	sw	$ra,24($sp)
ffffffff80103738:	00808025 	move	$s0,$a0
ffffffff8010373c:	8e02003c 	lw	$v0,60($s0)
ffffffff80103740:	02002825 	move	$a1,$s0
ffffffff80103744:	00008825 	move	$s1,$zero
ffffffff80103748:	1440000a 	bnez	$v0,ffffffff80103774 <kernelDelete+0x4c>
ffffffff8010374c:	30430002 	andi	$v1,$v0,0x2
ffffffff80103750:	3c038011 	lui	$v1,0x8011
ffffffff80103754:	8c63943c 	lw	$v1,-27588($v1)
ffffffff80103758:	3c048011 	lui	$a0,0x8011
ffffffff8010375c:	24849430 	addiu	$a0,$a0,-27600
ffffffff80103760:	8c620018 	lw	$v0,24($v1)
ffffffff80103764:	0040f809 	jalr	$v0
ffffffff80103768:	00000000 	nop
ffffffff8010376c:	08040ded 	j	ffffffff801037b4 <kernelDelete+0x8c>
ffffffff80103770:	00000000 	nop
ffffffff80103774:	50600006 	beqzl	$v1,ffffffff80103790 <kernelDelete+0x68>
ffffffff80103778:	30420004 	andi	$v0,$v0,0x4
ffffffff8010377c:	0c040dfc 	jal	ffffffff801037f0 <kernelPendQRemove>
ffffffff80103780:	00000000 	nop
ffffffff80103784:	00408825 	move	$s1,$v0
ffffffff80103788:	8e02003c 	lw	$v0,60($s0)
ffffffff8010378c:	30420004 	andi	$v0,$v0,0x4
ffffffff80103790:	10400008 	beqz	$v0,ffffffff801037b4 <kernelDelete+0x8c>
ffffffff80103794:	00000000 	nop
ffffffff80103798:	3c038011 	lui	$v1,0x8011
ffffffff8010379c:	8c63942c 	lw	$v1,-27604($v1)
ffffffff801037a0:	3c048011 	lui	$a0,0x8011
ffffffff801037a4:	24849420 	addiu	$a0,$a0,-27616
ffffffff801037a8:	8c620018 	lw	$v0,24($v1)
ffffffff801037ac:	0040f809 	jalr	$v0
ffffffff801037b0:	26050010 	addiu	$a1,$s0,16
ffffffff801037b4:	3c038011 	lui	$v1,0x8011
ffffffff801037b8:	8c63907c 	lw	$v1,-28548($v1)
ffffffff801037bc:	3c048011 	lui	$a0,0x8011
ffffffff801037c0:	24849070 	addiu	$a0,$a0,-28560
ffffffff801037c4:	8c620018 	lw	$v0,24($v1)
ffffffff801037c8:	0040f809 	jalr	$v0
ffffffff801037cc:	26050020 	addiu	$a1,$s0,32
ffffffff801037d0:	24030008 	li	$v1,8
ffffffff801037d4:	02201025 	move	$v0,$s1
ffffffff801037d8:	ae03003c 	sw	$v1,60($s0)
ffffffff801037dc:	8fbf0018 	lw	$ra,24($sp)
ffffffff801037e0:	8fb10014 	lw	$s1,20($sp)
ffffffff801037e4:	8fb00010 	lw	$s0,16($sp)
ffffffff801037e8:	03e00008 	jr	$ra
ffffffff801037ec:	27bd0020 	addiu	$sp,$sp,32

ffffffff801037f0 <kernelPendQRemove>:
ffffffff801037f0:	27bdffe0 	addiu	$sp,$sp,-32
ffffffff801037f4:	afb10014 	sw	$s1,20($sp)
ffffffff801037f8:	afb00010 	sw	$s0,16($sp)
ffffffff801037fc:	afbf0018 	sw	$ra,24($sp)
ffffffff80103800:	00808025 	move	$s0,$a0
ffffffff80103804:	8e040058 	lw	$a0,88($s0)
ffffffff80103808:	8c83000c 	lw	$v1,12($a0)
ffffffff8010380c:	8c620018 	lw	$v0,24($v1)
ffffffff80103810:	0040f809 	jalr	$v0
ffffffff80103814:	02002825 	move	$a1,$s0
ffffffff80103818:	8e03003c 	lw	$v1,60($s0)
ffffffff8010381c:	00408825 	move	$s1,$v0
ffffffff80103820:	2402fffd 	li	$v0,-3
ffffffff80103824:	00621024 	and	$v0,$v1,$v0
ffffffff80103828:	2406fffb 	li	$a2,-5
ffffffff8010382c:	30630004 	andi	$v1,$v1,0x4
ffffffff80103830:	26050010 	addiu	$a1,$s0,16
ffffffff80103834:	3c048011 	lui	$a0,0x8011
ffffffff80103838:	24849420 	addiu	$a0,$a0,-27616
ffffffff8010383c:	00463024 	and	$a2,$v0,$a2
ffffffff80103840:	ae02003c 	sw	$v0,60($s0)
ffffffff80103844:	10600007 	beqz	$v1,ffffffff80103864 <kernelPendQRemove+0x74>
ffffffff80103848:	ae00004c 	sw	$zero,76($s0)
ffffffff8010384c:	ae06003c 	sw	$a2,60($s0)
ffffffff80103850:	3c038011 	lui	$v1,0x8011
ffffffff80103854:	8c63942c 	lw	$v1,-27604($v1)
ffffffff80103858:	8c620018 	lw	$v0,24($v1)
ffffffff8010385c:	0040f809 	jalr	$v0
ffffffff80103860:	00000000 	nop
ffffffff80103864:	02201025 	move	$v0,$s1
ffffffff80103868:	8fbf0018 	lw	$ra,24($sp)
ffffffff8010386c:	8fb10014 	lw	$s1,20($sp)
ffffffff80103870:	8fb00010 	lw	$s0,16($sp)
ffffffff80103874:	03e00008 	jr	$ra
ffffffff80103878:	27bd0020 	addiu	$sp,$sp,32

ffffffff8010387c <kernelTickAnnounce>:
ffffffff8010387c:	3c048011 	lui	$a0,0x8011
ffffffff80103880:	8c8498b0 	lw	$a0,-26448($a0)
ffffffff80103884:	3c058011 	lui	$a1,0x8011
ffffffff80103888:	8ca598b4 	lw	$a1,-26444($a1)
ffffffff8010388c:	3c068011 	lui	$a2,0x8011
ffffffff80103890:	8cc6942c 	lw	$a2,-27604($a2)
ffffffff80103894:	27bdffd8 	addiu	$sp,$sp,-40
ffffffff80103898:	3c038011 	lui	$v1,0x8011
ffffffff8010389c:	8c6391b0 	lw	$v1,-28240($v1)
ffffffff801038a0:	afb3001c 	sw	$s3,28($sp)
ffffffff801038a4:	afbf0020 	sw	$ra,32($sp)
ffffffff801038a8:	afb20018 	sw	$s2,24($sp)
ffffffff801038ac:	afb10014 	sw	$s1,20($sp)
ffffffff801038b0:	afb00010 	sw	$s0,16($sp)
ffffffff801038b4:	24a50001 	addiu	$a1,$a1,1
ffffffff801038b8:	8cc20020 	lw	$v0,32($a2)
ffffffff801038bc:	2ca60001 	sltiu	$a2,$a1,1
ffffffff801038c0:	00862021 	addu	$a0,$a0,$a2
ffffffff801038c4:	24630001 	addiu	$v1,$v1,1
ffffffff801038c8:	3c018011 	lui	$at,0x8011
ffffffff801038cc:	ac2498b0 	sw	$a0,-26448($at)
ffffffff801038d0:	3c018011 	lui	$at,0x8011
ffffffff801038d4:	ac2598b4 	sw	$a1,-26444($at)
ffffffff801038d8:	3c018011 	lui	$at,0x8011
ffffffff801038dc:	ac2391b0 	sw	$v1,-28240($at)
ffffffff801038e0:	3c048011 	lui	$a0,0x8011
ffffffff801038e4:	24849420 	addiu	$a0,$a0,-27616
ffffffff801038e8:	0040f809 	jalr	$v0
ffffffff801038ec:	2413fffb 	li	$s3,-5
ffffffff801038f0:	08040e66 	j	ffffffff80103998 <kernelTickAnnounce+0x11c>
ffffffff801038f4:	00000000 	nop
ffffffff801038f8:	3c038011 	lui	$v1,0x8011
ffffffff801038fc:	8c639194 	lw	$v1,-28268($v1)
ffffffff80103900:	8e020030 	lw	$v0,48($s0)
ffffffff80103904:	14430024 	bne	$v0,$v1,ffffffff80103998 <kernelTickAnnounce+0x11c>
ffffffff80103908:	00000000 	nop
ffffffff8010390c:	8e02003c 	lw	$v0,60($s0)
ffffffff80103910:	30430002 	andi	$v1,$v0,0x2
ffffffff80103914:	00531024 	and	$v0,$v0,$s3
ffffffff80103918:	14400006 	bnez	$v0,ffffffff80103934 <kernelTickAnnounce+0xb8>
ffffffff8010391c:	ae02003c 	sw	$v0,60($s0)
ffffffff80103920:	02002025 	move	$a0,$s0
ffffffff80103924:	0c0417b2 	jal	ffffffff80105ec8 <taskRtnValueSet>
ffffffff80103928:	00002825 	move	$a1,$zero
ffffffff8010392c:	08040e5d 	j	ffffffff80103974 <kernelTickAnnounce+0xf8>
ffffffff80103930:	8e02003c 	lw	$v0,60($s0)
ffffffff80103934:	5060000f 	beqzl	$v1,ffffffff80103974 <kernelTickAnnounce+0xf8>
ffffffff80103938:	8e02003c 	lw	$v0,60($s0)
ffffffff8010393c:	0c040dfc 	jal	ffffffff801037f0 <kernelPendQRemove>
ffffffff80103940:	02002025 	move	$a0,$s0
ffffffff80103944:	00408825 	move	$s1,$v0
ffffffff80103948:	24120001 	li	$s2,1
ffffffff8010394c:	16320005 	bne	$s1,$s2,ffffffff80103964 <kernelTickAnnounce+0xe8>
ffffffff80103950:	02002025 	move	$a0,$s0
ffffffff80103954:	0c0417b2 	jal	ffffffff80105ec8 <taskRtnValueSet>
ffffffff80103958:	24050001 	li	$a1,1
ffffffff8010395c:	08040e5c 	j	ffffffff80103970 <kernelTickAnnounce+0xf4>
ffffffff80103960:	ae110080 	sw	$s1,128($s0)
ffffffff80103964:	0c0417b2 	jal	ffffffff80105ec8 <taskRtnValueSet>
ffffffff80103968:	24050001 	li	$a1,1
ffffffff8010396c:	ae120080 	sw	$s2,128($s0)
ffffffff80103970:	8e02003c 	lw	$v0,60($s0)
ffffffff80103974:	14400008 	bnez	$v0,ffffffff80103998 <kernelTickAnnounce+0x11c>
ffffffff80103978:	02002825 	move	$a1,$s0
ffffffff8010397c:	3c038011 	lui	$v1,0x8011
ffffffff80103980:	8c63943c 	lw	$v1,-27588($v1)
ffffffff80103984:	8c620010 	lw	$v0,16($v1)
ffffffff80103988:	3c048011 	lui	$a0,0x8011
ffffffff8010398c:	24849430 	addiu	$a0,$a0,-27600
ffffffff80103990:	0040f809 	jalr	$v0
ffffffff80103994:	8ca60040 	lw	$a2,64($a1)
ffffffff80103998:	3c038011 	lui	$v1,0x8011
ffffffff8010399c:	8c63942c 	lw	$v1,-27604($v1)
ffffffff801039a0:	3c048011 	lui	$a0,0x8011
ffffffff801039a4:	24849420 	addiu	$a0,$a0,-27616
ffffffff801039a8:	8c620024 	lw	$v0,36($v1)
ffffffff801039ac:	0040f809 	jalr	$v0
ffffffff801039b0:	00000000 	nop
ffffffff801039b4:	1440ffd0 	bnez	$v0,ffffffff801038f8 <kernelTickAnnounce+0x7c>
ffffffff801039b8:	2450fff0 	addiu	$s0,$v0,-16
ffffffff801039bc:	8fbf0020 	lw	$ra,32($sp)
ffffffff801039c0:	8fb3001c 	lw	$s3,28($sp)
ffffffff801039c4:	8fb20018 	lw	$s2,24($sp)
ffffffff801039c8:	8fb10014 	lw	$s1,20($sp)
ffffffff801039cc:	8fb00010 	lw	$s0,16($sp)
ffffffff801039d0:	03e00008 	jr	$ra
ffffffff801039d4:	27bd0028 	addiu	$sp,$sp,40

ffffffff801039d8 <kernelDelay>:
ffffffff801039d8:	3c038011 	lui	$v1,0x8011
ffffffff801039dc:	8c63943c 	lw	$v1,-27588($v1)
ffffffff801039e0:	27bdffe0 	addiu	$sp,$sp,-32
ffffffff801039e4:	afb10014 	sw	$s1,20($sp)
ffffffff801039e8:	afbf0018 	sw	$ra,24($sp)
ffffffff801039ec:	afb00010 	sw	$s0,16($sp)
ffffffff801039f0:	3c058011 	lui	$a1,0x8011
ffffffff801039f4:	8ca5919c 	lw	$a1,-28260($a1)
ffffffff801039f8:	8c620018 	lw	$v0,24($v1)
ffffffff801039fc:	00808825 	move	$s1,$a0
ffffffff80103a00:	3c048011 	lui	$a0,0x8011
ffffffff80103a04:	24849430 	addiu	$a0,$a0,-27600
ffffffff80103a08:	0040f809 	jalr	$v0
ffffffff80103a0c:	00000000 	nop
ffffffff80103a10:	3c048011 	lui	$a0,0x8011
ffffffff80103a14:	8c8491b0 	lw	$a0,-28240($a0)
ffffffff80103a18:	00911021 	addu	$v0,$a0,$s1
ffffffff80103a1c:	00042827 	nor	$a1,$zero,$a0
ffffffff80103a20:	0044102b 	sltu	$v0,$v0,$a0
ffffffff80103a24:	1040000c 	beqz	$v0,ffffffff80103a58 <kernelDelay+0x80>
ffffffff80103a28:	24a50001 	addiu	$a1,$a1,1
ffffffff80103a2c:	3c038011 	lui	$v1,0x8011
ffffffff80103a30:	8c63942c 	lw	$v1,-27604($v1)
ffffffff80103a34:	3c108011 	lui	$s0,0x8011
ffffffff80103a38:	26109420 	addiu	$s0,$s0,-27616
ffffffff80103a3c:	8c62002c 	lw	$v0,44($v1)
ffffffff80103a40:	0040f809 	jalr	$v0
ffffffff80103a44:	02002025 	move	$a0,$s0
ffffffff80103a48:	3c018011 	lui	$at,0x8011
ffffffff80103a4c:	ac2091b0 	sw	$zero,-28240($at)
ffffffff80103a50:	08040e98 	j	ffffffff80103a60 <kernelDelay+0x88>
ffffffff80103a54:	00002025 	move	$a0,$zero
ffffffff80103a58:	3c108011 	lui	$s0,0x8011
ffffffff80103a5c:	26109420 	addiu	$s0,$s0,-27616
ffffffff80103a60:	3c038011 	lui	$v1,0x8011
ffffffff80103a64:	8c63942c 	lw	$v1,-27604($v1)
ffffffff80103a68:	3c058011 	lui	$a1,0x8011
ffffffff80103a6c:	8ca5919c 	lw	$a1,-28260($a1)
ffffffff80103a70:	02243021 	addu	$a2,$s1,$a0
ffffffff80103a74:	8c620010 	lw	$v0,16($v1)
ffffffff80103a78:	02002025 	move	$a0,$s0
ffffffff80103a7c:	0040f809 	jalr	$v0
ffffffff80103a80:	24a50010 	addiu	$a1,$a1,16
ffffffff80103a84:	3c038011 	lui	$v1,0x8011
ffffffff80103a88:	8c63919c 	lw	$v1,-28260($v1)
ffffffff80103a8c:	8fbf0018 	lw	$ra,24($sp)
ffffffff80103a90:	8fb10014 	lw	$s1,20($sp)
ffffffff80103a94:	8c62003c 	lw	$v0,60($v1)
ffffffff80103a98:	8fb00010 	lw	$s0,16($sp)
ffffffff80103a9c:	34420004 	ori	$v0,$v0,0x4
ffffffff80103aa0:	ac62003c 	sw	$v0,60($v1)
ffffffff80103aa4:	03e00008 	jr	$ra
ffffffff80103aa8:	27bd0020 	addiu	$sp,$sp,32

ffffffff80103aac <kernelPrioritySet>:
ffffffff80103aac:	27bdffe0 	addiu	$sp,$sp,-32
ffffffff80103ab0:	afb10014 	sw	$s1,20($sp)
ffffffff80103ab4:	afb00010 	sw	$s0,16($sp)
ffffffff80103ab8:	afbf001c 	sw	$ra,28($sp)
ffffffff80103abc:	afb20018 	sw	$s2,24($sp)
ffffffff80103ac0:	00808025 	move	$s0,$a0
ffffffff80103ac4:	8e02004c 	lw	$v0,76($s0)
ffffffff80103ac8:	1440001d 	bnez	$v0,ffffffff80103b40 <kernelPrioritySet+0x94>
ffffffff80103acc:	00a08825 	move	$s1,$a1
ffffffff80103ad0:	8e030040 	lw	$v1,64($s0)
ffffffff80103ad4:	0071102b 	sltu	$v0,$v1,$s1
ffffffff80103ad8:	1040001b 	beqz	$v0,ffffffff80103b48 <kernelPrioritySet+0x9c>
ffffffff80103adc:	0223102b 	sltu	$v0,$s1,$v1
ffffffff80103ae0:	8e03003c 	lw	$v1,60($s0)
ffffffff80103ae4:	1460000b 	bnez	$v1,ffffffff80103b14 <kernelPrioritySet+0x68>
ffffffff80103ae8:	ae110040 	sw	$s1,64($s0)
ffffffff80103aec:	3c038011 	lui	$v1,0x8011
ffffffff80103af0:	8c63943c 	lw	$v1,-27588($v1)
ffffffff80103af4:	02002825 	move	$a1,$s0
ffffffff80103af8:	8c62001c 	lw	$v0,28($v1)
ffffffff80103afc:	3c048011 	lui	$a0,0x8011
ffffffff80103b00:	24849430 	addiu	$a0,$a0,-27600
ffffffff80103b04:	0040f809 	jalr	$v0
ffffffff80103b08:	02203025 	move	$a2,$s1
ffffffff80103b0c:	08040ef2 	j	ffffffff80103bc8 <kernelPrioritySet+0x11c>
ffffffff80103b10:	8fbf001c 	lw	$ra,28($sp)
ffffffff80103b14:	24020002 	li	$v0,2
ffffffff80103b18:	1462002b 	bne	$v1,$v0,ffffffff80103bc8 <kernelPrioritySet+0x11c>
ffffffff80103b1c:	8fbf001c 	lw	$ra,28($sp)
ffffffff80103b20:	8e040058 	lw	$a0,88($s0)
ffffffff80103b24:	02002825 	move	$a1,$s0
ffffffff80103b28:	8c83000c 	lw	$v1,12($a0)
ffffffff80103b2c:	8c62001c 	lw	$v0,28($v1)
ffffffff80103b30:	0040f809 	jalr	$v0
ffffffff80103b34:	02203025 	move	$a2,$s1
ffffffff80103b38:	08040ef2 	j	ffffffff80103bc8 <kernelPrioritySet+0x11c>
ffffffff80103b3c:	8fbf001c 	lw	$ra,28($sp)
ffffffff80103b40:	8e030040 	lw	$v1,64($s0)
ffffffff80103b44:	0223102b 	sltu	$v0,$s1,$v1
ffffffff80103b48:	1040001f 	beqz	$v0,ffffffff80103bc8 <kernelPrioritySet+0x11c>
ffffffff80103b4c:	8fbf001c 	lw	$ra,28($sp)
ffffffff80103b50:	24120002 	li	$s2,2
ffffffff80103b54:	8e02003c 	lw	$v0,60($s0)
ffffffff80103b58:	1440000b 	bnez	$v0,ffffffff80103b88 <kernelPrioritySet+0xdc>
ffffffff80103b5c:	ae110040 	sw	$s1,64($s0)
ffffffff80103b60:	3c038011 	lui	$v1,0x8011
ffffffff80103b64:	8c63943c 	lw	$v1,-27588($v1)
ffffffff80103b68:	3c048011 	lui	$a0,0x8011
ffffffff80103b6c:	24849430 	addiu	$a0,$a0,-27600
ffffffff80103b70:	02002825 	move	$a1,$s0
ffffffff80103b74:	8c62001c 	lw	$v0,28($v1)
ffffffff80103b78:	0040f809 	jalr	$v0
ffffffff80103b7c:	02203025 	move	$a2,$s1
ffffffff80103b80:	08040eee 	j	ffffffff80103bb8 <kernelPrioritySet+0x10c>
ffffffff80103b84:	8e020040 	lw	$v0,64($s0)
ffffffff80103b88:	5452000b 	bnel	$v0,$s2,ffffffff80103bb8 <kernelPrioritySet+0x10c>
ffffffff80103b8c:	8e020040 	lw	$v0,64($s0)
ffffffff80103b90:	8e040058 	lw	$a0,88($s0)
ffffffff80103b94:	02002825 	move	$a1,$s0
ffffffff80103b98:	8c83000c 	lw	$v1,12($a0)
ffffffff80103b9c:	8c62001c 	lw	$v0,28($v1)
ffffffff80103ba0:	0040f809 	jalr	$v0
ffffffff80103ba4:	02203025 	move	$a2,$s1
ffffffff80103ba8:	8e02004c 	lw	$v0,76($s0)
ffffffff80103bac:	54400001 	bnezl	$v0,ffffffff80103bb4 <kernelPrioritySet+0x108>
ffffffff80103bb0:	8c500018 	lw	$s0,24($v0)
ffffffff80103bb4:	8e020040 	lw	$v0,64($s0)
ffffffff80103bb8:	0222102b 	sltu	$v0,$s1,$v0
ffffffff80103bbc:	5440ffe6 	bnezl	$v0,ffffffff80103b58 <kernelPrioritySet+0xac>
ffffffff80103bc0:	8e02003c 	lw	$v0,60($s0)
ffffffff80103bc4:	8fbf001c 	lw	$ra,28($sp)
ffffffff80103bc8:	8fb20018 	lw	$s2,24($sp)
ffffffff80103bcc:	8fb10014 	lw	$s1,20($sp)
ffffffff80103bd0:	8fb00010 	lw	$s0,16($sp)
ffffffff80103bd4:	03e00008 	jr	$ra
ffffffff80103bd8:	27bd0020 	addiu	$sp,$sp,32
ffffffff80103bdc:	00000000 	nop

ffffffff80103be0 <workQInit>:
ffffffff80103be0:	24020001 	li	$v0,1
ffffffff80103be4:	3c018011 	lui	$at,0x8011
ffffffff80103be8:	ac2290a0 	sw	$v0,-28512($at)
ffffffff80103bec:	3c018011 	lui	$at,0x8011
ffffffff80103bf0:	a0209441 	sb	$zero,-27583($at)
ffffffff80103bf4:	3c018011 	lui	$at,0x8011
ffffffff80103bf8:	a0209440 	sb	$zero,-27584($at)
ffffffff80103bfc:	03e00008 	jr	$ra
ffffffff80103c00:	00000000 	nop

ffffffff80103c04 <workQAdd0>:
ffffffff80103c04:	27bdffe0 	addiu	$sp,$sp,-32
ffffffff80103c08:	afb20018 	sw	$s2,24($sp)
ffffffff80103c0c:	afb10014 	sw	$s1,20($sp)
ffffffff80103c10:	afb00010 	sw	$s0,16($sp)
ffffffff80103c14:	afbf001c 	sw	$ra,28($sp)
ffffffff80103c18:	0c041ef2 	jal	ffffffff80107bc8 <intLock>
ffffffff80103c1c:	00809025 	move	$s2,$a0
ffffffff80103c20:	00408825 	move	$s1,$v0
ffffffff80103c24:	3c038011 	lui	$v1,0x8011
ffffffff80103c28:	90639440 	lbu	$v1,-27584($v1)
ffffffff80103c2c:	3c028011 	lui	$v0,0x8011
ffffffff80103c30:	90429440 	lbu	$v0,-27584($v0)
ffffffff80103c34:	00031880 	sll	$v1,$v1,0x2
ffffffff80103c38:	24420004 	addiu	$v0,$v0,4
ffffffff80103c3c:	3c018011 	lui	$at,0x8011
ffffffff80103c40:	a0229440 	sb	$v0,-27584($at)
ffffffff80103c44:	3c048011 	lui	$a0,0x8011
ffffffff80103c48:	90849440 	lbu	$a0,-27584($a0)
ffffffff80103c4c:	3c028011 	lui	$v0,0x8011
ffffffff80103c50:	90429441 	lbu	$v0,-27583($v0)
ffffffff80103c54:	3c108011 	lui	$s0,0x8011
ffffffff80103c58:	26109450 	addiu	$s0,$s0,-27568
ffffffff80103c5c:	14820003 	bne	$a0,$v0,ffffffff80103c6c <workQAdd0+0x68>
ffffffff80103c60:	02038021 	addu	$s0,$s0,$v1
ffffffff80103c64:	0c040fa7 	jal	ffffffff80103e9c <workQPanic>
ffffffff80103c68:	00000000 	nop
ffffffff80103c6c:	0c041eff 	jal	ffffffff80107bfc <intUnlock>
ffffffff80103c70:	02202025 	move	$a0,$s1
ffffffff80103c74:	8fbf001c 	lw	$ra,28($sp)
ffffffff80103c78:	ae120000 	sw	$s2,0($s0)
ffffffff80103c7c:	8fb10014 	lw	$s1,20($sp)
ffffffff80103c80:	8fb20018 	lw	$s2,24($sp)
ffffffff80103c84:	8fb00010 	lw	$s0,16($sp)
ffffffff80103c88:	3c018011 	lui	$at,0x8011
ffffffff80103c8c:	ac2090a0 	sw	$zero,-28512($at)
ffffffff80103c90:	03e00008 	jr	$ra
ffffffff80103c94:	27bd0020 	addiu	$sp,$sp,32

ffffffff80103c98 <workQAdd1>:
ffffffff80103c98:	27bdffd8 	addiu	$sp,$sp,-40
ffffffff80103c9c:	afb3001c 	sw	$s3,28($sp)
ffffffff80103ca0:	afb20018 	sw	$s2,24($sp)
ffffffff80103ca4:	afb10014 	sw	$s1,20($sp)
ffffffff80103ca8:	afb00010 	sw	$s0,16($sp)
ffffffff80103cac:	00809825 	move	$s3,$a0
ffffffff80103cb0:	afbf0020 	sw	$ra,32($sp)
ffffffff80103cb4:	0c041ef2 	jal	ffffffff80107bc8 <intLock>
ffffffff80103cb8:	00a09025 	move	$s2,$a1
ffffffff80103cbc:	00408825 	move	$s1,$v0
ffffffff80103cc0:	3c038011 	lui	$v1,0x8011
ffffffff80103cc4:	90639440 	lbu	$v1,-27584($v1)
ffffffff80103cc8:	3c028011 	lui	$v0,0x8011
ffffffff80103ccc:	90429440 	lbu	$v0,-27584($v0)
ffffffff80103cd0:	00031880 	sll	$v1,$v1,0x2
ffffffff80103cd4:	24420004 	addiu	$v0,$v0,4
ffffffff80103cd8:	3c018011 	lui	$at,0x8011
ffffffff80103cdc:	a0229440 	sb	$v0,-27584($at)
ffffffff80103ce0:	3c048011 	lui	$a0,0x8011
ffffffff80103ce4:	90849440 	lbu	$a0,-27584($a0)
ffffffff80103ce8:	3c028011 	lui	$v0,0x8011
ffffffff80103cec:	90429441 	lbu	$v0,-27583($v0)
ffffffff80103cf0:	3c108011 	lui	$s0,0x8011
ffffffff80103cf4:	26109450 	addiu	$s0,$s0,-27568
ffffffff80103cf8:	14820003 	bne	$a0,$v0,ffffffff80103d08 <workQAdd1+0x70>
ffffffff80103cfc:	02038021 	addu	$s0,$s0,$v1
ffffffff80103d00:	0c040fa7 	jal	ffffffff80103e9c <workQPanic>
ffffffff80103d04:	00000000 	nop
ffffffff80103d08:	0c041eff 	jal	ffffffff80107bfc <intUnlock>
ffffffff80103d0c:	02202025 	move	$a0,$s1
ffffffff80103d10:	8fbf0020 	lw	$ra,32($sp)
ffffffff80103d14:	ae120004 	sw	$s2,4($s0)
ffffffff80103d18:	ae130000 	sw	$s3,0($s0)
ffffffff80103d1c:	8fb20018 	lw	$s2,24($sp)
ffffffff80103d20:	8fb3001c 	lw	$s3,28($sp)
ffffffff80103d24:	8fb10014 	lw	$s1,20($sp)
ffffffff80103d28:	8fb00010 	lw	$s0,16($sp)
ffffffff80103d2c:	3c018011 	lui	$at,0x8011
ffffffff80103d30:	ac2090a0 	sw	$zero,-28512($at)
ffffffff80103d34:	03e00008 	jr	$ra
ffffffff80103d38:	27bd0028 	addiu	$sp,$sp,40

ffffffff80103d3c <workQAdd2>:
ffffffff80103d3c:	27bdffd8 	addiu	$sp,$sp,-40
ffffffff80103d40:	afb40020 	sw	$s4,32($sp)
ffffffff80103d44:	afb3001c 	sw	$s3,28($sp)
ffffffff80103d48:	afb20018 	sw	$s2,24($sp)
ffffffff80103d4c:	afb10014 	sw	$s1,20($sp)
ffffffff80103d50:	afb00010 	sw	$s0,16($sp)
ffffffff80103d54:	00809825 	move	$s3,$a0
ffffffff80103d58:	afbf0024 	sw	$ra,36($sp)
ffffffff80103d5c:	00a0a025 	move	$s4,$a1
ffffffff80103d60:	0c041ef2 	jal	ffffffff80107bc8 <intLock>
ffffffff80103d64:	00c09025 	move	$s2,$a2
ffffffff80103d68:	00408825 	move	$s1,$v0
ffffffff80103d6c:	3c038011 	lui	$v1,0x8011
ffffffff80103d70:	90639440 	lbu	$v1,-27584($v1)
ffffffff80103d74:	3c028011 	lui	$v0,0x8011
ffffffff80103d78:	90429440 	lbu	$v0,-27584($v0)
ffffffff80103d7c:	00031880 	sll	$v1,$v1,0x2
ffffffff80103d80:	24420004 	addiu	$v0,$v0,4
ffffffff80103d84:	3c018011 	lui	$at,0x8011
ffffffff80103d88:	a0229440 	sb	$v0,-27584($at)
ffffffff80103d8c:	3c048011 	lui	$a0,0x8011
ffffffff80103d90:	90849440 	lbu	$a0,-27584($a0)
ffffffff80103d94:	3c028011 	lui	$v0,0x8011
ffffffff80103d98:	90429441 	lbu	$v0,-27583($v0)
ffffffff80103d9c:	3c108011 	lui	$s0,0x8011
ffffffff80103da0:	26109450 	addiu	$s0,$s0,-27568
ffffffff80103da4:	14820003 	bne	$a0,$v0,ffffffff80103db4 <workQAdd2+0x78>
ffffffff80103da8:	02038021 	addu	$s0,$s0,$v1
ffffffff80103dac:	0c040fa7 	jal	ffffffff80103e9c <workQPanic>
ffffffff80103db0:	00000000 	nop
ffffffff80103db4:	0c041eff 	jal	ffffffff80107bfc <intUnlock>
ffffffff80103db8:	02202025 	move	$a0,$s1
ffffffff80103dbc:	8fbf0024 	lw	$ra,36($sp)
ffffffff80103dc0:	ae120008 	sw	$s2,8($s0)
ffffffff80103dc4:	ae130000 	sw	$s3,0($s0)
ffffffff80103dc8:	ae140004 	sw	$s4,4($s0)
ffffffff80103dcc:	8fb3001c 	lw	$s3,28($sp)
ffffffff80103dd0:	8fb40020 	lw	$s4,32($sp)
ffffffff80103dd4:	8fb20018 	lw	$s2,24($sp)
ffffffff80103dd8:	8fb10014 	lw	$s1,20($sp)
ffffffff80103ddc:	8fb00010 	lw	$s0,16($sp)
ffffffff80103de0:	3c018011 	lui	$at,0x8011
ffffffff80103de4:	ac2090a0 	sw	$zero,-28512($at)
ffffffff80103de8:	03e00008 	jr	$ra
ffffffff80103dec:	27bd0028 	addiu	$sp,$sp,40

ffffffff80103df0 <workQDoWork>:
ffffffff80103df0:	3c038011 	lui	$v1,0x8011
ffffffff80103df4:	90639441 	lbu	$v1,-27583($v1)
ffffffff80103df8:	3c028011 	lui	$v0,0x8011
ffffffff80103dfc:	90429440 	lbu	$v0,-27584($v0)
ffffffff80103e00:	27bdffe0 	addiu	$sp,$sp,-32
ffffffff80103e04:	afb00010 	sw	$s0,16($sp)
ffffffff80103e08:	afbf0018 	sw	$ra,24($sp)
ffffffff80103e0c:	afb10014 	sw	$s1,20($sp)
ffffffff80103e10:	3c108011 	lui	$s0,0x8011
ffffffff80103e14:	8e109400 	lw	$s0,-27648($s0)
ffffffff80103e18:	10620019 	beq	$v1,$v0,ffffffff80103e80 <workQDoWork+0x90>
ffffffff80103e1c:	24110001 	li	$s1,1
ffffffff80103e20:	3c038011 	lui	$v1,0x8011
ffffffff80103e24:	90639441 	lbu	$v1,-27583($v1)
ffffffff80103e28:	3c068011 	lui	$a2,0x8011
ffffffff80103e2c:	90c69441 	lbu	$a2,-27583($a2)
ffffffff80103e30:	00031880 	sll	$v1,$v1,0x2
ffffffff80103e34:	3c018011 	lui	$at,0x8011
ffffffff80103e38:	24219450 	addiu	$at,$at,-27568
ffffffff80103e3c:	00231821 	addu	$v1,$at,$v1
ffffffff80103e40:	8c650008 	lw	$a1,8($v1)
ffffffff80103e44:	8c620000 	lw	$v0,0($v1)
ffffffff80103e48:	8c640004 	lw	$a0,4($v1)
ffffffff80103e4c:	24c60004 	addiu	$a2,$a2,4
ffffffff80103e50:	3c018011 	lui	$at,0x8011
ffffffff80103e54:	a0269441 	sb	$a2,-27583($at)
ffffffff80103e58:	0040f809 	jalr	$v0
ffffffff80103e5c:	00000000 	nop
ffffffff80103e60:	3c018011 	lui	$at,0x8011
ffffffff80103e64:	ac3190a0 	sw	$s1,-28512($at)
ffffffff80103e68:	3c038011 	lui	$v1,0x8011
ffffffff80103e6c:	90639441 	lbu	$v1,-27583($v1)
ffffffff80103e70:	3c028011 	lui	$v0,0x8011
ffffffff80103e74:	90429440 	lbu	$v0,-27584($v0)
ffffffff80103e78:	1462ffe9 	bne	$v1,$v0,ffffffff80103e20 <workQDoWork+0x30>
ffffffff80103e7c:	00000000 	nop
ffffffff80103e80:	3c018011 	lui	$at,0x8011
ffffffff80103e84:	ac309400 	sw	$s0,-27648($at)
ffffffff80103e88:	8fbf0018 	lw	$ra,24($sp)
ffffffff80103e8c:	8fb10014 	lw	$s1,20($sp)
ffffffff80103e90:	8fb00010 	lw	$s0,16($sp)
ffffffff80103e94:	03e00008 	jr	$ra
ffffffff80103e98:	27bd0020 	addiu	$sp,$sp,32

ffffffff80103e9c <workQPanic>:
ffffffff80103e9c:	08040fa7 	j	ffffffff80103e9c <workQPanic>
	...

ffffffff80103eb0 <msgQLibInit>:
ffffffff80103eb0:	3c038011 	lui	$v1,0x8011
ffffffff80103eb4:	8c639350 	lw	$v1,-27824($v1)
ffffffff80103eb8:	27bdffe0 	addiu	$sp,$sp,-32
ffffffff80103ebc:	14600017 	bnez	$v1,ffffffff80103f1c <msgQLibInit+0x6c>
ffffffff80103ec0:	afbf0018 	sw	$ra,24($sp)
ffffffff80103ec4:	3c048011 	lui	$a0,0x8011
ffffffff80103ec8:	8c8490b0 	lw	$a0,-28496($a0)
ffffffff80103ecc:	3c038010 	lui	$v1,0x8010
ffffffff80103ed0:	246343e0 	addiu	$v1,$v1,17376
ffffffff80103ed4:	3c028010 	lui	$v0,0x8010
ffffffff80103ed8:	2442400c 	addiu	$v0,$v0,16396
ffffffff80103edc:	24050058 	li	$a1,88
ffffffff80103ee0:	00003025 	move	$a2,$zero
ffffffff80103ee4:	3c078010 	lui	$a3,0x8010
ffffffff80103ee8:	24e73f2c 	addiu	$a3,$a3,16172
ffffffff80103eec:	afa30014 	sw	$v1,20($sp)
ffffffff80103ef0:	0c041a5f 	jal	ffffffff8010697c <classInit>
ffffffff80103ef4:	afa20010 	sw	$v0,16($sp)
ffffffff80103ef8:	14400006 	bnez	$v0,ffffffff80103f14 <msgQLibInit+0x64>
ffffffff80103efc:	24030001 	li	$v1,1
ffffffff80103f00:	24020001 	li	$v0,1
ffffffff80103f04:	3c018011 	lui	$at,0x8011
ffffffff80103f08:	ac229350 	sw	$v0,-27824($at)
ffffffff80103f0c:	08040fc8 	j	ffffffff80103f20 <msgQLibInit+0x70>
ffffffff80103f10:	8fbf0018 	lw	$ra,24($sp)
ffffffff80103f14:	3c038011 	lui	$v1,0x8011
ffffffff80103f18:	8c639350 	lw	$v1,-27824($v1)
ffffffff80103f1c:	8fbf0018 	lw	$ra,24($sp)
ffffffff80103f20:	2c620001 	sltiu	$v0,$v1,1
ffffffff80103f24:	03e00008 	jr	$ra
ffffffff80103f28:	27bd0020 	addiu	$sp,$sp,32

ffffffff80103f2c <msgQCreate>:
ffffffff80103f2c:	27bdffc8 	addiu	$sp,$sp,-56
ffffffff80103f30:	afb20028 	sw	$s2,40($sp)
ffffffff80103f34:	00a09025 	move	$s2,$a1
ffffffff80103f38:	2643000b 	addiu	$v1,$s2,11
ffffffff80103f3c:	2405fffc 	li	$a1,-4
ffffffff80103f40:	afb10024 	sw	$s1,36($sp)
ffffffff80103f44:	00651824 	and	$v1,$v1,$a1
ffffffff80103f48:	00808825 	move	$s1,$a0
ffffffff80103f4c:	02230018 	mult	$s1,$v1
ffffffff80103f50:	3c028011 	lui	$v0,0x8011
ffffffff80103f54:	8c429350 	lw	$v0,-27824($v0)
ffffffff80103f58:	afb3002c 	sw	$s3,44($sp)
ffffffff80103f5c:	afb00020 	sw	$s0,32($sp)
ffffffff80103f60:	afbf0030 	sw	$ra,48($sp)
ffffffff80103f64:	00008012 	mflo	$s0
ffffffff80103f68:	14400005 	bnez	$v0,ffffffff80103f80 <msgQCreate+0x54>
ffffffff80103f6c:	00c09825 	move	$s3,$a2
ffffffff80103f70:	0c040fac 	jal	ffffffff80103eb0 <msgQLibInit>
ffffffff80103f74:	00000000 	nop
ffffffff80103f78:	14400017 	bnez	$v0,ffffffff80103fd8 <msgQCreate+0xac>
ffffffff80103f7c:	00001025 	move	$v0,$zero
ffffffff80103f80:	3c048011 	lui	$a0,0x8011
ffffffff80103f84:	8c8490b0 	lw	$a0,-28496($a0)
ffffffff80103f88:	02002825 	move	$a1,$s0
ffffffff80103f8c:	0c041aa2 	jal	ffffffff80106a88 <objAllocExtra>
ffffffff80103f90:	27a60018 	addiu	$a2,$sp,24
ffffffff80103f94:	00408025 	move	$s0,$v0
ffffffff80103f98:	02403025 	move	$a2,$s2
ffffffff80103f9c:	02002025 	move	$a0,$s0
ffffffff80103fa0:	1200000d 	beqz	$s0,ffffffff80103fd8 <msgQCreate+0xac>
ffffffff80103fa4:	02202825 	move	$a1,$s1
ffffffff80103fa8:	8fa20018 	lw	$v0,24($sp)
ffffffff80103fac:	02603825 	move	$a3,$s3
ffffffff80103fb0:	0c041003 	jal	ffffffff8010400c <msgQInit>
ffffffff80103fb4:	afa20010 	sw	$v0,16($sp)
ffffffff80103fb8:	10400006 	beqz	$v0,ffffffff80103fd4 <msgQCreate+0xa8>
ffffffff80103fbc:	02002825 	move	$a1,$s0
ffffffff80103fc0:	3c048011 	lui	$a0,0x8011
ffffffff80103fc4:	0c041ac2 	jal	ffffffff80106b08 <objFree>
ffffffff80103fc8:	8c8490b0 	lw	$a0,-28496($a0)
ffffffff80103fcc:	08040ff6 	j	ffffffff80103fd8 <msgQCreate+0xac>
ffffffff80103fd0:	00001025 	move	$v0,$zero
ffffffff80103fd4:	02001025 	move	$v0,$s0
ffffffff80103fd8:	8fbf0030 	lw	$ra,48($sp)
ffffffff80103fdc:	8fb3002c 	lw	$s3,44($sp)
ffffffff80103fe0:	8fb20028 	lw	$s2,40($sp)
ffffffff80103fe4:	8fb10024 	lw	$s1,36($sp)
ffffffff80103fe8:	8fb00020 	lw	$s0,32($sp)
ffffffff80103fec:	03e00008 	jr	$ra
ffffffff80103ff0:	27bd0038 	addiu	$sp,$sp,56

ffffffff80103ff4 <msgQDelete>:
ffffffff80103ff4:	27bdffe8 	addiu	$sp,$sp,-24
ffffffff80103ff8:	afbf0010 	sw	$ra,16($sp)
ffffffff80103ffc:	8fbf0010 	lw	$ra,16($sp)
ffffffff80104000:	24050001 	li	$a1,1
ffffffff80104004:	080410f8 	j	ffffffff801043e0 <msgQDestroy>
ffffffff80104008:	27bd0018 	addiu	$sp,$sp,24

ffffffff8010400c <msgQInit>:
ffffffff8010400c:	3c088011 	lui	$t0,0x8011
ffffffff80104010:	8d089350 	lw	$t0,-27824($t0)
ffffffff80104014:	27bdffb8 	addiu	$sp,$sp,-72
ffffffff80104018:	24c3000b 	addiu	$v1,$a2,11
ffffffff8010401c:	2402fffc 	li	$v0,-4
ffffffff80104020:	afbe0040 	sw	$s8,64($sp)
ffffffff80104024:	afb7003c 	sw	$s7,60($sp)
ffffffff80104028:	afb3002c 	sw	$s3,44($sp)
ffffffff8010402c:	afb20028 	sw	$s2,40($sp)
ffffffff80104030:	afbf0044 	sw	$ra,68($sp)
ffffffff80104034:	afb60038 	sw	$s6,56($sp)
ffffffff80104038:	afb50034 	sw	$s5,52($sp)
ffffffff8010403c:	afb40030 	sw	$s4,48($sp)
ffffffff80104040:	afb10024 	sw	$s1,36($sp)
ffffffff80104044:	afb00020 	sw	$s0,32($sp)
ffffffff80104048:	afa60050 	sw	$a2,80($sp)
ffffffff8010404c:	0062f024 	and	$s8,$v1,$v0
ffffffff80104050:	00809825 	move	$s3,$a0
ffffffff80104054:	00a0b825 	move	$s7,$a1
ffffffff80104058:	afa70054 	sw	$a3,84($sp)
ffffffff8010405c:	15000005 	bnez	$t0,ffffffff80104074 <msgQInit+0x68>
ffffffff80104060:	8fb20058 	lw	$s2,88($sp)
ffffffff80104064:	0c040fac 	jal	ffffffff80103eb0 <msgQLibInit>
ffffffff80104068:	00000000 	nop
ffffffff8010406c:	14400040 	bnez	$v0,ffffffff80104170 <msgQInit+0x164>
ffffffff80104070:	24020001 	li	$v0,1
ffffffff80104074:	02602025 	move	$a0,$s3
ffffffff80104078:	00002825 	move	$a1,$zero
ffffffff8010407c:	0c040aed 	jal	ffffffff80102bb4 <memset>
ffffffff80104080:	24060058 	li	$a2,88
ffffffff80104084:	8fa20054 	lw	$v0,84($sp)
ffffffff80104088:	30430001 	andi	$v1,$v0,0x1
ffffffff8010408c:	10600007 	beqz	$v1,ffffffff801040ac <msgQInit+0xa0>
ffffffff80104090:	24020001 	li	$v0,1
ffffffff80104094:	14620005 	bne	$v1,$v0,ffffffff801040ac <msgQInit+0xa0>
ffffffff80104098:	00000000 	nop
ffffffff8010409c:	3c108011 	lui	$s0,0x8011
ffffffff801040a0:	8e109278 	lw	$s0,-28040($s0)
ffffffff801040a4:	0804102d 	j	ffffffff801040b4 <msgQInit+0xa8>
ffffffff801040a8:	00000000 	nop
ffffffff801040ac:	3c108011 	lui	$s0,0x8011
ffffffff801040b0:	8e1091f8 	lw	$s0,-28168($s0)
ffffffff801040b4:	3c058011 	lui	$a1,0x8011
ffffffff801040b8:	8ca59238 	lw	$a1,-28104($a1)
ffffffff801040bc:	24150003 	li	$s5,3
ffffffff801040c0:	24160004 	li	$s6,4
ffffffff801040c4:	24140005 	li	$s4,5
ffffffff801040c8:	26640004 	addiu	$a0,$s3,4
ffffffff801040cc:	02003025 	move	$a2,$s0
ffffffff801040d0:	24070002 	li	$a3,2
ffffffff801040d4:	afb50010 	sw	$s5,16($sp)
ffffffff801040d8:	afb60014 	sw	$s6,20($sp)
ffffffff801040dc:	0c041a34 	jal	ffffffff801068d0 <qInit>
ffffffff801040e0:	afb40018 	sw	$s4,24($sp)
ffffffff801040e4:	54400022 	bnezl	$v0,ffffffff80104170 <msgQInit+0x164>
ffffffff801040e8:	24020001 	li	$v0,1
ffffffff801040ec:	3c058011 	lui	$a1,0x8011
ffffffff801040f0:	8ca59238 	lw	$a1,-28104($a1)
ffffffff801040f4:	26710024 	addiu	$s1,$s3,36
ffffffff801040f8:	02003025 	move	$a2,$s0
ffffffff801040fc:	02202025 	move	$a0,$s1
ffffffff80104100:	24070002 	li	$a3,2
ffffffff80104104:	afb50010 	sw	$s5,16($sp)
ffffffff80104108:	afb60014 	sw	$s6,20($sp)
ffffffff8010410c:	0c041a34 	jal	ffffffff801068d0 <qInit>
ffffffff80104110:	afb40018 	sw	$s4,24($sp)
ffffffff80104114:	10400009 	beqz	$v0,ffffffff8010413c <msgQInit+0x130>
ffffffff80104118:	00008025 	move	$s0,$zero
ffffffff8010411c:	0804105c 	j	ffffffff80104170 <msgQInit+0x164>
ffffffff80104120:	24020001 	li	$v0,1
ffffffff80104124:	02602025 	move	$a0,$s3
ffffffff80104128:	02202825 	move	$a1,$s1
ffffffff8010412c:	0c0418ee 	jal	ffffffff801063b8 <qJobPut>
ffffffff80104130:	24070001 	li	$a3,1
ffffffff80104134:	025e9021 	addu	$s2,$s2,$s8
ffffffff80104138:	26100001 	addiu	$s0,$s0,1
ffffffff8010413c:	0217102a 	slt	$v0,$s0,$s7
ffffffff80104140:	1440fff8 	bnez	$v0,ffffffff80104124 <msgQInit+0x118>
ffffffff80104144:	02403025 	move	$a2,$s2
ffffffff80104148:	8fa20054 	lw	$v0,84($sp)
ffffffff8010414c:	3c058011 	lui	$a1,0x8011
ffffffff80104150:	8ca590b0 	lw	$a1,-28496($a1)
ffffffff80104154:	ae770048 	sw	$s7,72($s3)
ffffffff80104158:	ae620044 	sw	$v0,68($s3)
ffffffff8010415c:	8fa20050 	lw	$v0,80($sp)
ffffffff80104160:	02602025 	move	$a0,$s3
ffffffff80104164:	0c041a96 	jal	ffffffff80106a58 <objCoreInit>
ffffffff80104168:	ae62004c 	sw	$v0,76($s3)
ffffffff8010416c:	00001025 	move	$v0,$zero
ffffffff80104170:	8fbf0044 	lw	$ra,68($sp)
ffffffff80104174:	8fbe0040 	lw	$s8,64($sp)
ffffffff80104178:	8fb7003c 	lw	$s7,60($sp)
ffffffff8010417c:	8fb60038 	lw	$s6,56($sp)
ffffffff80104180:	8fb50034 	lw	$s5,52($sp)
ffffffff80104184:	8fb40030 	lw	$s4,48($sp)
ffffffff80104188:	8fb3002c 	lw	$s3,44($sp)
ffffffff8010418c:	8fb20028 	lw	$s2,40($sp)
ffffffff80104190:	8fb10024 	lw	$s1,36($sp)
ffffffff80104194:	8fb00020 	lw	$s0,32($sp)
ffffffff80104198:	03e00008 	jr	$ra
ffffffff8010419c:	27bd0048 	addiu	$sp,$sp,72

ffffffff801041a0 <msgQSend>:
ffffffff801041a0:	3c028011 	lui	$v0,0x8011
ffffffff801041a4:	8c4291a4 	lw	$v0,-28252($v0)
ffffffff801041a8:	27bdffd8 	addiu	$sp,$sp,-40
ffffffff801041ac:	afb40020 	sw	$s4,32($sp)
ffffffff801041b0:	afb3001c 	sw	$s3,28($sp)
ffffffff801041b4:	afb20018 	sw	$s2,24($sp)
ffffffff801041b8:	afb10014 	sw	$s1,20($sp)
ffffffff801041bc:	afbf0024 	sw	$ra,36($sp)
ffffffff801041c0:	afb00010 	sw	$s0,16($sp)
ffffffff801041c4:	00808825 	move	$s1,$a0
ffffffff801041c8:	00a0a025 	move	$s4,$a1
ffffffff801041cc:	00c09025 	move	$s2,$a2
ffffffff801041d0:	14400008 	bnez	$v0,ffffffff801041f4 <msgQSend+0x54>
ffffffff801041d4:	00e09825 	move	$s3,$a3
ffffffff801041d8:	3c038011 	lui	$v1,0x8011
ffffffff801041dc:	8c63919c 	lw	$v1,-28260($v1)
ffffffff801041e0:	8c620050 	lw	$v0,80($v1)
ffffffff801041e4:	24420001 	addiu	$v0,$v0,1
ffffffff801041e8:	ac620050 	sw	$v0,80($v1)
ffffffff801041ec:	08041080 	j	ffffffff80104200 <msgQSend+0x60>
ffffffff801041f0:	8e230000 	lw	$v1,0($s1)
ffffffff801041f4:	16600035 	bnez	$s3,ffffffff801042cc <msgQSend+0x12c>
ffffffff801041f8:	24020001 	li	$v0,1
ffffffff801041fc:	8e230000 	lw	$v1,0($s1)
ffffffff80104200:	3c028011 	lui	$v0,0x8011
ffffffff80104204:	8c4290b0 	lw	$v0,-28496($v0)
ffffffff80104208:	14620021 	bne	$v1,$v0,ffffffff80104290 <msgQSend+0xf0>
ffffffff8010420c:	00000000 	nop
ffffffff80104210:	8e22004c 	lw	$v0,76($s1)
ffffffff80104214:	0052102b 	sltu	$v0,$v0,$s2
ffffffff80104218:	1440001d 	bnez	$v0,ffffffff80104290 <msgQSend+0xf0>
ffffffff8010421c:	02202025 	move	$a0,$s1
ffffffff80104220:	26250024 	addiu	$a1,$s1,36
ffffffff80104224:	0c04193a 	jal	ffffffff801064e8 <qJobGet>
ffffffff80104228:	02603025 	move	$a2,$s3
ffffffff8010422c:	00408025 	move	$s0,$v0
ffffffff80104230:	2402ffff 	li	$v0,-1
ffffffff80104234:	5202fff2 	beql	$s0,$v0,ffffffff80104200 <msgQSend+0x60>
ffffffff80104238:	8e230000 	lw	$v1,0($s1)
ffffffff8010423c:	16000009 	bnez	$s0,ffffffff80104264 <msgQSend+0xc4>
ffffffff80104240:	02802825 	move	$a1,$s4
ffffffff80104244:	8e220050 	lw	$v0,80($s1)
ffffffff80104248:	3c038011 	lui	$v1,0x8011
ffffffff8010424c:	8c6391a4 	lw	$v1,-28252($v1)
ffffffff80104250:	24420001 	addiu	$v0,$v0,1
ffffffff80104254:	14600014 	bnez	$v1,ffffffff801042a8 <msgQSend+0x108>
ffffffff80104258:	ae220050 	sw	$v0,80($s1)
ffffffff8010425c:	080410a8 	j	ffffffff801042a0 <msgQSend+0x100>
ffffffff80104260:	00000000 	nop
ffffffff80104264:	02403025 	move	$a2,$s2
ffffffff80104268:	26040008 	addiu	$a0,$s0,8
ffffffff8010426c:	0c040aa0 	jal	ffffffff80102a80 <memcpy>
ffffffff80104270:	ae120004 	sw	$s2,4($s0)
ffffffff80104274:	8fa70038 	lw	$a3,56($sp)
ffffffff80104278:	02202025 	move	$a0,$s1
ffffffff8010427c:	02003025 	move	$a2,$s0
ffffffff80104280:	0c0418ee 	jal	ffffffff801063b8 <qJobPut>
ffffffff80104284:	24850004 	addiu	$a1,$a0,4
ffffffff80104288:	10400009 	beqz	$v0,ffffffff801042b0 <msgQSend+0x110>
ffffffff8010428c:	00000000 	nop
ffffffff80104290:	3c028011 	lui	$v0,0x8011
ffffffff80104294:	8c4291a4 	lw	$v0,-28252($v0)
ffffffff80104298:	1440000c 	bnez	$v0,ffffffff801042cc <msgQSend+0x12c>
ffffffff8010429c:	24020001 	li	$v0,1
ffffffff801042a0:	0c0417ff 	jal	ffffffff80105ffc <taskUnlock>
ffffffff801042a4:	00000000 	nop
ffffffff801042a8:	080410b3 	j	ffffffff801042cc <msgQSend+0x12c>
ffffffff801042ac:	24020001 	li	$v0,1
ffffffff801042b0:	3c028011 	lui	$v0,0x8011
ffffffff801042b4:	8c4291a4 	lw	$v0,-28252($v0)
ffffffff801042b8:	54400004 	bnezl	$v0,ffffffff801042cc <msgQSend+0x12c>
ffffffff801042bc:	00001025 	move	$v0,$zero
ffffffff801042c0:	0c0417ff 	jal	ffffffff80105ffc <taskUnlock>
ffffffff801042c4:	00000000 	nop
ffffffff801042c8:	00001025 	move	$v0,$zero
ffffffff801042cc:	8fbf0024 	lw	$ra,36($sp)
ffffffff801042d0:	8fb40020 	lw	$s4,32($sp)
ffffffff801042d4:	8fb3001c 	lw	$s3,28($sp)
ffffffff801042d8:	8fb20018 	lw	$s2,24($sp)
ffffffff801042dc:	8fb10014 	lw	$s1,20($sp)
ffffffff801042e0:	8fb00010 	lw	$s0,16($sp)
ffffffff801042e4:	03e00008 	jr	$ra
ffffffff801042e8:	27bd0028 	addiu	$sp,$sp,40

ffffffff801042ec <msgQReceive>:
ffffffff801042ec:	27bdffd8 	addiu	$sp,$sp,-40
ffffffff801042f0:	afb3001c 	sw	$s3,28($sp)
ffffffff801042f4:	00c09825 	move	$s3,$a2
ffffffff801042f8:	afb40020 	sw	$s4,32($sp)
ffffffff801042fc:	afb20018 	sw	$s2,24($sp)
ffffffff80104300:	afb00010 	sw	$s0,16($sp)
ffffffff80104304:	afbf0024 	sw	$ra,36($sp)
ffffffff80104308:	afb10014 	sw	$s1,20($sp)
ffffffff8010430c:	00809025 	move	$s2,$a0
ffffffff80104310:	00a0a025 	move	$s4,$a1
ffffffff80104314:	00e08025 	move	$s0,$a3
ffffffff80104318:	06600029 	bltz	$s3,ffffffff801043c0 <msgQReceive+0xd4>
ffffffff8010431c:	24020001 	li	$v0,1
ffffffff80104320:	3c038011 	lui	$v1,0x8011
ffffffff80104324:	8c63919c 	lw	$v1,-28260($v1)
ffffffff80104328:	8c620050 	lw	$v0,80($v1)
ffffffff8010432c:	24420001 	addiu	$v0,$v0,1
ffffffff80104330:	ac620050 	sw	$v0,80($v1)
ffffffff80104334:	8e430000 	lw	$v1,0($s2)
ffffffff80104338:	3c028011 	lui	$v0,0x8011
ffffffff8010433c:	8c4290b0 	lw	$v0,-28496($v0)
ffffffff80104340:	1462000d 	bne	$v1,$v0,ffffffff80104378 <msgQReceive+0x8c>
ffffffff80104344:	02402025 	move	$a0,$s2
ffffffff80104348:	26450004 	addiu	$a1,$s2,4
ffffffff8010434c:	0c04193a 	jal	ffffffff801064e8 <qJobGet>
ffffffff80104350:	02003025 	move	$a2,$s0
ffffffff80104354:	00408825 	move	$s1,$v0
ffffffff80104358:	2402ffff 	li	$v0,-1
ffffffff8010435c:	5222fff6 	beql	$s1,$v0,ffffffff80104338 <msgQReceive+0x4c>
ffffffff80104360:	8e430000 	lw	$v1,0($s2)
ffffffff80104364:	56200008 	bnezl	$s1,ffffffff80104388 <msgQReceive+0x9c>
ffffffff80104368:	8e300004 	lw	$s0,4($s1)
ffffffff8010436c:	8e420054 	lw	$v0,84($s2)
ffffffff80104370:	24420001 	addiu	$v0,$v0,1
ffffffff80104374:	ae420054 	sw	$v0,84($s2)
ffffffff80104378:	0c0417ff 	jal	ffffffff80105ffc <taskUnlock>
ffffffff8010437c:	00000000 	nop
ffffffff80104380:	080410f0 	j	ffffffff801043c0 <msgQReceive+0xd4>
ffffffff80104384:	24020001 	li	$v0,1
ffffffff80104388:	02802025 	move	$a0,$s4
ffffffff8010438c:	26250008 	addiu	$a1,$s1,8
ffffffff80104390:	0213102b 	sltu	$v0,$s0,$s3
ffffffff80104394:	0262800a 	movz	$s0,$s3,$v0
ffffffff80104398:	0c040aa0 	jal	ffffffff80102a80 <memcpy>
ffffffff8010439c:	02003025 	move	$a2,$s0
ffffffff801043a0:	02402025 	move	$a0,$s2
ffffffff801043a4:	02203025 	move	$a2,$s1
ffffffff801043a8:	24850024 	addiu	$a1,$a0,36
ffffffff801043ac:	0c0418ee 	jal	ffffffff801063b8 <qJobPut>
ffffffff801043b0:	24070001 	li	$a3,1
ffffffff801043b4:	0c0417ff 	jal	ffffffff80105ffc <taskUnlock>
ffffffff801043b8:	00000000 	nop
ffffffff801043bc:	02001025 	move	$v0,$s0
ffffffff801043c0:	8fbf0024 	lw	$ra,36($sp)
ffffffff801043c4:	8fb40020 	lw	$s4,32($sp)
ffffffff801043c8:	8fb3001c 	lw	$s3,28($sp)
ffffffff801043cc:	8fb20018 	lw	$s2,24($sp)
ffffffff801043d0:	8fb10014 	lw	$s1,20($sp)
ffffffff801043d4:	8fb00010 	lw	$s0,16($sp)
ffffffff801043d8:	03e00008 	jr	$ra
ffffffff801043dc:	27bd0028 	addiu	$sp,$sp,40

ffffffff801043e0 <msgQDestroy>:
ffffffff801043e0:	27bdffc8 	addiu	$sp,$sp,-56
ffffffff801043e4:	afb7002c 	sw	$s7,44($sp)
ffffffff801043e8:	afb10014 	sw	$s1,20($sp)
ffffffff801043ec:	00a0b825 	move	$s7,$a1
ffffffff801043f0:	00808825 	move	$s1,$a0
ffffffff801043f4:	afbf0030 	sw	$ra,48($sp)
ffffffff801043f8:	afb60028 	sw	$s6,40($sp)
ffffffff801043fc:	afb50024 	sw	$s5,36($sp)
ffffffff80104400:	afb40020 	sw	$s4,32($sp)
ffffffff80104404:	afb3001c 	sw	$s3,28($sp)
ffffffff80104408:	afb20018 	sw	$s2,24($sp)
ffffffff8010440c:	afb00010 	sw	$s0,16($sp)
ffffffff80104410:	3c058011 	lui	$a1,0x8011
ffffffff80104414:	8ca5919c 	lw	$a1,-28260($a1)
ffffffff80104418:	8ca2005c 	lw	$v0,92($a1)
ffffffff8010441c:	24420001 	addiu	$v0,$v0,1
ffffffff80104420:	aca2005c 	sw	$v0,92($a1)
ffffffff80104424:	8ca30050 	lw	$v1,80($a1)
ffffffff80104428:	24630001 	addiu	$v1,$v1,1
ffffffff8010442c:	aca30050 	sw	$v1,80($a1)
ffffffff80104430:	8e260000 	lw	$a2,0($s1)
ffffffff80104434:	3c028011 	lui	$v0,0x8011
ffffffff80104438:	8c4290b0 	lw	$v0,-28496($v0)
ffffffff8010443c:	10c20007 	beq	$a2,$v0,ffffffff8010445c <msgQDestroy+0x7c>
ffffffff80104440:	00000000 	nop
ffffffff80104444:	0c0417ff 	jal	ffffffff80105ffc <taskUnlock>
ffffffff80104448:	00000000 	nop
ffffffff8010444c:	0c04182a 	jal	ffffffff801060a8 <taskUnsafe>
ffffffff80104450:	00000000 	nop
ffffffff80104454:	08041149 	j	ffffffff80104524 <msgQDestroy+0x144>
ffffffff80104458:	24020001 	li	$v0,1
ffffffff8010445c:	0c041ad3 	jal	ffffffff80106b4c <objCoreTerminate>
ffffffff80104460:	00009825 	move	$s3,$zero
ffffffff80104464:	0c0417ff 	jal	ffffffff80105ffc <taskUnlock>
ffffffff80104468:	00008025 	move	$s0,$zero
ffffffff8010446c:	8e230048 	lw	$v1,72($s1)
ffffffff80104470:	18600019 	blez	$v1,ffffffff801044d8 <msgQDestroy+0xf8>
ffffffff80104474:	26350024 	addiu	$s5,$s1,36
ffffffff80104478:	26340004 	addiu	$s4,$s1,4
ffffffff8010447c:	2416ffff 	li	$s6,-1
ffffffff80104480:	02202025 	move	$a0,$s1
ffffffff80104484:	02a02825 	move	$a1,$s5
ffffffff80104488:	0c04193a 	jal	ffffffff801064e8 <qJobGet>
ffffffff8010448c:	02603025 	move	$a2,$s3
ffffffff80104490:	10400003 	beqz	$v0,ffffffff801044a0 <msgQDestroy+0xc0>
ffffffff80104494:	2412ffff 	li	$s2,-1
ffffffff80104498:	5456fff9 	bnel	$v0,$s6,ffffffff80104480 <msgQDestroy+0xa0>
ffffffff8010449c:	26100001 	addiu	$s0,$s0,1
ffffffff801044a0:	02202025 	move	$a0,$s1
ffffffff801044a4:	02802825 	move	$a1,$s4
ffffffff801044a8:	0c04193a 	jal	ffffffff801064e8 <qJobGet>
ffffffff801044ac:	02603025 	move	$a2,$s3
ffffffff801044b0:	50400004 	beqzl	$v0,ffffffff801044c4 <msgQDestroy+0xe4>
ffffffff801044b4:	8e220048 	lw	$v0,72($s1)
ffffffff801044b8:	5452fff9 	bnel	$v0,$s2,ffffffff801044a0 <msgQDestroy+0xc0>
ffffffff801044bc:	26100001 	addiu	$s0,$s0,1
ffffffff801044c0:	8e220048 	lw	$v0,72($s1)
ffffffff801044c4:	0202102a 	slt	$v0,$s0,$v0
ffffffff801044c8:	1440ffed 	bnez	$v0,ffffffff80104480 <msgQDestroy+0xa0>
ffffffff801044cc:	24130001 	li	$s3,1
ffffffff801044d0:	08041138 	j	ffffffff801044e0 <msgQDestroy+0x100>
ffffffff801044d4:	24020001 	li	$v0,1
ffffffff801044d8:	26340004 	addiu	$s4,$s1,4
ffffffff801044dc:	24020001 	li	$v0,1
ffffffff801044e0:	3c018011 	lui	$at,0x8011
ffffffff801044e4:	ac229198 	sw	$v0,-28264($at)
ffffffff801044e8:	0c0418e6 	jal	ffffffff80106398 <qJobTerminate>
ffffffff801044ec:	02802025 	move	$a0,$s4
ffffffff801044f0:	0c0418e6 	jal	ffffffff80106398 <qJobTerminate>
ffffffff801044f4:	02a02025 	move	$a0,$s5
ffffffff801044f8:	0c041df5 	jal	ffffffff801077d4 <kernelExit>
ffffffff801044fc:	00000000 	nop
ffffffff80104500:	12e00005 	beqz	$s7,ffffffff80104518 <msgQDestroy+0x138>
ffffffff80104504:	00000000 	nop
ffffffff80104508:	3c048011 	lui	$a0,0x8011
ffffffff8010450c:	8c8490b0 	lw	$a0,-28496($a0)
ffffffff80104510:	0c041ac2 	jal	ffffffff80106b08 <objFree>
ffffffff80104514:	02202825 	move	$a1,$s1
ffffffff80104518:	0c04182a 	jal	ffffffff801060a8 <taskUnsafe>
ffffffff8010451c:	00000000 	nop
ffffffff80104520:	00001025 	move	$v0,$zero
ffffffff80104524:	8fbf0030 	lw	$ra,48($sp)
ffffffff80104528:	8fb7002c 	lw	$s7,44($sp)
ffffffff8010452c:	8fb60028 	lw	$s6,40($sp)
ffffffff80104530:	8fb50024 	lw	$s5,36($sp)
ffffffff80104534:	8fb40020 	lw	$s4,32($sp)
ffffffff80104538:	8fb3001c 	lw	$s3,28($sp)
ffffffff8010453c:	8fb20018 	lw	$s2,24($sp)
ffffffff80104540:	8fb10014 	lw	$s1,20($sp)
ffffffff80104544:	8fb00010 	lw	$s0,16($sp)
ffffffff80104548:	03e00008 	jr	$ra
ffffffff8010454c:	27bd0038 	addiu	$sp,$sp,56

ffffffff80104550 <semBLibInit>:
ffffffff80104550:	3c028011 	lui	$v0,0x8011
ffffffff80104554:	8c4290c0 	lw	$v0,-28480($v0)
ffffffff80104558:	27bdffe8 	addiu	$sp,$sp,-24
ffffffff8010455c:	14400015 	bnez	$v0,ffffffff801045b4 <semBLibInit+0x64>
ffffffff80104560:	afbf0010 	sw	$ra,16($sp)
ffffffff80104564:	3c028010 	lui	$v0,0x8010
ffffffff80104568:	2442476c 	addiu	$v0,$v0,18284
ffffffff8010456c:	3c038010 	lui	$v1,0x8010
ffffffff80104570:	246347fc 	addiu	$v1,$v1,18428
ffffffff80104574:	3c048010 	lui	$a0,0x8010
ffffffff80104578:	24845054 	addiu	$a0,$a0,20564
ffffffff8010457c:	3c058010 	lui	$a1,0x8010
ffffffff80104580:	24a548cc 	addiu	$a1,$a1,18636
ffffffff80104584:	3c068010 	lui	$a2,0x8010
ffffffff80104588:	24c650e0 	addiu	$a2,$a2,20704
ffffffff8010458c:	3c018011 	lui	$at,0x8011
ffffffff80104590:	ac2290d8 	sw	$v0,-28456($at)
ffffffff80104594:	3c018011 	lui	$at,0x8011
ffffffff80104598:	ac2390f8 	sw	$v1,-28424($at)
ffffffff8010459c:	3c018011 	lui	$at,0x8011
ffffffff801045a0:	ac249118 	sw	$a0,-28392($at)
ffffffff801045a4:	3c018011 	lui	$at,0x8011
ffffffff801045a8:	ac259138 	sw	$a1,-28360($at)
ffffffff801045ac:	3c018011 	lui	$at,0x8011
ffffffff801045b0:	ac269158 	sw	$a2,-28328($at)
ffffffff801045b4:	0c04132c 	jal	ffffffff80104cb0 <semLibInit>
ffffffff801045b8:	00000000 	nop
ffffffff801045bc:	14400003 	bnez	$v0,ffffffff801045cc <semBLibInit+0x7c>
ffffffff801045c0:	24020001 	li	$v0,1
ffffffff801045c4:	3c018011 	lui	$at,0x8011
ffffffff801045c8:	ac2290c0 	sw	$v0,-28480($at)
ffffffff801045cc:	3c028011 	lui	$v0,0x8011
ffffffff801045d0:	8c4290c0 	lw	$v0,-28480($v0)
ffffffff801045d4:	8fbf0010 	lw	$ra,16($sp)
ffffffff801045d8:	2c420001 	sltiu	$v0,$v0,1
ffffffff801045dc:	03e00008 	jr	$ra
ffffffff801045e0:	27bd0018 	addiu	$sp,$sp,24

ffffffff801045e4 <semBCreate>:
ffffffff801045e4:	3c028011 	lui	$v0,0x8011
ffffffff801045e8:	8c4290c0 	lw	$v0,-28480($v0)
ffffffff801045ec:	27bdffe0 	addiu	$sp,$sp,-32
ffffffff801045f0:	afb20018 	sw	$s2,24($sp)
ffffffff801045f4:	afb10014 	sw	$s1,20($sp)
ffffffff801045f8:	afbf001c 	sw	$ra,28($sp)
ffffffff801045fc:	afb00010 	sw	$s0,16($sp)
ffffffff80104600:	00808825 	move	$s1,$a0
ffffffff80104604:	14400005 	bnez	$v0,ffffffff8010461c <semBCreate+0x38>
ffffffff80104608:	00a09025 	move	$s2,$a1
ffffffff8010460c:	0c041154 	jal	ffffffff80104550 <semBLibInit>
ffffffff80104610:	00000000 	nop
ffffffff80104614:	14400013 	bnez	$v0,ffffffff80104664 <semBCreate+0x80>
ffffffff80104618:	00001025 	move	$v0,$zero
ffffffff8010461c:	3c048011 	lui	$a0,0x8011
ffffffff80104620:	8c8490d4 	lw	$a0,-28460($a0)
ffffffff80104624:	0c041a9b 	jal	ffffffff80106a6c <objAlloc>
ffffffff80104628:	00000000 	nop
ffffffff8010462c:	00408025 	move	$s0,$v0
ffffffff80104630:	02202825 	move	$a1,$s1
ffffffff80104634:	02403025 	move	$a2,$s2
ffffffff80104638:	1200000a 	beqz	$s0,ffffffff80104664 <semBCreate+0x80>
ffffffff8010463c:	02002025 	move	$a0,$s0
ffffffff80104640:	0c04119f 	jal	ffffffff8010467c <semBInit>
ffffffff80104644:	00000000 	nop
ffffffff80104648:	50400006 	beqzl	$v0,ffffffff80104664 <semBCreate+0x80>
ffffffff8010464c:	02001025 	move	$v0,$s0
ffffffff80104650:	3c048011 	lui	$a0,0x8011
ffffffff80104654:	8c8490d4 	lw	$a0,-28460($a0)
ffffffff80104658:	0c041ac2 	jal	ffffffff80106b08 <objFree>
ffffffff8010465c:	02002825 	move	$a1,$s0
ffffffff80104660:	00001025 	move	$v0,$zero
ffffffff80104664:	8fbf001c 	lw	$ra,28($sp)
ffffffff80104668:	8fb20018 	lw	$s2,24($sp)
ffffffff8010466c:	8fb10014 	lw	$s1,20($sp)
ffffffff80104670:	8fb00010 	lw	$s0,16($sp)
ffffffff80104674:	03e00008 	jr	$ra
ffffffff80104678:	27bd0020 	addiu	$sp,$sp,32

ffffffff8010467c <semBInit>:
ffffffff8010467c:	3c028011 	lui	$v0,0x8011
ffffffff80104680:	8c4290c0 	lw	$v0,-28480($v0)
ffffffff80104684:	27bdffe0 	addiu	$sp,$sp,-32
ffffffff80104688:	afb20018 	sw	$s2,24($sp)
ffffffff8010468c:	afb10014 	sw	$s1,20($sp)
ffffffff80104690:	afb00010 	sw	$s0,16($sp)
ffffffff80104694:	afbf001c 	sw	$ra,28($sp)
ffffffff80104698:	00808025 	move	$s0,$a0
ffffffff8010469c:	00a08825 	move	$s1,$a1
ffffffff801046a0:	14400005 	bnez	$v0,ffffffff801046b8 <semBInit+0x3c>
ffffffff801046a4:	00c09025 	move	$s2,$a2
ffffffff801046a8:	0c041154 	jal	ffffffff80104550 <semBLibInit>
ffffffff801046ac:	00000000 	nop
ffffffff801046b0:	14400010 	bnez	$v0,ffffffff801046f4 <semBInit+0x78>
ffffffff801046b4:	24020001 	li	$v0,1
ffffffff801046b8:	02002025 	move	$a0,$s0
ffffffff801046bc:	0c0413ea 	jal	ffffffff80104fa8 <semQInit>
ffffffff801046c0:	02202825 	move	$a1,$s1
ffffffff801046c4:	02002025 	move	$a0,$s0
ffffffff801046c8:	02202825 	move	$a1,$s1
ffffffff801046cc:	10400003 	beqz	$v0,ffffffff801046dc <semBInit+0x60>
ffffffff801046d0:	02403025 	move	$a2,$s2
ffffffff801046d4:	080411bd 	j	ffffffff801046f4 <semBInit+0x78>
ffffffff801046d8:	24020001 	li	$v0,1
ffffffff801046dc:	8fbf001c 	lw	$ra,28($sp)
ffffffff801046e0:	8fb20018 	lw	$s2,24($sp)
ffffffff801046e4:	8fb10014 	lw	$s1,20($sp)
ffffffff801046e8:	8fb00010 	lw	$s0,16($sp)
ffffffff801046ec:	080411c3 	j	ffffffff8010470c <semBCoreInit>
ffffffff801046f0:	27bd0020 	addiu	$sp,$sp,32
ffffffff801046f4:	8fbf001c 	lw	$ra,28($sp)
ffffffff801046f8:	8fb20018 	lw	$s2,24($sp)
ffffffff801046fc:	8fb10014 	lw	$s1,20($sp)
ffffffff80104700:	8fb00010 	lw	$s0,16($sp)
ffffffff80104704:	03e00008 	jr	$ra
ffffffff80104708:	27bd0020 	addiu	$sp,$sp,32

ffffffff8010470c <semBCoreInit>:
ffffffff8010470c:	27bdffe8 	addiu	$sp,$sp,-24
ffffffff80104710:	afbf0010 	sw	$ra,16($sp)
ffffffff80104714:	10c00006 	beqz	$a2,ffffffff80104730 <semBCoreInit+0x24>
ffffffff80104718:	00801825 	move	$v1,$a0
ffffffff8010471c:	24020001 	li	$v0,1
ffffffff80104720:	10c20007 	beq	$a2,$v0,ffffffff80104740 <semBCoreInit+0x34>
ffffffff80104724:	8fbf0010 	lw	$ra,16($sp)
ffffffff80104728:	080411d9 	j	ffffffff80104764 <semBCoreInit+0x58>
ffffffff8010472c:	00000000 	nop
ffffffff80104730:	3c028011 	lui	$v0,0x8011
ffffffff80104734:	8c42919c 	lw	$v0,-28260($v0)
ffffffff80104738:	080411d1 	j	ffffffff80104744 <semBCoreInit+0x38>
ffffffff8010473c:	ac620018 	sw	$v0,24($v1)
ffffffff80104740:	ac600018 	sw	$zero,24($v1)
ffffffff80104744:	a0650005 	sb	$a1,5($v1)
ffffffff80104748:	a0600004 	sb	$zero,4($v1)
ffffffff8010474c:	3c058011 	lui	$a1,0x8011
ffffffff80104750:	8ca590d4 	lw	$a1,-28460($a1)
ffffffff80104754:	0c041a96 	jal	ffffffff80106a58 <objCoreInit>
ffffffff80104758:	a4600006 	sh	$zero,6($v1)
ffffffff8010475c:	00001025 	move	$v0,$zero
ffffffff80104760:	8fbf0010 	lw	$ra,16($sp)
ffffffff80104764:	03e00008 	jr	$ra
ffffffff80104768:	27bd0018 	addiu	$sp,$sp,24

ffffffff8010476c <semBGive>:
ffffffff8010476c:	27bdffe8 	addiu	$sp,$sp,-24
ffffffff80104770:	afb00010 	sw	$s0,16($sp)
ffffffff80104774:	afbf0014 	sw	$ra,20($sp)
ffffffff80104778:	0c041ef2 	jal	ffffffff80107bc8 <intLock>
ffffffff8010477c:	00808025 	move	$s0,$a0
ffffffff80104780:	00402825 	move	$a1,$v0
ffffffff80104784:	8e030000 	lw	$v1,0($s0)
ffffffff80104788:	3c028011 	lui	$v0,0x8011
ffffffff8010478c:	8c4290d4 	lw	$v0,-28460($v0)
ffffffff80104790:	10620005 	beq	$v1,$v0,ffffffff801047a8 <semBGive+0x3c>
ffffffff80104794:	00a02025 	move	$a0,$a1
ffffffff80104798:	0c041eff 	jal	ffffffff80107bfc <intUnlock>
ffffffff8010479c:	00000000 	nop
ffffffff801047a0:	080411fb 	j	ffffffff801047ec <semBGive+0x80>
ffffffff801047a4:	24020001 	li	$v0,1
ffffffff801047a8:	8e020008 	lw	$v0,8($s0)
ffffffff801047ac:	14400005 	bnez	$v0,ffffffff801047c4 <semBGive+0x58>
ffffffff801047b0:	ae020018 	sw	$v0,24($s0)
ffffffff801047b4:	0c041eff 	jal	ffffffff80107bfc <intUnlock>
ffffffff801047b8:	00a02025 	move	$a0,$a1
ffffffff801047bc:	080411fb 	j	ffffffff801047ec <semBGive+0x80>
ffffffff801047c0:	00001025 	move	$v0,$zero
ffffffff801047c4:	24020001 	li	$v0,1
ffffffff801047c8:	3c018011 	lui	$at,0x8011
ffffffff801047cc:	ac229198 	sw	$v0,-28264($at)
ffffffff801047d0:	0c041eff 	jal	ffffffff80107bfc <intUnlock>
ffffffff801047d4:	00a02025 	move	$a0,$a1
ffffffff801047d8:	0c040d07 	jal	ffffffff8010341c <kernelPendQGet>
ffffffff801047dc:	26040008 	addiu	$a0,$s0,8
ffffffff801047e0:	0c041df5 	jal	ffffffff801077d4 <kernelExit>
ffffffff801047e4:	00000000 	nop
ffffffff801047e8:	00001025 	move	$v0,$zero
ffffffff801047ec:	8fbf0014 	lw	$ra,20($sp)
ffffffff801047f0:	8fb00010 	lw	$s0,16($sp)
ffffffff801047f4:	03e00008 	jr	$ra
ffffffff801047f8:	27bd0018 	addiu	$sp,$sp,24

ffffffff801047fc <semBTake>:
ffffffff801047fc:	27bdffe0 	addiu	$sp,$sp,-32
ffffffff80104800:	afb10014 	sw	$s1,20($sp)
ffffffff80104804:	afb00010 	sw	$s0,16($sp)
ffffffff80104808:	afbf0018 	sw	$ra,24($sp)
ffffffff8010480c:	00808025 	move	$s0,$a0
ffffffff80104810:	00a08825 	move	$s1,$a1
ffffffff80104814:	0c041ef2 	jal	ffffffff80107bc8 <intLock>
ffffffff80104818:	00000000 	nop
ffffffff8010481c:	00402825 	move	$a1,$v0
ffffffff80104820:	8e030000 	lw	$v1,0($s0)
ffffffff80104824:	3c028011 	lui	$v0,0x8011
ffffffff80104828:	8c4290d4 	lw	$v0,-28460($v0)
ffffffff8010482c:	00a02025 	move	$a0,$a1
ffffffff80104830:	10620005 	beq	$v1,$v0,ffffffff80104848 <semBTake+0x4c>
ffffffff80104834:	24060001 	li	$a2,1
ffffffff80104838:	0c041eff 	jal	ffffffff80107bfc <intUnlock>
ffffffff8010483c:	00000000 	nop
ffffffff80104840:	0804122e 	j	ffffffff801048b8 <semBTake+0xbc>
ffffffff80104844:	24020001 	li	$v0,1
ffffffff80104848:	8e020018 	lw	$v0,24($s0)
ffffffff8010484c:	14400008 	bnez	$v0,ffffffff80104870 <semBTake+0x74>
ffffffff80104850:	00000000 	nop
ffffffff80104854:	3c028011 	lui	$v0,0x8011
ffffffff80104858:	8c42919c 	lw	$v0,-28260($v0)
ffffffff8010485c:	00a02025 	move	$a0,$a1
ffffffff80104860:	0c041eff 	jal	ffffffff80107bfc <intUnlock>
ffffffff80104864:	ae020018 	sw	$v0,24($s0)
ffffffff80104868:	0804122e 	j	ffffffff801048b8 <semBTake+0xbc>
ffffffff8010486c:	00001025 	move	$v0,$zero
ffffffff80104870:	3c018011 	lui	$at,0x8011
ffffffff80104874:	ac269198 	sw	$a2,-28264($at)
ffffffff80104878:	0c041eff 	jal	ffffffff80107bfc <intUnlock>
ffffffff8010487c:	00000000 	nop
ffffffff80104880:	26040008 	addiu	$a0,$s0,8
ffffffff80104884:	0c040d33 	jal	ffffffff801034cc <kernelPendQPut>
ffffffff80104888:	02202825 	move	$a1,$s1
ffffffff8010488c:	10400005 	beqz	$v0,ffffffff801048a4 <semBTake+0xa8>
ffffffff80104890:	00000000 	nop
ffffffff80104894:	0c041df5 	jal	ffffffff801077d4 <kernelExit>
ffffffff80104898:	00000000 	nop
ffffffff8010489c:	0804122e 	j	ffffffff801048b8 <semBTake+0xbc>
ffffffff801048a0:	24020001 	li	$v0,1
ffffffff801048a4:	0c041df5 	jal	ffffffff801077d4 <kernelExit>
ffffffff801048a8:	00000000 	nop
ffffffff801048ac:	24030002 	li	$v1,2
ffffffff801048b0:	1043ffd8 	beq	$v0,$v1,ffffffff80104814 <semBTake+0x18>
ffffffff801048b4:	00000000 	nop
ffffffff801048b8:	8fbf0018 	lw	$ra,24($sp)
ffffffff801048bc:	8fb10014 	lw	$s1,20($sp)
ffffffff801048c0:	8fb00010 	lw	$s0,16($sp)
ffffffff801048c4:	03e00008 	jr	$ra
ffffffff801048c8:	27bd0020 	addiu	$sp,$sp,32

ffffffff801048cc <semBGiveDefer>:
ffffffff801048cc:	27bdffe8 	addiu	$sp,$sp,-24
ffffffff801048d0:	00801025 	move	$v0,$a0
ffffffff801048d4:	afbf0010 	sw	$ra,16($sp)
ffffffff801048d8:	8c430008 	lw	$v1,8($v0)
ffffffff801048dc:	24440008 	addiu	$a0,$v0,8
ffffffff801048e0:	10600004 	beqz	$v1,ffffffff801048f4 <semBGiveDefer+0x28>
ffffffff801048e4:	ac430018 	sw	$v1,24($v0)
ffffffff801048e8:	8fbf0010 	lw	$ra,16($sp)
ffffffff801048ec:	08040d07 	j	ffffffff8010341c <kernelPendQGet>
ffffffff801048f0:	27bd0018 	addiu	$sp,$sp,24
ffffffff801048f4:	8fbf0010 	lw	$ra,16($sp)
ffffffff801048f8:	03e00008 	jr	$ra
ffffffff801048fc:	27bd0018 	addiu	$sp,$sp,24

ffffffff80104900 <semCLibInit>:
ffffffff80104900:	3c038011 	lui	$v1,0x8011
ffffffff80104904:	8c639360 	lw	$v1,-27808($v1)
ffffffff80104908:	27bdffe8 	addiu	$sp,$sp,-24
ffffffff8010490c:	14600020 	bnez	$v1,ffffffff80104990 <semCLibInit+0x90>
ffffffff80104910:	afbf0010 	sw	$ra,16($sp)
ffffffff80104914:	3c038010 	lui	$v1,0x8010
ffffffff80104918:	24634be4 	addiu	$v1,$v1,19428
ffffffff8010491c:	3c028010 	lui	$v0,0x8010
ffffffff80104920:	24424b10 	addiu	$v0,$v0,19216
ffffffff80104924:	3c048010 	lui	$a0,0x8010
ffffffff80104928:	24845054 	addiu	$a0,$a0,20564
ffffffff8010492c:	3c058010 	lui	$a1,0x8010
ffffffff80104930:	24a54ba8 	addiu	$a1,$a1,19368
ffffffff80104934:	3c068010 	lui	$a2,0x8010
ffffffff80104938:	24c650e0 	addiu	$a2,$a2,20704
ffffffff8010493c:	3c018011 	lui	$at,0x8011
ffffffff80104940:	ac239100 	sw	$v1,-28416($at)
ffffffff80104944:	3c018011 	lui	$at,0x8011
ffffffff80104948:	ac2290e0 	sw	$v0,-28448($at)
ffffffff8010494c:	3c018011 	lui	$at,0x8011
ffffffff80104950:	ac249120 	sw	$a0,-28384($at)
ffffffff80104954:	3c018011 	lui	$at,0x8011
ffffffff80104958:	ac259140 	sw	$a1,-28352($at)
ffffffff8010495c:	3c018011 	lui	$at,0x8011
ffffffff80104960:	ac269160 	sw	$a2,-28320($at)
ffffffff80104964:	0c04132c 	jal	ffffffff80104cb0 <semLibInit>
ffffffff80104968:	00000000 	nop
ffffffff8010496c:	14400006 	bnez	$v0,ffffffff80104988 <semCLibInit+0x88>
ffffffff80104970:	24030001 	li	$v1,1
ffffffff80104974:	24020001 	li	$v0,1
ffffffff80104978:	3c018011 	lui	$at,0x8011
ffffffff8010497c:	ac229360 	sw	$v0,-27808($at)
ffffffff80104980:	08041265 	j	ffffffff80104994 <semCLibInit+0x94>
ffffffff80104984:	8fbf0010 	lw	$ra,16($sp)
ffffffff80104988:	3c038011 	lui	$v1,0x8011
ffffffff8010498c:	8c639360 	lw	$v1,-27808($v1)
ffffffff80104990:	8fbf0010 	lw	$ra,16($sp)
ffffffff80104994:	2c620001 	sltiu	$v0,$v1,1
ffffffff80104998:	03e00008 	jr	$ra
ffffffff8010499c:	27bd0018 	addiu	$sp,$sp,24

ffffffff801049a0 <semCCreate>:
ffffffff801049a0:	3c028011 	lui	$v0,0x8011
ffffffff801049a4:	8c429360 	lw	$v0,-27808($v0)
ffffffff801049a8:	27bdffe0 	addiu	$sp,$sp,-32
ffffffff801049ac:	afb20018 	sw	$s2,24($sp)
ffffffff801049b0:	afb10014 	sw	$s1,20($sp)
ffffffff801049b4:	afbf001c 	sw	$ra,28($sp)
ffffffff801049b8:	afb00010 	sw	$s0,16($sp)
ffffffff801049bc:	00808825 	move	$s1,$a0
ffffffff801049c0:	14400005 	bnez	$v0,ffffffff801049d8 <semCCreate+0x38>
ffffffff801049c4:	00a09025 	move	$s2,$a1
ffffffff801049c8:	0c041240 	jal	ffffffff80104900 <semCLibInit>
ffffffff801049cc:	00000000 	nop
ffffffff801049d0:	14400013 	bnez	$v0,ffffffff80104a20 <semCCreate+0x80>
ffffffff801049d4:	00001025 	move	$v0,$zero
ffffffff801049d8:	3c048011 	lui	$a0,0x8011
ffffffff801049dc:	8c8490d4 	lw	$a0,-28460($a0)
ffffffff801049e0:	0c041a9b 	jal	ffffffff80106a6c <objAlloc>
ffffffff801049e4:	00000000 	nop
ffffffff801049e8:	00408025 	move	$s0,$v0
ffffffff801049ec:	02202825 	move	$a1,$s1
ffffffff801049f0:	02403025 	move	$a2,$s2
ffffffff801049f4:	1200000a 	beqz	$s0,ffffffff80104a20 <semCCreate+0x80>
ffffffff801049f8:	02002025 	move	$a0,$s0
ffffffff801049fc:	0c04128e 	jal	ffffffff80104a38 <semCInit>
ffffffff80104a00:	00000000 	nop
ffffffff80104a04:	50400006 	beqzl	$v0,ffffffff80104a20 <semCCreate+0x80>
ffffffff80104a08:	02001025 	move	$v0,$s0
ffffffff80104a0c:	3c048011 	lui	$a0,0x8011
ffffffff80104a10:	8c8490d4 	lw	$a0,-28460($a0)
ffffffff80104a14:	0c041ac2 	jal	ffffffff80106b08 <objFree>
ffffffff80104a18:	02002825 	move	$a1,$s0
ffffffff80104a1c:	00001025 	move	$v0,$zero
ffffffff80104a20:	8fbf001c 	lw	$ra,28($sp)
ffffffff80104a24:	8fb20018 	lw	$s2,24($sp)
ffffffff80104a28:	8fb10014 	lw	$s1,20($sp)
ffffffff80104a2c:	8fb00010 	lw	$s0,16($sp)
ffffffff80104a30:	03e00008 	jr	$ra
ffffffff80104a34:	27bd0020 	addiu	$sp,$sp,32

ffffffff80104a38 <semCInit>:
ffffffff80104a38:	3c028011 	lui	$v0,0x8011
ffffffff80104a3c:	8c429360 	lw	$v0,-27808($v0)
ffffffff80104a40:	27bdffe0 	addiu	$sp,$sp,-32
ffffffff80104a44:	afb20018 	sw	$s2,24($sp)
ffffffff80104a48:	afb10014 	sw	$s1,20($sp)
ffffffff80104a4c:	afb00010 	sw	$s0,16($sp)
ffffffff80104a50:	afbf001c 	sw	$ra,28($sp)
ffffffff80104a54:	00808025 	move	$s0,$a0
ffffffff80104a58:	00a08825 	move	$s1,$a1
ffffffff80104a5c:	14400005 	bnez	$v0,ffffffff80104a74 <semCInit+0x3c>
ffffffff80104a60:	00c09025 	move	$s2,$a2
ffffffff80104a64:	0c041240 	jal	ffffffff80104900 <semCLibInit>
ffffffff80104a68:	00000000 	nop
ffffffff80104a6c:	14400010 	bnez	$v0,ffffffff80104ab0 <semCInit+0x78>
ffffffff80104a70:	24020001 	li	$v0,1
ffffffff80104a74:	02002025 	move	$a0,$s0
ffffffff80104a78:	0c0413ea 	jal	ffffffff80104fa8 <semQInit>
ffffffff80104a7c:	02202825 	move	$a1,$s1
ffffffff80104a80:	02002025 	move	$a0,$s0
ffffffff80104a84:	02202825 	move	$a1,$s1
ffffffff80104a88:	10400003 	beqz	$v0,ffffffff80104a98 <semCInit+0x60>
ffffffff80104a8c:	02403025 	move	$a2,$s2
ffffffff80104a90:	080412ac 	j	ffffffff80104ab0 <semCInit+0x78>
ffffffff80104a94:	24020001 	li	$v0,1
ffffffff80104a98:	8fbf001c 	lw	$ra,28($sp)
ffffffff80104a9c:	8fb20018 	lw	$s2,24($sp)
ffffffff80104aa0:	8fb10014 	lw	$s1,20($sp)
ffffffff80104aa4:	8fb00010 	lw	$s0,16($sp)
ffffffff80104aa8:	080412b2 	j	ffffffff80104ac8 <semCCoreInit>
ffffffff80104aac:	27bd0020 	addiu	$sp,$sp,32
ffffffff80104ab0:	8fbf001c 	lw	$ra,28($sp)
ffffffff80104ab4:	8fb20018 	lw	$s2,24($sp)
ffffffff80104ab8:	8fb10014 	lw	$s1,20($sp)
ffffffff80104abc:	8fb00010 	lw	$s0,16($sp)
ffffffff80104ac0:	03e00008 	jr	$ra
ffffffff80104ac4:	27bd0020 	addiu	$sp,$sp,32

ffffffff80104ac8 <semCCoreInit>:
ffffffff80104ac8:	27bdffe8 	addiu	$sp,$sp,-24
ffffffff80104acc:	30a3000c 	andi	$v1,$a1,0xc
ffffffff80104ad0:	afbf0010 	sw	$ra,16($sp)
ffffffff80104ad4:	00803825 	move	$a3,$a0
ffffffff80104ad8:	1460000a 	bnez	$v1,ffffffff80104b04 <semCCoreInit+0x3c>
ffffffff80104adc:	24020001 	li	$v0,1
ffffffff80104ae0:	24020002 	li	$v0,2
ffffffff80104ae4:	a0e20004 	sb	$v0,4($a3)
ffffffff80104ae8:	a0e50005 	sb	$a1,5($a3)
ffffffff80104aec:	3c058011 	lui	$a1,0x8011
ffffffff80104af0:	8ca590d4 	lw	$a1,-28460($a1)
ffffffff80104af4:	ace60018 	sw	$a2,24($a3)
ffffffff80104af8:	0c041a96 	jal	ffffffff80106a58 <objCoreInit>
ffffffff80104afc:	a4e00006 	sh	$zero,6($a3)
ffffffff80104b00:	00001025 	move	$v0,$zero
ffffffff80104b04:	8fbf0010 	lw	$ra,16($sp)
ffffffff80104b08:	03e00008 	jr	$ra
ffffffff80104b0c:	27bd0018 	addiu	$sp,$sp,24

ffffffff80104b10 <semCGive>:
ffffffff80104b10:	27bdffe8 	addiu	$sp,$sp,-24
ffffffff80104b14:	afb00010 	sw	$s0,16($sp)
ffffffff80104b18:	afbf0014 	sw	$ra,20($sp)
ffffffff80104b1c:	0c041ef2 	jal	ffffffff80107bc8 <intLock>
ffffffff80104b20:	00808025 	move	$s0,$a0
ffffffff80104b24:	00402825 	move	$a1,$v0
ffffffff80104b28:	8e030000 	lw	$v1,0($s0)
ffffffff80104b2c:	3c028011 	lui	$v0,0x8011
ffffffff80104b30:	8c4290d4 	lw	$v0,-28460($v0)
ffffffff80104b34:	10620005 	beq	$v1,$v0,ffffffff80104b4c <semCGive+0x3c>
ffffffff80104b38:	00a02025 	move	$a0,$a1
ffffffff80104b3c:	0c041eff 	jal	ffffffff80107bfc <intUnlock>
ffffffff80104b40:	00000000 	nop
ffffffff80104b44:	080412e6 	j	ffffffff80104b98 <semCGive+0x88>
ffffffff80104b48:	24020001 	li	$v0,1
ffffffff80104b4c:	8e020008 	lw	$v0,8($s0)
ffffffff80104b50:	14400008 	bnez	$v0,ffffffff80104b74 <semCGive+0x64>
ffffffff80104b54:	24020001 	li	$v0,1
ffffffff80104b58:	8e020018 	lw	$v0,24($s0)
ffffffff80104b5c:	00a02025 	move	$a0,$a1
ffffffff80104b60:	24420001 	addiu	$v0,$v0,1
ffffffff80104b64:	0c041eff 	jal	ffffffff80107bfc <intUnlock>
ffffffff80104b68:	ae020018 	sw	$v0,24($s0)
ffffffff80104b6c:	080412e6 	j	ffffffff80104b98 <semCGive+0x88>
ffffffff80104b70:	00001025 	move	$v0,$zero
ffffffff80104b74:	3c018011 	lui	$at,0x8011
ffffffff80104b78:	ac229198 	sw	$v0,-28264($at)
ffffffff80104b7c:	0c041eff 	jal	ffffffff80107bfc <intUnlock>
ffffffff80104b80:	00a02025 	move	$a0,$a1
ffffffff80104b84:	0c040d07 	jal	ffffffff8010341c <kernelPendQGet>
ffffffff80104b88:	26040008 	addiu	$a0,$s0,8
ffffffff80104b8c:	0c041df5 	jal	ffffffff801077d4 <kernelExit>
ffffffff80104b90:	00000000 	nop
ffffffff80104b94:	00001025 	move	$v0,$zero
ffffffff80104b98:	8fbf0014 	lw	$ra,20($sp)
ffffffff80104b9c:	8fb00010 	lw	$s0,16($sp)
ffffffff80104ba0:	03e00008 	jr	$ra
ffffffff80104ba4:	27bd0018 	addiu	$sp,$sp,24

ffffffff80104ba8 <semCGiveDefer>:
ffffffff80104ba8:	27bdffe8 	addiu	$sp,$sp,-24
ffffffff80104bac:	00801825 	move	$v1,$a0
ffffffff80104bb0:	afbf0010 	sw	$ra,16($sp)
ffffffff80104bb4:	8c620008 	lw	$v0,8($v1)
ffffffff80104bb8:	14400007 	bnez	$v0,ffffffff80104bd8 <semCGiveDefer+0x30>
ffffffff80104bbc:	24640008 	addiu	$a0,$v1,8
ffffffff80104bc0:	8c620018 	lw	$v0,24($v1)
ffffffff80104bc4:	8fbf0010 	lw	$ra,16($sp)
ffffffff80104bc8:	24420001 	addiu	$v0,$v0,1
ffffffff80104bcc:	ac620018 	sw	$v0,24($v1)
ffffffff80104bd0:	03e00008 	jr	$ra
ffffffff80104bd4:	27bd0018 	addiu	$sp,$sp,24
ffffffff80104bd8:	8fbf0010 	lw	$ra,16($sp)
ffffffff80104bdc:	08040d07 	j	ffffffff8010341c <kernelPendQGet>
ffffffff80104be0:	27bd0018 	addiu	$sp,$sp,24

ffffffff80104be4 <semCTake>:
ffffffff80104be4:	27bdffe0 	addiu	$sp,$sp,-32
ffffffff80104be8:	afb10014 	sw	$s1,20($sp)
ffffffff80104bec:	afb00010 	sw	$s0,16($sp)
ffffffff80104bf0:	00a08825 	move	$s1,$a1
ffffffff80104bf4:	00808025 	move	$s0,$a0
ffffffff80104bf8:	afbf001c 	sw	$ra,28($sp)
ffffffff80104bfc:	0c041ef2 	jal	ffffffff80107bc8 <intLock>
ffffffff80104c00:	afb20018 	sw	$s2,24($sp)
ffffffff80104c04:	00402825 	move	$a1,$v0
ffffffff80104c08:	8e030000 	lw	$v1,0($s0)
ffffffff80104c0c:	3c028011 	lui	$v0,0x8011
ffffffff80104c10:	8c4290d4 	lw	$v0,-28460($v0)
ffffffff80104c14:	10620005 	beq	$v1,$v0,ffffffff80104c2c <semCTake+0x48>
ffffffff80104c18:	00a02025 	move	$a0,$a1
ffffffff80104c1c:	0c041eff 	jal	ffffffff80107bfc <intUnlock>
ffffffff80104c20:	00000000 	nop
ffffffff80104c24:	08041324 	j	ffffffff80104c90 <semCTake+0xac>
ffffffff80104c28:	24020001 	li	$v0,1
ffffffff80104c2c:	8e020018 	lw	$v0,24($s0)
ffffffff80104c30:	10400006 	beqz	$v0,ffffffff80104c4c <semCTake+0x68>
ffffffff80104c34:	2443ffff 	addiu	$v1,$v0,-1
ffffffff80104c38:	ae030018 	sw	$v1,24($s0)
ffffffff80104c3c:	0c041eff 	jal	ffffffff80107bfc <intUnlock>
ffffffff80104c40:	00a02025 	move	$a0,$a1
ffffffff80104c44:	08041324 	j	ffffffff80104c90 <semCTake+0xac>
ffffffff80104c48:	00001025 	move	$v0,$zero
ffffffff80104c4c:	24020001 	li	$v0,1
ffffffff80104c50:	3c018011 	lui	$at,0x8011
ffffffff80104c54:	ac229198 	sw	$v0,-28264($at)
ffffffff80104c58:	0c041eff 	jal	ffffffff80107bfc <intUnlock>
ffffffff80104c5c:	00a02025 	move	$a0,$a1
ffffffff80104c60:	26040008 	addiu	$a0,$s0,8
ffffffff80104c64:	0c040d33 	jal	ffffffff801034cc <kernelPendQPut>
ffffffff80104c68:	02202825 	move	$a1,$s1
ffffffff80104c6c:	10400005 	beqz	$v0,ffffffff80104c84 <semCTake+0xa0>
ffffffff80104c70:	00000000 	nop
ffffffff80104c74:	0c041df5 	jal	ffffffff801077d4 <kernelExit>
ffffffff80104c78:	00000000 	nop
ffffffff80104c7c:	08041324 	j	ffffffff80104c90 <semCTake+0xac>
ffffffff80104c80:	24020001 	li	$v0,1
ffffffff80104c84:	0c041df5 	jal	ffffffff801077d4 <kernelExit>
ffffffff80104c88:	00000000 	nop
ffffffff80104c8c:	02401025 	move	$v0,$s2
ffffffff80104c90:	8fbf001c 	lw	$ra,28($sp)
ffffffff80104c94:	8fb20018 	lw	$s2,24($sp)
ffffffff80104c98:	8fb10014 	lw	$s1,20($sp)
ffffffff80104c9c:	8fb00010 	lw	$s0,16($sp)
ffffffff80104ca0:	03e00008 	jr	$ra
ffffffff80104ca4:	27bd0020 	addiu	$sp,$sp,32
	...

ffffffff80104cb0 <semLibInit>:
ffffffff80104cb0:	3c028011 	lui	$v0,0x8011
ffffffff80104cb4:	8c4290d0 	lw	$v0,-28464($v0)
ffffffff80104cb8:	27bdffe0 	addiu	$sp,$sp,-32
ffffffff80104cbc:	14400013 	bnez	$v0,ffffffff80104d0c <semLibInit+0x5c>
ffffffff80104cc0:	afbf0018 	sw	$ra,24($sp)
ffffffff80104cc4:	3c048011 	lui	$a0,0x8011
ffffffff80104cc8:	8c8490d4 	lw	$a0,-28460($a0)
ffffffff80104ccc:	3c028010 	lui	$v0,0x8010
ffffffff80104cd0:	24424e20 	addiu	$v0,$v0,20000
ffffffff80104cd4:	2405001c 	li	$a1,28
ffffffff80104cd8:	00003025 	move	$a2,$zero
ffffffff80104cdc:	00003825 	move	$a3,$zero
ffffffff80104ce0:	afa20014 	sw	$v0,20($sp)
ffffffff80104ce4:	0c041a5f 	jal	ffffffff8010697c <classInit>
ffffffff80104ce8:	afa00010 	sw	$zero,16($sp)
ffffffff80104cec:	14400005 	bnez	$v0,ffffffff80104d04 <semLibInit+0x54>
ffffffff80104cf0:	24020001 	li	$v0,1
ffffffff80104cf4:	3c018011 	lui	$at,0x8011
ffffffff80104cf8:	ac2290d0 	sw	$v0,-28464($at)
ffffffff80104cfc:	08041345 	j	ffffffff80104d14 <semLibInit+0x64>
ffffffff80104d00:	8fbf0018 	lw	$ra,24($sp)
ffffffff80104d04:	3c028011 	lui	$v0,0x8011
ffffffff80104d08:	8c4290d0 	lw	$v0,-28464($v0)
ffffffff80104d0c:	2c420001 	sltiu	$v0,$v0,1
ffffffff80104d10:	8fbf0018 	lw	$ra,24($sp)
ffffffff80104d14:	03e00008 	jr	$ra
ffffffff80104d18:	27bd0020 	addiu	$sp,$sp,32

ffffffff80104d1c <semGive>:
ffffffff80104d1c:	3c028011 	lui	$v0,0x8011
ffffffff80104d20:	8c429198 	lw	$v0,-28264($v0)
ffffffff80104d24:	27bdffe8 	addiu	$sp,$sp,-24
ffffffff80104d28:	afbf0010 	sw	$ra,16($sp)
ffffffff80104d2c:	10400004 	beqz	$v0,ffffffff80104d40 <semGive+0x24>
ffffffff80104d30:	00801825 	move	$v1,$a0
ffffffff80104d34:	8fbf0010 	lw	$ra,16($sp)
ffffffff80104d38:	080413b4 	j	ffffffff80104ed0 <semGiveDefer>
ffffffff80104d3c:	27bd0018 	addiu	$sp,$sp,24
ffffffff80104d40:	90630004 	lbu	$v1,4($v1)
ffffffff80104d44:	30630007 	andi	$v1,$v1,0x7
ffffffff80104d48:	00031880 	sll	$v1,$v1,0x2
ffffffff80104d4c:	3c028011 	lui	$v0,0x8011
ffffffff80104d50:	00431021 	addu	$v0,$v0,$v1
ffffffff80104d54:	8c4290d8 	lw	$v0,-28456($v0)
ffffffff80104d58:	0040f809 	jalr	$v0
ffffffff80104d5c:	00000000 	nop
ffffffff80104d60:	8fbf0010 	lw	$ra,16($sp)
ffffffff80104d64:	03e00008 	jr	$ra
ffffffff80104d68:	27bd0018 	addiu	$sp,$sp,24

ffffffff80104d6c <semTake>:
ffffffff80104d6c:	27bdffe8 	addiu	$sp,$sp,-24
ffffffff80104d70:	afbf0010 	sw	$ra,16($sp)
ffffffff80104d74:	90830004 	lbu	$v1,4($a0)
ffffffff80104d78:	30630007 	andi	$v1,$v1,0x7
ffffffff80104d7c:	00031880 	sll	$v1,$v1,0x2
ffffffff80104d80:	3c028011 	lui	$v0,0x8011
ffffffff80104d84:	00431021 	addu	$v0,$v0,$v1
ffffffff80104d88:	8c4290f8 	lw	$v0,-28424($v0)
ffffffff80104d8c:	0040f809 	jalr	$v0
ffffffff80104d90:	00000000 	nop
ffffffff80104d94:	8fbf0010 	lw	$ra,16($sp)
ffffffff80104d98:	03e00008 	jr	$ra
ffffffff80104d9c:	27bd0018 	addiu	$sp,$sp,24

ffffffff80104da0 <semFlush>:
ffffffff80104da0:	3c028011 	lui	$v0,0x8011
ffffffff80104da4:	8c429198 	lw	$v0,-28264($v0)
ffffffff80104da8:	27bdffe8 	addiu	$sp,$sp,-24
ffffffff80104dac:	afbf0010 	sw	$ra,16($sp)
ffffffff80104db0:	10400004 	beqz	$v0,ffffffff80104dc4 <semFlush+0x24>
ffffffff80104db4:	00801825 	move	$v1,$a0
ffffffff80104db8:	8fbf0010 	lw	$ra,16($sp)
ffffffff80104dbc:	080413ce 	j	ffffffff80104f38 <semFlushDefer>
ffffffff80104dc0:	27bd0018 	addiu	$sp,$sp,24
ffffffff80104dc4:	90630004 	lbu	$v1,4($v1)
ffffffff80104dc8:	30630007 	andi	$v1,$v1,0x7
ffffffff80104dcc:	00031880 	sll	$v1,$v1,0x2
ffffffff80104dd0:	3c028011 	lui	$v0,0x8011
ffffffff80104dd4:	00431021 	addu	$v0,$v0,$v1
ffffffff80104dd8:	8c4290d8 	lw	$v0,-28456($v0)
ffffffff80104ddc:	0040f809 	jalr	$v0
ffffffff80104de0:	00000000 	nop
ffffffff80104de4:	8fbf0010 	lw	$ra,16($sp)
ffffffff80104de8:	03e00008 	jr	$ra
ffffffff80104dec:	27bd0018 	addiu	$sp,$sp,24

ffffffff80104df0 <semDelete>:
ffffffff80104df0:	27bdffe8 	addiu	$sp,$sp,-24
ffffffff80104df4:	afbf0010 	sw	$ra,16($sp)
ffffffff80104df8:	8fbf0010 	lw	$ra,16($sp)
ffffffff80104dfc:	24050001 	li	$a1,1
ffffffff80104e00:	08041388 	j	ffffffff80104e20 <semDestroy>
ffffffff80104e04:	27bd0018 	addiu	$sp,$sp,24

ffffffff80104e08 <semTerminal>:
ffffffff80104e08:	27bdffe8 	addiu	$sp,$sp,-24
ffffffff80104e0c:	afbf0010 	sw	$ra,16($sp)
ffffffff80104e10:	8fbf0010 	lw	$ra,16($sp)
ffffffff80104e14:	00002825 	move	$a1,$zero
ffffffff80104e18:	08041388 	j	ffffffff80104e20 <semDestroy>
ffffffff80104e1c:	27bd0018 	addiu	$sp,$sp,24

ffffffff80104e20 <semDestroy>:
ffffffff80104e20:	27bdffe0 	addiu	$sp,$sp,-32
ffffffff80104e24:	afb00010 	sw	$s0,16($sp)
ffffffff80104e28:	00808025 	move	$s0,$a0
ffffffff80104e2c:	afb20018 	sw	$s2,24($sp)
ffffffff80104e30:	afb10014 	sw	$s1,20($sp)
ffffffff80104e34:	afbf001c 	sw	$ra,28($sp)
ffffffff80104e38:	0c041ef2 	jal	ffffffff80107bc8 <intLock>
ffffffff80104e3c:	00a09025 	move	$s2,$a1
ffffffff80104e40:	8e050000 	lw	$a1,0($s0)
ffffffff80104e44:	3c038011 	lui	$v1,0x8011
ffffffff80104e48:	8c6390d4 	lw	$v1,-28460($v1)
ffffffff80104e4c:	00408825 	move	$s1,$v0
ffffffff80104e50:	02002025 	move	$a0,$s0
ffffffff80104e54:	14a30018 	bne	$a1,$v1,ffffffff80104eb8 <semDestroy+0x98>
ffffffff80104e58:	24020001 	li	$v0,1
ffffffff80104e5c:	0c041ad3 	jal	ffffffff80106b4c <objCoreTerminate>
ffffffff80104e60:	00000000 	nop
ffffffff80104e64:	24020001 	li	$v0,1
ffffffff80104e68:	3c018011 	lui	$at,0x8011
ffffffff80104e6c:	ac229198 	sw	$v0,-28264($at)
ffffffff80104e70:	0c041eff 	jal	ffffffff80107bfc <intUnlock>
ffffffff80104e74:	02202025 	move	$a0,$s1
ffffffff80104e78:	0c040c9b 	jal	ffffffff8010326c <kernelSemDelete>
ffffffff80104e7c:	02002025 	move	$a0,$s0
ffffffff80104e80:	3c038011 	lui	$v1,0x8011
ffffffff80104e84:	8c63919c 	lw	$v1,-28260($v1)
ffffffff80104e88:	8c62005c 	lw	$v0,92($v1)
ffffffff80104e8c:	24420001 	addiu	$v0,$v0,1
ffffffff80104e90:	0c041df5 	jal	ffffffff801077d4 <kernelExit>
ffffffff80104e94:	ac62005c 	sw	$v0,92($v1)
ffffffff80104e98:	12400004 	beqz	$s2,ffffffff80104eac <semDestroy+0x8c>
ffffffff80104e9c:	02002825 	move	$a1,$s0
ffffffff80104ea0:	3c048011 	lui	$a0,0x8011
ffffffff80104ea4:	0c041ac2 	jal	ffffffff80106b08 <objFree>
ffffffff80104ea8:	8c8490d4 	lw	$a0,-28460($a0)
ffffffff80104eac:	0c04182a 	jal	ffffffff801060a8 <taskUnsafe>
ffffffff80104eb0:	00000000 	nop
ffffffff80104eb4:	00001025 	move	$v0,$zero
ffffffff80104eb8:	8fbf001c 	lw	$ra,28($sp)
ffffffff80104ebc:	8fb20018 	lw	$s2,24($sp)
ffffffff80104ec0:	8fb10014 	lw	$s1,20($sp)
ffffffff80104ec4:	8fb00010 	lw	$s0,16($sp)
ffffffff80104ec8:	03e00008 	jr	$ra
ffffffff80104ecc:	27bd0020 	addiu	$sp,$sp,32

ffffffff80104ed0 <semGiveDefer>:
ffffffff80104ed0:	27bdffe8 	addiu	$sp,$sp,-24
ffffffff80104ed4:	afbf0010 	sw	$ra,16($sp)
ffffffff80104ed8:	00802825 	move	$a1,$a0
ffffffff80104edc:	8ca40000 	lw	$a0,0($a1)
ffffffff80104ee0:	3c038011 	lui	$v1,0x8011
ffffffff80104ee4:	8c6390d4 	lw	$v1,-28460($v1)
ffffffff80104ee8:	14830010 	bne	$a0,$v1,ffffffff80104f2c <semGiveDefer+0x5c>
ffffffff80104eec:	24020001 	li	$v0,1
ffffffff80104ef0:	90a30004 	lbu	$v1,4($a1)
ffffffff80104ef4:	30630007 	andi	$v1,$v1,0x7
ffffffff80104ef8:	00031880 	sll	$v1,$v1,0x2
ffffffff80104efc:	3c048011 	lui	$a0,0x8011
ffffffff80104f00:	00832021 	addu	$a0,$a0,$v1
ffffffff80104f04:	8c849138 	lw	$a0,-28360($a0)
ffffffff80104f08:	50800009 	beqzl	$a0,ffffffff80104f30 <semGiveDefer+0x60>
ffffffff80104f0c:	8fbf0010 	lw	$ra,16($sp)
ffffffff80104f10:	90a20004 	lbu	$v0,4($a1)
ffffffff80104f14:	00021080 	sll	$v0,$v0,0x2
ffffffff80104f18:	3c048011 	lui	$a0,0x8011
ffffffff80104f1c:	00822021 	addu	$a0,$a0,$v0
ffffffff80104f20:	0c040f26 	jal	ffffffff80103c98 <workQAdd1>
ffffffff80104f24:	8c849138 	lw	$a0,-28360($a0)
ffffffff80104f28:	00001025 	move	$v0,$zero
ffffffff80104f2c:	8fbf0010 	lw	$ra,16($sp)
ffffffff80104f30:	03e00008 	jr	$ra
ffffffff80104f34:	27bd0018 	addiu	$sp,$sp,24

ffffffff80104f38 <semFlushDefer>:
ffffffff80104f38:	27bdffe8 	addiu	$sp,$sp,-24
ffffffff80104f3c:	afbf0010 	sw	$ra,16($sp)
ffffffff80104f40:	00802825 	move	$a1,$a0
ffffffff80104f44:	8ca40000 	lw	$a0,0($a1)
ffffffff80104f48:	3c038011 	lui	$v1,0x8011
ffffffff80104f4c:	8c6390d4 	lw	$v1,-28460($v1)
ffffffff80104f50:	14830010 	bne	$a0,$v1,ffffffff80104f94 <semFlushDefer+0x5c>
ffffffff80104f54:	24020001 	li	$v0,1
ffffffff80104f58:	90a30004 	lbu	$v1,4($a1)
ffffffff80104f5c:	30630007 	andi	$v1,$v1,0x7
ffffffff80104f60:	00031880 	sll	$v1,$v1,0x2
ffffffff80104f64:	3c048011 	lui	$a0,0x8011
ffffffff80104f68:	00832021 	addu	$a0,$a0,$v1
ffffffff80104f6c:	8c849118 	lw	$a0,-28392($a0)
ffffffff80104f70:	50800009 	beqzl	$a0,ffffffff80104f98 <semFlushDefer+0x60>
ffffffff80104f74:	8fbf0010 	lw	$ra,16($sp)
ffffffff80104f78:	90a20004 	lbu	$v0,4($a1)
ffffffff80104f7c:	00021080 	sll	$v0,$v0,0x2
ffffffff80104f80:	3c048011 	lui	$a0,0x8011
ffffffff80104f84:	00822021 	addu	$a0,$a0,$v0
ffffffff80104f88:	0c040f26 	jal	ffffffff80103c98 <workQAdd1>
ffffffff80104f8c:	8c849158 	lw	$a0,-28328($a0)
ffffffff80104f90:	00001025 	move	$v0,$zero
ffffffff80104f94:	8fbf0010 	lw	$ra,16($sp)
ffffffff80104f98:	03e00008 	jr	$ra
ffffffff80104f9c:	27bd0018 	addiu	$sp,$sp,24

ffffffff80104fa0 <semInvalid>:
ffffffff80104fa0:	03e00008 	jr	$ra
ffffffff80104fa4:	24020001 	li	$v0,1

ffffffff80104fa8 <semQInit>:
ffffffff80104fa8:	27bdffd8 	addiu	$sp,$sp,-40
ffffffff80104fac:	00801825 	move	$v1,$a0
ffffffff80104fb0:	30a50003 	andi	$a1,$a1,0x3
ffffffff80104fb4:	afb00020 	sw	$s0,32($sp)
ffffffff80104fb8:	afbf0024 	sw	$ra,36($sp)
ffffffff80104fbc:	24640008 	addiu	$a0,$v1,8
ffffffff80104fc0:	10a00006 	beqz	$a1,ffffffff80104fdc <semQInit+0x34>
ffffffff80104fc4:	00008025 	move	$s0,$zero
ffffffff80104fc8:	24020001 	li	$v0,1
ffffffff80104fcc:	10a20010 	beq	$a1,$v0,ffffffff80105010 <semQInit+0x68>
ffffffff80104fd0:	24080003 	li	$t0,3
ffffffff80104fd4:	08041410 	j	ffffffff80105040 <semQInit+0x98>
ffffffff80104fd8:	24100001 	li	$s0,1
ffffffff80104fdc:	3c058011 	lui	$a1,0x8011
ffffffff80104fe0:	8ca591f8 	lw	$a1,-28168($a1)
ffffffff80104fe4:	24030003 	li	$v1,3
ffffffff80104fe8:	24080004 	li	$t0,4
ffffffff80104fec:	24020005 	li	$v0,5
ffffffff80104ff0:	24060001 	li	$a2,1
ffffffff80104ff4:	24070002 	li	$a3,2
ffffffff80104ff8:	afa30010 	sw	$v1,16($sp)
ffffffff80104ffc:	afa80014 	sw	$t0,20($sp)
ffffffff80105000:	0c041a34 	jal	ffffffff801068d0 <qInit>
ffffffff80105004:	afa20018 	sw	$v0,24($sp)
ffffffff80105008:	08041411 	j	ffffffff80105044 <semQInit+0x9c>
ffffffff8010500c:	02001025 	move	$v0,$s0
ffffffff80105010:	3c058011 	lui	$a1,0x8011
ffffffff80105014:	8ca59278 	lw	$a1,-28040($a1)
ffffffff80105018:	24020004 	li	$v0,4
ffffffff8010501c:	24030005 	li	$v1,5
ffffffff80105020:	24060001 	li	$a2,1
ffffffff80105024:	24070002 	li	$a3,2
ffffffff80105028:	afa80010 	sw	$t0,16($sp)
ffffffff8010502c:	afa20014 	sw	$v0,20($sp)
ffffffff80105030:	0c041a34 	jal	ffffffff801068d0 <qInit>
ffffffff80105034:	afa30018 	sw	$v1,24($sp)
ffffffff80105038:	08041411 	j	ffffffff80105044 <semQInit+0x9c>
ffffffff8010503c:	02001025 	move	$v0,$s0
ffffffff80105040:	02001025 	move	$v0,$s0
ffffffff80105044:	8fbf0024 	lw	$ra,36($sp)
ffffffff80105048:	8fb00020 	lw	$s0,32($sp)
ffffffff8010504c:	03e00008 	jr	$ra
ffffffff80105050:	27bd0028 	addiu	$sp,$sp,40

ffffffff80105054 <semQFlush>:
ffffffff80105054:	27bdffe0 	addiu	$sp,$sp,-32
ffffffff80105058:	afb10014 	sw	$s1,20($sp)
ffffffff8010505c:	afb00010 	sw	$s0,16($sp)
ffffffff80105060:	afbf0018 	sw	$ra,24($sp)
ffffffff80105064:	0c041ef2 	jal	ffffffff80107bc8 <intLock>
ffffffff80105068:	00808825 	move	$s1,$a0
ffffffff8010506c:	00408025 	move	$s0,$v0
ffffffff80105070:	8e230000 	lw	$v1,0($s1)
ffffffff80105074:	3c028011 	lui	$v0,0x8011
ffffffff80105078:	8c4290d4 	lw	$v0,-28460($v0)
ffffffff8010507c:	10620003 	beq	$v1,$v0,ffffffff8010508c <semQFlush+0x38>
ffffffff80105080:	02002025 	move	$a0,$s0
ffffffff80105084:	0c041eff 	jal	ffffffff80107bfc <intUnlock>
ffffffff80105088:	00000000 	nop
ffffffff8010508c:	8e220008 	lw	$v0,8($s1)
ffffffff80105090:	54400005 	bnezl	$v0,ffffffff801050a8 <semQFlush+0x54>
ffffffff80105094:	24020001 	li	$v0,1
ffffffff80105098:	0c041eff 	jal	ffffffff80107bfc <intUnlock>
ffffffff8010509c:	02002025 	move	$a0,$s0
ffffffff801050a0:	08041433 	j	ffffffff801050cc <semQFlush+0x78>
ffffffff801050a4:	8fbf0018 	lw	$ra,24($sp)
ffffffff801050a8:	3c018011 	lui	$at,0x8011
ffffffff801050ac:	ac229198 	sw	$v0,-28264($at)
ffffffff801050b0:	0c041eff 	jal	ffffffff80107bfc <intUnlock>
ffffffff801050b4:	02002025 	move	$a0,$s0
ffffffff801050b8:	0c040cd2 	jal	ffffffff80103348 <kernelPendQFlush>
ffffffff801050bc:	26240008 	addiu	$a0,$s1,8
ffffffff801050c0:	0c041df5 	jal	ffffffff801077d4 <kernelExit>
ffffffff801050c4:	00000000 	nop
ffffffff801050c8:	8fbf0018 	lw	$ra,24($sp)
ffffffff801050cc:	8fb10014 	lw	$s1,20($sp)
ffffffff801050d0:	8fb00010 	lw	$s0,16($sp)
ffffffff801050d4:	00001025 	move	$v0,$zero
ffffffff801050d8:	03e00008 	jr	$ra
ffffffff801050dc:	27bd0020 	addiu	$sp,$sp,32

ffffffff801050e0 <semQFlushDefer>:
ffffffff801050e0:	03e00008 	jr	$ra
	...

ffffffff801050f0 <semMLibInit>:
ffffffff801050f0:	3c038011 	lui	$v1,0x8011
ffffffff801050f4:	8c639370 	lw	$v1,-27792($v1)
ffffffff801050f8:	27bdffe8 	addiu	$sp,$sp,-24
ffffffff801050fc:	14600014 	bnez	$v1,ffffffff80105150 <semMLibInit+0x60>
ffffffff80105100:	afbf0010 	sw	$ra,16($sp)
ffffffff80105104:	3c038010 	lui	$v1,0x8010
ffffffff80105108:	246353dc 	addiu	$v1,$v1,21468
ffffffff8010510c:	3c028010 	lui	$v0,0x8010
ffffffff80105110:	244252b0 	addiu	$v0,$v0,21168
ffffffff80105114:	3c018011 	lui	$at,0x8011
ffffffff80105118:	ac2390fc 	sw	$v1,-28420($at)
ffffffff8010511c:	3c018011 	lui	$at,0x8011
ffffffff80105120:	ac2290dc 	sw	$v0,-28452($at)
ffffffff80105124:	0c04132c 	jal	ffffffff80104cb0 <semLibInit>
ffffffff80105128:	00000000 	nop
ffffffff8010512c:	14400006 	bnez	$v0,ffffffff80105148 <semMLibInit+0x58>
ffffffff80105130:	24030001 	li	$v1,1
ffffffff80105134:	24020001 	li	$v0,1
ffffffff80105138:	3c018011 	lui	$at,0x8011
ffffffff8010513c:	ac229370 	sw	$v0,-27792($at)
ffffffff80105140:	08041455 	j	ffffffff80105154 <semMLibInit+0x64>
ffffffff80105144:	8fbf0010 	lw	$ra,16($sp)
ffffffff80105148:	3c038011 	lui	$v1,0x8011
ffffffff8010514c:	8c639370 	lw	$v1,-27792($v1)
ffffffff80105150:	8fbf0010 	lw	$ra,16($sp)
ffffffff80105154:	2c620001 	sltiu	$v0,$v1,1
ffffffff80105158:	03e00008 	jr	$ra
ffffffff8010515c:	27bd0018 	addiu	$sp,$sp,24

ffffffff80105160 <semMCreate>:
ffffffff80105160:	3c028011 	lui	$v0,0x8011
ffffffff80105164:	8c429370 	lw	$v0,-27792($v0)
ffffffff80105168:	27bdffe0 	addiu	$sp,$sp,-32
ffffffff8010516c:	afb10014 	sw	$s1,20($sp)
ffffffff80105170:	afbf0018 	sw	$ra,24($sp)
ffffffff80105174:	afb00010 	sw	$s0,16($sp)
ffffffff80105178:	14400005 	bnez	$v0,ffffffff80105190 <semMCreate+0x30>
ffffffff8010517c:	00808825 	move	$s1,$a0
ffffffff80105180:	0c04143c 	jal	ffffffff801050f0 <semMLibInit>
ffffffff80105184:	00000000 	nop
ffffffff80105188:	14400012 	bnez	$v0,ffffffff801051d4 <semMCreate+0x74>
ffffffff8010518c:	00001025 	move	$v0,$zero
ffffffff80105190:	3c048011 	lui	$a0,0x8011
ffffffff80105194:	8c8490d4 	lw	$a0,-28460($a0)
ffffffff80105198:	0c041a9b 	jal	ffffffff80106a6c <objAlloc>
ffffffff8010519c:	00000000 	nop
ffffffff801051a0:	00408025 	move	$s0,$v0
ffffffff801051a4:	02202825 	move	$a1,$s1
ffffffff801051a8:	1200000a 	beqz	$s0,ffffffff801051d4 <semMCreate+0x74>
ffffffff801051ac:	02002025 	move	$a0,$s0
ffffffff801051b0:	0c04147a 	jal	ffffffff801051e8 <semMInit>
ffffffff801051b4:	00000000 	nop
ffffffff801051b8:	50400006 	beqzl	$v0,ffffffff801051d4 <semMCreate+0x74>
ffffffff801051bc:	02001025 	move	$v0,$s0
ffffffff801051c0:	3c048011 	lui	$a0,0x8011
ffffffff801051c4:	8c8490d4 	lw	$a0,-28460($a0)
ffffffff801051c8:	0c041ac2 	jal	ffffffff80106b08 <objFree>
ffffffff801051cc:	02002825 	move	$a1,$s0
ffffffff801051d0:	00001025 	move	$v0,$zero
ffffffff801051d4:	8fbf0018 	lw	$ra,24($sp)
ffffffff801051d8:	8fb10014 	lw	$s1,20($sp)
ffffffff801051dc:	8fb00010 	lw	$s0,16($sp)
ffffffff801051e0:	03e00008 	jr	$ra
ffffffff801051e4:	27bd0020 	addiu	$sp,$sp,32

ffffffff801051e8 <semMInit>:
ffffffff801051e8:	3c028011 	lui	$v0,0x8011
ffffffff801051ec:	8c429370 	lw	$v0,-27792($v0)
ffffffff801051f0:	27bdffe0 	addiu	$sp,$sp,-32
ffffffff801051f4:	afb10014 	sw	$s1,20($sp)
ffffffff801051f8:	afb00010 	sw	$s0,16($sp)
ffffffff801051fc:	afbf0018 	sw	$ra,24($sp)
ffffffff80105200:	00a08025 	move	$s0,$a1
ffffffff80105204:	14400005 	bnez	$v0,ffffffff8010521c <semMInit+0x34>
ffffffff80105208:	00808825 	move	$s1,$a0
ffffffff8010520c:	0c04143c 	jal	ffffffff801050f0 <semMLibInit>
ffffffff80105210:	00000000 	nop
ffffffff80105214:	14400012 	bnez	$v0,ffffffff80105260 <semMInit+0x78>
ffffffff80105218:	24020001 	li	$v0,1
ffffffff8010521c:	3204000b 	andi	$a0,$s0,0xb
ffffffff80105220:	24030008 	li	$v1,8
ffffffff80105224:	1083000e 	beq	$a0,$v1,ffffffff80105260 <semMInit+0x78>
ffffffff80105228:	24020001 	li	$v0,1
ffffffff8010522c:	02202025 	move	$a0,$s1
ffffffff80105230:	0c0413ea 	jal	ffffffff80104fa8 <semQInit>
ffffffff80105234:	02002825 	move	$a1,$s0
ffffffff80105238:	02202025 	move	$a0,$s1
ffffffff8010523c:	10400003 	beqz	$v0,ffffffff8010524c <semMInit+0x64>
ffffffff80105240:	02002825 	move	$a1,$s0
ffffffff80105244:	08041498 	j	ffffffff80105260 <semMInit+0x78>
ffffffff80105248:	24020001 	li	$v0,1
ffffffff8010524c:	8fbf0018 	lw	$ra,24($sp)
ffffffff80105250:	8fb10014 	lw	$s1,20($sp)
ffffffff80105254:	8fb00010 	lw	$s0,16($sp)
ffffffff80105258:	0804149d 	j	ffffffff80105274 <semMCoreInit>
ffffffff8010525c:	27bd0020 	addiu	$sp,$sp,32
ffffffff80105260:	8fbf0018 	lw	$ra,24($sp)
ffffffff80105264:	8fb10014 	lw	$s1,20($sp)
ffffffff80105268:	8fb00010 	lw	$s0,16($sp)
ffffffff8010526c:	03e00008 	jr	$ra
ffffffff80105270:	27bd0020 	addiu	$sp,$sp,32

ffffffff80105274 <semMCoreInit>:
ffffffff80105274:	00801825 	move	$v1,$a0
ffffffff80105278:	27bdffe8 	addiu	$sp,$sp,-24
ffffffff8010527c:	24020001 	li	$v0,1
ffffffff80105280:	afbf0010 	sw	$ra,16($sp)
ffffffff80105284:	a0620004 	sb	$v0,4($v1)
ffffffff80105288:	a0650005 	sb	$a1,5($v1)
ffffffff8010528c:	3c058011 	lui	$a1,0x8011
ffffffff80105290:	8ca590d4 	lw	$a1,-28460($a1)
ffffffff80105294:	ac600018 	sw	$zero,24($v1)
ffffffff80105298:	0c041a96 	jal	ffffffff80106a58 <objCoreInit>
ffffffff8010529c:	a4600006 	sh	$zero,6($v1)
ffffffff801052a0:	8fbf0010 	lw	$ra,16($sp)
ffffffff801052a4:	00001025 	move	$v0,$zero
ffffffff801052a8:	03e00008 	jr	$ra
ffffffff801052ac:	27bd0018 	addiu	$sp,$sp,24

ffffffff801052b0 <semMGive>:
ffffffff801052b0:	27bdffe0 	addiu	$sp,$sp,-32
ffffffff801052b4:	afb10014 	sw	$s1,20($sp)
ffffffff801052b8:	afb00010 	sw	$s0,16($sp)
ffffffff801052bc:	afbf0018 	sw	$ra,24($sp)
ffffffff801052c0:	0c041ef2 	jal	ffffffff80107bc8 <intLock>
ffffffff801052c4:	00808025 	move	$s0,$a0
ffffffff801052c8:	00403025 	move	$a2,$v0
ffffffff801052cc:	8e030000 	lw	$v1,0($s0)
ffffffff801052d0:	3c028011 	lui	$v0,0x8011
ffffffff801052d4:	8c4290d4 	lw	$v0,-28460($v0)
ffffffff801052d8:	14620006 	bne	$v1,$v0,ffffffff801052f4 <semMGive+0x44>
ffffffff801052dc:	00008825 	move	$s1,$zero
ffffffff801052e0:	3c058011 	lui	$a1,0x8011
ffffffff801052e4:	8ca5919c 	lw	$a1,-28260($a1)
ffffffff801052e8:	8e020018 	lw	$v0,24($s0)
ffffffff801052ec:	50a20005 	beql	$a1,$v0,ffffffff80105304 <semMGive+0x54>
ffffffff801052f0:	96020006 	lhu	$v0,6($s0)
ffffffff801052f4:	0c041eff 	jal	ffffffff80107bfc <intUnlock>
ffffffff801052f8:	00c02025 	move	$a0,$a2
ffffffff801052fc:	080414f2 	j	ffffffff801053c8 <semMGive+0x118>
ffffffff80105300:	24020001 	li	$v0,1
ffffffff80105304:	50400005 	beqzl	$v0,ffffffff8010531c <semMGive+0x6c>
ffffffff80105308:	92040005 	lbu	$a0,5($s0)
ffffffff8010530c:	3401ffff 	li	$at,0xffff
ffffffff80105310:	00221021 	addu	$v0,$at,$v0
ffffffff80105314:	080414e2 	j	ffffffff80105388 <semMGive+0xd8>
ffffffff80105318:	a6020006 	sh	$v0,6($s0)
ffffffff8010531c:	30820008 	andi	$v0,$a0,0x8
ffffffff80105320:	10400007 	beqz	$v0,ffffffff80105340 <semMGive+0x90>
ffffffff80105324:	24030004 	li	$v1,4
ffffffff80105328:	8ca20048 	lw	$v0,72($a1)
ffffffff8010532c:	00008825 	move	$s1,$zero
ffffffff80105330:	2442ffff 	addiu	$v0,$v0,-1
ffffffff80105334:	aca20048 	sw	$v0,72($a1)
ffffffff80105338:	92040005 	lbu	$a0,5($s0)
ffffffff8010533c:	0062880a 	movz	$s1,$v1,$v0
ffffffff80105340:	8e020008 	lw	$v0,8($s0)
ffffffff80105344:	36230001 	ori	$v1,$s1,0x1
ffffffff80105348:	30840004 	andi	$a0,$a0,0x4
ffffffff8010534c:	0062880b 	movn	$s1,$v1,$v0
ffffffff80105350:	1080000b 	beqz	$a0,ffffffff80105380 <semMGive+0xd0>
ffffffff80105354:	ae020018 	sw	$v0,24($s0)
ffffffff80105358:	3c048011 	lui	$a0,0x8011
ffffffff8010535c:	8c84919c 	lw	$a0,-28260($a0)
ffffffff80105360:	8c82005c 	lw	$v0,92($a0)
ffffffff80105364:	2442ffff 	addiu	$v0,$v0,-1
ffffffff80105368:	ac82005c 	sw	$v0,92($a0)
ffffffff8010536c:	8c83005c 	lw	$v1,92($a0)
ffffffff80105370:	14600003 	bnez	$v1,ffffffff80105380 <semMGive+0xd0>
ffffffff80105374:	36220002 	ori	$v0,$s1,0x2
ffffffff80105378:	8c830060 	lw	$v1,96($a0)
ffffffff8010537c:	0043880b 	movn	$s1,$v0,$v1
ffffffff80105380:	16200005 	bnez	$s1,ffffffff80105398 <semMGive+0xe8>
ffffffff80105384:	24020001 	li	$v0,1
ffffffff80105388:	0c041eff 	jal	ffffffff80107bfc <intUnlock>
ffffffff8010538c:	00c02025 	move	$a0,$a2
ffffffff80105390:	080414f2 	j	ffffffff801053c8 <semMGive+0x118>
ffffffff80105394:	00001025 	move	$v0,$zero
ffffffff80105398:	3c018011 	lui	$at,0x8011
ffffffff8010539c:	ac229198 	sw	$v0,-28264($at)
ffffffff801053a0:	0c041eff 	jal	ffffffff80107bfc <intUnlock>
ffffffff801053a4:	00c02025 	move	$a0,$a2
ffffffff801053a8:	8fbf0018 	lw	$ra,24($sp)
ffffffff801053ac:	02002025 	move	$a0,$s0
ffffffff801053b0:	3c018011 	lui	$at,0x8011
ffffffff801053b4:	ac319180 	sw	$s1,-28288($at)
ffffffff801053b8:	8fb00010 	lw	$s0,16($sp)
ffffffff801053bc:	8fb10014 	lw	$s1,20($sp)
ffffffff801053c0:	0804153f 	j	ffffffff801054fc <semMGiveKern>
ffffffff801053c4:	27bd0020 	addiu	$sp,$sp,32
ffffffff801053c8:	8fbf0018 	lw	$ra,24($sp)
ffffffff801053cc:	8fb10014 	lw	$s1,20($sp)
ffffffff801053d0:	8fb00010 	lw	$s0,16($sp)
ffffffff801053d4:	03e00008 	jr	$ra
ffffffff801053d8:	27bd0020 	addiu	$sp,$sp,32

ffffffff801053dc <semMTake>:
ffffffff801053dc:	27bdffe0 	addiu	$sp,$sp,-32
ffffffff801053e0:	afb10014 	sw	$s1,20($sp)
ffffffff801053e4:	afb00010 	sw	$s0,16($sp)
ffffffff801053e8:	afbf001c 	sw	$ra,28($sp)
ffffffff801053ec:	00808025 	move	$s0,$a0
ffffffff801053f0:	afb20018 	sw	$s2,24($sp)
ffffffff801053f4:	0c041ef2 	jal	ffffffff80107bc8 <intLock>
ffffffff801053f8:	00a08825 	move	$s1,$a1
ffffffff801053fc:	00402025 	move	$a0,$v0
ffffffff80105400:	8e030000 	lw	$v1,0($s0)
ffffffff80105404:	3c028011 	lui	$v0,0x8011
ffffffff80105408:	8c4290d4 	lw	$v0,-28460($v0)
ffffffff8010540c:	50620005 	beql	$v1,$v0,ffffffff80105424 <semMTake+0x48>
ffffffff80105410:	8e030018 	lw	$v1,24($s0)
ffffffff80105414:	0c041eff 	jal	ffffffff80107bfc <intUnlock>
ffffffff80105418:	00000000 	nop
ffffffff8010541c:	08041539 	j	ffffffff801054e4 <semMTake+0x108>
ffffffff80105420:	24020001 	li	$v0,1
ffffffff80105424:	14600014 	bnez	$v1,ffffffff80105478 <semMTake+0x9c>
ffffffff80105428:	00000000 	nop
ffffffff8010542c:	92050005 	lbu	$a1,5($s0)
ffffffff80105430:	3c038011 	lui	$v1,0x8011
ffffffff80105434:	8c63919c 	lw	$v1,-28260($v1)
ffffffff80105438:	30a20008 	andi	$v0,$a1,0x8
ffffffff8010543c:	10400005 	beqz	$v0,ffffffff80105454 <semMTake+0x78>
ffffffff80105440:	ae030018 	sw	$v1,24($s0)
ffffffff80105444:	8c620048 	lw	$v0,72($v1)
ffffffff80105448:	24420001 	addiu	$v0,$v0,1
ffffffff8010544c:	ac620048 	sw	$v0,72($v1)
ffffffff80105450:	92050005 	lbu	$a1,5($s0)
ffffffff80105454:	30a20004 	andi	$v0,$a1,0x4
ffffffff80105458:	1040000e 	beqz	$v0,ffffffff80105494 <semMTake+0xb8>
ffffffff8010545c:	00000000 	nop
ffffffff80105460:	3c038011 	lui	$v1,0x8011
ffffffff80105464:	8c63919c 	lw	$v1,-28260($v1)
ffffffff80105468:	8c62005c 	lw	$v0,92($v1)
ffffffff8010546c:	24420001 	addiu	$v0,$v0,1
ffffffff80105470:	08041525 	j	ffffffff80105494 <semMTake+0xb8>
ffffffff80105474:	ac62005c 	sw	$v0,92($v1)
ffffffff80105478:	3c028011 	lui	$v0,0x8011
ffffffff8010547c:	8c42919c 	lw	$v0,-28260($v0)
ffffffff80105480:	14620008 	bne	$v1,$v0,ffffffff801054a4 <semMTake+0xc8>
ffffffff80105484:	24020001 	li	$v0,1
ffffffff80105488:	96020006 	lhu	$v0,6($s0)
ffffffff8010548c:	24420001 	addiu	$v0,$v0,1
ffffffff80105490:	a6020006 	sh	$v0,6($s0)
ffffffff80105494:	0c041eff 	jal	ffffffff80107bfc <intUnlock>
ffffffff80105498:	00000000 	nop
ffffffff8010549c:	08041539 	j	ffffffff801054e4 <semMTake+0x108>
ffffffff801054a0:	00001025 	move	$v0,$zero
ffffffff801054a4:	3c018011 	lui	$at,0x8011
ffffffff801054a8:	ac229198 	sw	$v0,-28264($at)
ffffffff801054ac:	0c041eff 	jal	ffffffff80107bfc <intUnlock>
ffffffff801054b0:	00000000 	nop
ffffffff801054b4:	02002025 	move	$a0,$s0
ffffffff801054b8:	0c041574 	jal	ffffffff801055d0 <semMPendQPut>
ffffffff801054bc:	02202825 	move	$a1,$s1
ffffffff801054c0:	10400005 	beqz	$v0,ffffffff801054d8 <semMTake+0xfc>
ffffffff801054c4:	00000000 	nop
ffffffff801054c8:	0c041df5 	jal	ffffffff801077d4 <kernelExit>
ffffffff801054cc:	00000000 	nop
ffffffff801054d0:	08041539 	j	ffffffff801054e4 <semMTake+0x108>
ffffffff801054d4:	24020001 	li	$v0,1
ffffffff801054d8:	0c041df5 	jal	ffffffff801077d4 <kernelExit>
ffffffff801054dc:	00000000 	nop
ffffffff801054e0:	02401025 	move	$v0,$s2
ffffffff801054e4:	8fbf001c 	lw	$ra,28($sp)
ffffffff801054e8:	8fb20018 	lw	$s2,24($sp)
ffffffff801054ec:	8fb10014 	lw	$s1,20($sp)
ffffffff801054f0:	8fb00010 	lw	$s0,16($sp)
ffffffff801054f4:	03e00008 	jr	$ra
ffffffff801054f8:	27bd0020 	addiu	$sp,$sp,32

ffffffff801054fc <semMGiveKern>:
ffffffff801054fc:	3c058011 	lui	$a1,0x8011
ffffffff80105500:	8ca59180 	lw	$a1,-28288($a1)
ffffffff80105504:	27bdffe8 	addiu	$sp,$sp,-24
ffffffff80105508:	afb00010 	sw	$s0,16($sp)
ffffffff8010550c:	30a20001 	andi	$v0,$a1,0x1
ffffffff80105510:	afbf0014 	sw	$ra,20($sp)
ffffffff80105514:	1040001a 	beqz	$v0,ffffffff80105580 <semMGiveKern+0x84>
ffffffff80105518:	00808025 	move	$s0,$a0
ffffffff8010551c:	0c040d07 	jal	ffffffff8010341c <kernelPendQGet>
ffffffff80105520:	26040008 	addiu	$a0,$s0,8
ffffffff80105524:	8e020018 	lw	$v0,24($s0)
ffffffff80105528:	ac40004c 	sw	$zero,76($v0)
ffffffff8010552c:	92030005 	lbu	$v1,5($s0)
ffffffff80105530:	30620004 	andi	$v0,$v1,0x4
ffffffff80105534:	10400007 	beqz	$v0,ffffffff80105554 <semMGiveKern+0x58>
ffffffff80105538:	30620008 	andi	$v0,$v1,0x8
ffffffff8010553c:	8e030018 	lw	$v1,24($s0)
ffffffff80105540:	8c62005c 	lw	$v0,92($v1)
ffffffff80105544:	24420001 	addiu	$v0,$v0,1
ffffffff80105548:	ac62005c 	sw	$v0,92($v1)
ffffffff8010554c:	92030005 	lbu	$v1,5($s0)
ffffffff80105550:	30620008 	andi	$v0,$v1,0x8
ffffffff80105554:	10400008 	beqz	$v0,ffffffff80105578 <semMGiveKern+0x7c>
ffffffff80105558:	00000000 	nop
ffffffff8010555c:	8e030018 	lw	$v1,24($s0)
ffffffff80105560:	3c058011 	lui	$a1,0x8011
ffffffff80105564:	8ca59180 	lw	$a1,-28288($a1)
ffffffff80105568:	8c620048 	lw	$v0,72($v1)
ffffffff8010556c:	24420001 	addiu	$v0,$v0,1
ffffffff80105570:	08041560 	j	ffffffff80105580 <semMGiveKern+0x84>
ffffffff80105574:	ac620048 	sw	$v0,72($v1)
ffffffff80105578:	3c058011 	lui	$a1,0x8011
ffffffff8010557c:	8ca59180 	lw	$a1,-28288($a1)
ffffffff80105580:	30a20004 	andi	$v0,$a1,0x4
ffffffff80105584:	50400008 	beqzl	$v0,ffffffff801055a8 <semMGiveKern+0xac>
ffffffff80105588:	30a20002 	andi	$v0,$a1,0x2
ffffffff8010558c:	3c048011 	lui	$a0,0x8011
ffffffff80105590:	8c84919c 	lw	$a0,-28260($a0)
ffffffff80105594:	0c040eab 	jal	ffffffff80103aac <kernelPrioritySet>
ffffffff80105598:	8c850044 	lw	$a1,68($a0)
ffffffff8010559c:	3c058011 	lui	$a1,0x8011
ffffffff801055a0:	8ca59180 	lw	$a1,-28288($a1)
ffffffff801055a4:	30a20002 	andi	$v0,$a1,0x2
ffffffff801055a8:	10400006 	beqz	$v0,ffffffff801055c4 <semMGiveKern+0xc8>
ffffffff801055ac:	8fbf0014 	lw	$ra,20($sp)
ffffffff801055b0:	3c048011 	lui	$a0,0x8011
ffffffff801055b4:	8c84919c 	lw	$a0,-28260($a0)
ffffffff801055b8:	0c040cd2 	jal	ffffffff80103348 <kernelPendQFlush>
ffffffff801055bc:	24840060 	addiu	$a0,$a0,96
ffffffff801055c0:	8fbf0014 	lw	$ra,20($sp)
ffffffff801055c4:	8fb00010 	lw	$s0,16($sp)
ffffffff801055c8:	08041df5 	j	ffffffff801077d4 <kernelExit>
ffffffff801055cc:	27bd0018 	addiu	$sp,$sp,24

ffffffff801055d0 <semMPendQPut>:
ffffffff801055d0:	27bdffe8 	addiu	$sp,$sp,-24
ffffffff801055d4:	afb00010 	sw	$s0,16($sp)
ffffffff801055d8:	00808025 	move	$s0,$a0
ffffffff801055dc:	afbf0014 	sw	$ra,20($sp)
ffffffff801055e0:	0c040d33 	jal	ffffffff801034cc <kernelPendQPut>
ffffffff801055e4:	26040008 	addiu	$a0,$s0,8
ffffffff801055e8:	14400012 	bnez	$v0,ffffffff80105634 <semMPendQPut+0x64>
ffffffff801055ec:	24020001 	li	$v0,1
ffffffff801055f0:	92020005 	lbu	$v0,5($s0)
ffffffff801055f4:	30420008 	andi	$v0,$v0,0x8
ffffffff801055f8:	1040000e 	beqz	$v0,ffffffff80105634 <semMPendQPut+0x64>
ffffffff801055fc:	00001025 	move	$v0,$zero
ffffffff80105600:	3c038011 	lui	$v1,0x8011
ffffffff80105604:	8c63919c 	lw	$v1,-28260($v1)
ffffffff80105608:	ac70004c 	sw	$s0,76($v1)
ffffffff8010560c:	8e040018 	lw	$a0,24($s0)
ffffffff80105610:	8c620040 	lw	$v0,64($v1)
ffffffff80105614:	8c860040 	lw	$a2,64($a0)
ffffffff80105618:	00402825 	move	$a1,$v0
ffffffff8010561c:	0046102b 	sltu	$v0,$v0,$a2
ffffffff80105620:	50400004 	beqzl	$v0,ffffffff80105634 <semMPendQPut+0x64>
ffffffff80105624:	00001025 	move	$v0,$zero
ffffffff80105628:	0c040eab 	jal	ffffffff80103aac <kernelPrioritySet>
ffffffff8010562c:	00000000 	nop
ffffffff80105630:	00001025 	move	$v0,$zero
ffffffff80105634:	8fbf0014 	lw	$ra,20($sp)
ffffffff80105638:	8fb00010 	lw	$s0,16($sp)
ffffffff8010563c:	03e00008 	jr	$ra
ffffffff80105640:	27bd0018 	addiu	$sp,$sp,24
	...

ffffffff80105650 <taskLibInit>:
ffffffff80105650:	3c038011 	lui	$v1,0x8011
ffffffff80105654:	8c639190 	lw	$v1,-28272($v1)
ffffffff80105658:	27bdffe0 	addiu	$sp,$sp,-32
ffffffff8010565c:	14600017 	bnez	$v1,ffffffff801056bc <taskLibInit+0x6c>
ffffffff80105660:	afbf0018 	sw	$ra,24($sp)
ffffffff80105664:	3c048011 	lui	$a0,0x8011
ffffffff80105668:	8c849194 	lw	$a0,-28268($a0)
ffffffff8010566c:	3c038010 	lui	$v1,0x8010
ffffffff80105670:	24635a90 	addiu	$v1,$v1,23184
ffffffff80105674:	3c028010 	lui	$v0,0x8010
ffffffff80105678:	24425824 	addiu	$v0,$v0,22564
ffffffff8010567c:	24050170 	li	$a1,368
ffffffff80105680:	24060030 	li	$a2,48
ffffffff80105684:	3c078010 	lui	$a3,0x8010
ffffffff80105688:	24e75734 	addiu	$a3,$a3,22324
ffffffff8010568c:	afa30014 	sw	$v1,20($sp)
ffffffff80105690:	0c041a5f 	jal	ffffffff8010697c <classInit>
ffffffff80105694:	afa20010 	sw	$v0,16($sp)
ffffffff80105698:	14400006 	bnez	$v0,ffffffff801056b4 <taskLibInit+0x64>
ffffffff8010569c:	24030001 	li	$v1,1
ffffffff801056a0:	24020001 	li	$v0,1
ffffffff801056a4:	3c018011 	lui	$at,0x8011
ffffffff801056a8:	ac229190 	sw	$v0,-28272($at)
ffffffff801056ac:	080415b0 	j	ffffffff801056c0 <taskLibInit+0x70>
ffffffff801056b0:	8fbf0018 	lw	$ra,24($sp)
ffffffff801056b4:	3c038011 	lui	$v1,0x8011
ffffffff801056b8:	8c639190 	lw	$v1,-28272($v1)
ffffffff801056bc:	8fbf0018 	lw	$ra,24($sp)
ffffffff801056c0:	2c620001 	sltiu	$v0,$v1,1
ffffffff801056c4:	03e00008 	jr	$ra
ffffffff801056c8:	27bd0020 	addiu	$sp,$sp,32

ffffffff801056cc <taskSpawn>:
ffffffff801056cc:	27bdffd0 	addiu	$sp,$sp,-48
ffffffff801056d0:	8fab0054 	lw	$t3,84($sp)
ffffffff801056d4:	8fa20040 	lw	$v0,64($sp)
ffffffff801056d8:	8fa30044 	lw	$v1,68($sp)
ffffffff801056dc:	8fa80048 	lw	$t0,72($sp)
ffffffff801056e0:	8fa9004c 	lw	$t1,76($sp)
ffffffff801056e4:	8faa0050 	lw	$t2,80($sp)
ffffffff801056e8:	afb00028 	sw	$s0,40($sp)
ffffffff801056ec:	afbf002c 	sw	$ra,44($sp)
ffffffff801056f0:	afa20010 	sw	$v0,16($sp)
ffffffff801056f4:	afa30014 	sw	$v1,20($sp)
ffffffff801056f8:	afa80018 	sw	$t0,24($sp)
ffffffff801056fc:	afa9001c 	sw	$t1,28($sp)
ffffffff80105700:	afaa0020 	sw	$t2,32($sp)
ffffffff80105704:	0c0415cd 	jal	ffffffff80105734 <taskCreate>
ffffffff80105708:	afab0024 	sw	$t3,36($sp)
ffffffff8010570c:	00408025 	move	$s0,$v0
ffffffff80105710:	12000004 	beqz	$s0,ffffffff80105724 <taskSpawn+0x58>
ffffffff80105714:	24020001 	li	$v0,1
ffffffff80105718:	0c04167d 	jal	ffffffff801059f4 <taskActivate>
ffffffff8010571c:	02002025 	move	$a0,$s0
ffffffff80105720:	02001025 	move	$v0,$s0
ffffffff80105724:	8fbf002c 	lw	$ra,44($sp)
ffffffff80105728:	8fb00028 	lw	$s0,40($sp)
ffffffff8010572c:	03e00008 	jr	$ra
ffffffff80105730:	27bd0030 	addiu	$sp,$sp,48

ffffffff80105734 <taskCreate>:
ffffffff80105734:	27bdffb0 	addiu	$sp,$sp,-80
ffffffff80105738:	afb3003c 	sw	$s3,60($sp)
ffffffff8010573c:	afb10034 	sw	$s1,52($sp)
ffffffff80105740:	00809825 	move	$s3,$a0
ffffffff80105744:	00e08825 	move	$s1,$a3
ffffffff80105748:	afb50044 	sw	$s5,68($sp)
ffffffff8010574c:	afb40040 	sw	$s4,64($sp)
ffffffff80105750:	00c0a825 	move	$s5,$a2
ffffffff80105754:	afbf0048 	sw	$ra,72($sp)
ffffffff80105758:	afb20038 	sw	$s2,56($sp)
ffffffff8010575c:	afb00030 	sw	$s0,48($sp)
ffffffff80105760:	2627000f 	addiu	$a3,$s1,15
ffffffff80105764:	00a0a025 	move	$s4,$a1
ffffffff80105768:	00003025 	move	$a2,$zero
ffffffff8010576c:	12600024 	beqz	$s3,ffffffff80105800 <taskCreate+0xcc>
ffffffff80105770:	24020001 	li	$v0,1
ffffffff80105774:	3c048011 	lui	$a0,0x8011
ffffffff80105778:	8c849194 	lw	$a0,-28268($a0)
ffffffff8010577c:	2402fff0 	li	$v0,-16
ffffffff80105780:	00e28824 	and	$s1,$a3,$v0
ffffffff80105784:	0c041aa2 	jal	ffffffff80106a88 <objAllocExtra>
ffffffff80105788:	02202825 	move	$a1,$s1
ffffffff8010578c:	00408025 	move	$s0,$v0
ffffffff80105790:	8fa30064 	lw	$v1,100($sp)
ffffffff80105794:	8fa20060 	lw	$v0,96($sp)
ffffffff80105798:	02119021 	addu	$s2,$s0,$s1
ffffffff8010579c:	afa3001c 	sw	$v1,28($sp)
ffffffff801057a0:	afa20018 	sw	$v0,24($sp)
ffffffff801057a4:	8fa3006c 	lw	$v1,108($sp)
ffffffff801057a8:	8fa20068 	lw	$v0,104($sp)
ffffffff801057ac:	02602825 	move	$a1,$s3
ffffffff801057b0:	afa30024 	sw	$v1,36($sp)
ffffffff801057b4:	afa20020 	sw	$v0,32($sp)
ffffffff801057b8:	8fa30074 	lw	$v1,116($sp)
ffffffff801057bc:	8fa20070 	lw	$v0,112($sp)
ffffffff801057c0:	02803025 	move	$a2,$s4
ffffffff801057c4:	36a70004 	ori	$a3,$s5,0x4
ffffffff801057c8:	02402025 	move	$a0,$s2
ffffffff801057cc:	afb10014 	sw	$s1,20($sp)
ffffffff801057d0:	afa20028 	sw	$v0,40($sp)
ffffffff801057d4:	afa3002c 	sw	$v1,44($sp)
ffffffff801057d8:	0c041609 	jal	ffffffff80105824 <taskInit>
ffffffff801057dc:	afb20010 	sw	$s2,16($sp)
ffffffff801057e0:	10400006 	beqz	$v0,ffffffff801057fc <taskCreate+0xc8>
ffffffff801057e4:	02002825 	move	$a1,$s0
ffffffff801057e8:	3c048011 	lui	$a0,0x8011
ffffffff801057ec:	0c041ac2 	jal	ffffffff80106b08 <objFree>
ffffffff801057f0:	8c849194 	lw	$a0,-28268($a0)
ffffffff801057f4:	08041600 	j	ffffffff80105800 <taskCreate+0xcc>
ffffffff801057f8:	00001025 	move	$v0,$zero
ffffffff801057fc:	02401025 	move	$v0,$s2
ffffffff80105800:	8fbf0048 	lw	$ra,72($sp)
ffffffff80105804:	8fb50044 	lw	$s5,68($sp)
ffffffff80105808:	8fb40040 	lw	$s4,64($sp)
ffffffff8010580c:	8fb3003c 	lw	$s3,60($sp)
ffffffff80105810:	8fb20038 	lw	$s2,56($sp)
ffffffff80105814:	8fb10034 	lw	$s1,52($sp)
ffffffff80105818:	8fb00030 	lw	$s0,48($sp)
ffffffff8010581c:	03e00008 	jr	$ra
ffffffff80105820:	27bd0050 	addiu	$sp,$sp,80

ffffffff80105824 <taskInit>:
ffffffff80105824:	3c028011 	lui	$v0,0x8011
ffffffff80105828:	8c429190 	lw	$v0,-28272($v0)
ffffffff8010582c:	27bdffa0 	addiu	$sp,$sp,-96
ffffffff80105830:	afb60050 	sw	$s6,80($sp)
ffffffff80105834:	afb5004c 	sw	$s5,76($sp)
ffffffff80105838:	afb40048 	sw	$s4,72($sp)
ffffffff8010583c:	afb30044 	sw	$s3,68($sp)
ffffffff80105840:	afb20040 	sw	$s2,64($sp)
ffffffff80105844:	afb1003c 	sw	$s1,60($sp)
ffffffff80105848:	afbf0058 	sw	$ra,88($sp)
ffffffff8010584c:	afb70054 	sw	$s7,84($sp)
ffffffff80105850:	afb00038 	sw	$s0,56($sp)
ffffffff80105854:	00808825 	move	$s1,$a0
ffffffff80105858:	00a0a825 	move	$s5,$a1
ffffffff8010585c:	00c09825 	move	$s3,$a2
ffffffff80105860:	00e0a025 	move	$s4,$a3
ffffffff80105864:	8fb20070 	lw	$s2,112($sp)
ffffffff80105868:	14400005 	bnez	$v0,ffffffff80105880 <taskInit+0x5c>
ffffffff8010586c:	8fb60074 	lw	$s6,116($sp)
ffffffff80105870:	0c041594 	jal	ffffffff80105650 <taskLibInit>
ffffffff80105874:	00000000 	nop
ffffffff80105878:	14400053 	bnez	$v0,ffffffff801059c8 <taskInit+0x1a4>
ffffffff8010587c:	24020001 	li	$v0,1
ffffffff80105880:	24100001 	li	$s0,1
ffffffff80105884:	3c058011 	lui	$a1,0x8011
ffffffff80105888:	8ca59278 	lw	$a1,-28040($a1)
ffffffff8010588c:	ae200050 	sw	$zero,80($s1)
ffffffff80105890:	ae340038 	sw	$s4,56($s1)
ffffffff80105894:	ae330044 	sw	$s3,68($s1)
ffffffff80105898:	ae200034 	sw	$zero,52($s1)
ffffffff8010589c:	ae330040 	sw	$s3,64($s1)
ffffffff801058a0:	ae200048 	sw	$zero,72($s1)
ffffffff801058a4:	ae200054 	sw	$zero,84($s1)
ffffffff801058a8:	ae200058 	sw	$zero,88($s1)
ffffffff801058ac:	ae30003c 	sw	$s0,60($s1)
ffffffff801058b0:	ae20005c 	sw	$zero,92($s1)
ffffffff801058b4:	8fa2007c 	lw	$v0,124($sp)
ffffffff801058b8:	8fa30080 	lw	$v1,128($sp)
ffffffff801058bc:	24080003 	li	$t0,3
ffffffff801058c0:	afa20020 	sw	$v0,32($sp)
ffffffff801058c4:	8fa20084 	lw	$v0,132($sp)
ffffffff801058c8:	afa30024 	sw	$v1,36($sp)
ffffffff801058cc:	8fa30088 	lw	$v1,136($sp)
ffffffff801058d0:	afa20028 	sw	$v0,40($sp)
ffffffff801058d4:	8fa2008c 	lw	$v0,140($sp)
ffffffff801058d8:	24090004 	li	$t1,4
ffffffff801058dc:	240a0005 	li	$t2,5
ffffffff801058e0:	24070002 	li	$a3,2
ffffffff801058e4:	26240060 	addiu	$a0,$s1,96
ffffffff801058e8:	24060001 	li	$a2,1
ffffffff801058ec:	afa3002c 	sw	$v1,44($sp)
ffffffff801058f0:	afa20030 	sw	$v0,48($sp)
ffffffff801058f4:	afa80010 	sw	$t0,16($sp)
ffffffff801058f8:	afa90014 	sw	$t1,20($sp)
ffffffff801058fc:	0c041a34 	jal	ffffffff801068d0 <qInit>
ffffffff80105900:	afaa0018 	sw	$t2,24($sp)
ffffffff80105904:	02562023 	subu	$a0,$s2,$s6
ffffffff80105908:	02c03025 	move	$a2,$s6
ffffffff8010590c:	ae240078 	sw	$a0,120($s1)
ffffffff80105910:	ae24007c 	sw	$a0,124($s1)
ffffffff80105914:	00002825 	move	$a1,$zero
ffffffff80105918:	0c040aed 	jal	ffffffff80102bb4 <memset>
ffffffff8010591c:	ae320074 	sw	$s2,116($s1)
ffffffff80105920:	02202025 	move	$a0,$s1
ffffffff80105924:	0c04179c 	jal	ffffffff80105e70 <taskRegsInit>
ffffffff80105928:	02402825 	move	$a1,$s2
ffffffff8010592c:	8fa20078 	lw	$v0,120($sp)
ffffffff80105930:	27a60020 	addiu	$a2,$sp,32
ffffffff80105934:	02402825 	move	$a1,$s2
ffffffff80105938:	ae220070 	sw	$v0,112($s1)
ffffffff8010593c:	02202025 	move	$a0,$s1
ffffffff80105940:	ae200080 	sw	$zero,128($s1)
ffffffff80105944:	ae200084 	sw	$zero,132($s1)
ffffffff80105948:	ae200088 	sw	$zero,136($s1)
ffffffff8010594c:	ae20008c 	sw	$zero,140($s1)
ffffffff80105950:	ae200090 	sw	$zero,144($s1)
ffffffff80105954:	ae200094 	sw	$zero,148($s1)
ffffffff80105958:	ae200098 	sw	$zero,152($s1)
ffffffff8010595c:	ae20009c 	sw	$zero,156($s1)
ffffffff80105960:	ae2000a0 	sw	$zero,160($s1)
ffffffff80105964:	0c0417b4 	jal	ffffffff80105ed0 <taskArgsSet>
ffffffff80105968:	ae2000a4 	sw	$zero,164($s1)
ffffffff8010596c:	3c018011 	lui	$at,0x8011
ffffffff80105970:	ac309198 	sw	$s0,-28264($at)
ffffffff80105974:	0c040c13 	jal	ffffffff8010304c <kernelSpawn>
ffffffff80105978:	02202025 	move	$a0,$s1
ffffffff8010597c:	3c058011 	lui	$a1,0x8011
ffffffff80105980:	8ca59194 	lw	$a1,-28268($a1)
ffffffff80105984:	0c041a96 	jal	ffffffff80106a58 <objCoreInit>
ffffffff80105988:	26240030 	addiu	$a0,$s1,48
ffffffff8010598c:	0c041df5 	jal	ffffffff801077d4 <kernelExit>
ffffffff80105990:	00000000 	nop
ffffffff80105994:	12a0000a 	beqz	$s5,ffffffff801059c0 <taskInit+0x19c>
ffffffff80105998:	02a02025 	move	$a0,$s5
ffffffff8010599c:	0c040516 	jal	ffffffff80101458 <strlen>
ffffffff801059a0:	00000000 	nop
ffffffff801059a4:	24450001 	addiu	$a1,$v0,1
ffffffff801059a8:	0c0417c5 	jal	ffffffff80105f14 <taskStackAlloc>
ffffffff801059ac:	02202025 	move	$a0,$s1
ffffffff801059b0:	0040b825 	move	$s7,$v0
ffffffff801059b4:	02e02025 	move	$a0,$s7
ffffffff801059b8:	0c04050d 	jal	ffffffff80101434 <strcpy>
ffffffff801059bc:	02a02825 	move	$a1,$s5
ffffffff801059c0:	ae370034 	sw	$s7,52($s1)
ffffffff801059c4:	00001025 	move	$v0,$zero
ffffffff801059c8:	8fbf0058 	lw	$ra,88($sp)
ffffffff801059cc:	8fb70054 	lw	$s7,84($sp)
ffffffff801059d0:	8fb60050 	lw	$s6,80($sp)
ffffffff801059d4:	8fb5004c 	lw	$s5,76($sp)
ffffffff801059d8:	8fb40048 	lw	$s4,72($sp)
ffffffff801059dc:	8fb30044 	lw	$s3,68($sp)
ffffffff801059e0:	8fb20040 	lw	$s2,64($sp)
ffffffff801059e4:	8fb1003c 	lw	$s1,60($sp)
ffffffff801059e8:	8fb00038 	lw	$s0,56($sp)
ffffffff801059ec:	03e00008 	jr	$ra
ffffffff801059f0:	27bd0060 	addiu	$sp,$sp,96

ffffffff801059f4 <taskActivate>:
ffffffff801059f4:	27bdffe8 	addiu	$sp,$sp,-24
ffffffff801059f8:	afbf0010 	sw	$ra,16($sp)
ffffffff801059fc:	8fbf0010 	lw	$ra,16($sp)
ffffffff80105a00:	08041682 	j	ffffffff80105a08 <taskResume>
ffffffff80105a04:	27bd0018 	addiu	$sp,$sp,24

ffffffff80105a08 <taskResume>:
ffffffff80105a08:	3c028011 	lui	$v0,0x8011
ffffffff80105a0c:	8c429198 	lw	$v0,-28264($v0)
ffffffff80105a10:	27bdffe8 	addiu	$sp,$sp,-24
ffffffff80105a14:	afbf0010 	sw	$ra,16($sp)
ffffffff80105a18:	1040000e 	beqz	$v0,ffffffff80105a54 <taskResume+0x4c>
ffffffff80105a1c:	00802825 	move	$a1,$a0
ffffffff80105a20:	10a00018 	beqz	$a1,ffffffff80105a84 <taskResume+0x7c>
ffffffff80105a24:	24020001 	li	$v0,1
ffffffff80105a28:	8ca30030 	lw	$v1,48($a1)
ffffffff80105a2c:	3c028011 	lui	$v0,0x8011
ffffffff80105a30:	8c429194 	lw	$v0,-28268($v0)
ffffffff80105a34:	54620013 	bnel	$v1,$v0,ffffffff80105a84 <taskResume+0x7c>
ffffffff80105a38:	24020001 	li	$v0,1
ffffffff80105a3c:	3c048010 	lui	$a0,0x8010
ffffffff80105a40:	24843210 	addiu	$a0,$a0,12816
ffffffff80105a44:	0c040f26 	jal	ffffffff80103c98 <workQAdd1>
ffffffff80105a48:	00000000 	nop
ffffffff80105a4c:	080416a1 	j	ffffffff80105a84 <taskResume+0x7c>
ffffffff80105a50:	00001025 	move	$v0,$zero
ffffffff80105a54:	10a0000b 	beqz	$a1,ffffffff80105a84 <taskResume+0x7c>
ffffffff80105a58:	00001025 	move	$v0,$zero
ffffffff80105a5c:	8ca50030 	lw	$a1,48($a1)
ffffffff80105a60:	3c038011 	lui	$v1,0x8011
ffffffff80105a64:	8c639194 	lw	$v1,-28268($v1)
ffffffff80105a68:	14a30006 	bne	$a1,$v1,ffffffff80105a84 <taskResume+0x7c>
ffffffff80105a6c:	24020001 	li	$v0,1
ffffffff80105a70:	0c040c84 	jal	ffffffff80103210 <kernelResume>
ffffffff80105a74:	00000000 	nop
ffffffff80105a78:	0c041df5 	jal	ffffffff801077d4 <kernelExit>
ffffffff80105a7c:	00000000 	nop
ffffffff80105a80:	00001025 	move	$v0,$zero
ffffffff80105a84:	8fbf0010 	lw	$ra,16($sp)
ffffffff80105a88:	03e00008 	jr	$ra
ffffffff80105a8c:	27bd0018 	addiu	$sp,$sp,24

ffffffff80105a90 <taskDestroy>:
ffffffff80105a90:	27bdffd8 	addiu	$sp,$sp,-40
ffffffff80105a94:	afb00010 	sw	$s0,16($sp)
ffffffff80105a98:	3c108011 	lui	$s0,0x8011
ffffffff80105a9c:	8e10919c 	lw	$s0,-28260($s0)
ffffffff80105aa0:	afb40020 	sw	$s4,32($sp)
ffffffff80105aa4:	afb3001c 	sw	$s3,28($sp)
ffffffff80105aa8:	afb20018 	sw	$s2,24($sp)
ffffffff80105aac:	afbf0024 	sw	$ra,36($sp)
ffffffff80105ab0:	afb10014 	sw	$s1,20($sp)
ffffffff80105ab4:	00a0a025 	move	$s4,$a1
ffffffff80105ab8:	00c09825 	move	$s3,$a2
ffffffff80105abc:	00e09025 	move	$s2,$a3
ffffffff80105ac0:	0084800b 	movn	$s0,$a0,$a0
ffffffff80105ac4:	0c041ef2 	jal	ffffffff80107bc8 <intLock>
ffffffff80105ac8:	00000000 	nop
ffffffff80105acc:	12000006 	beqz	$s0,ffffffff80105ae8 <taskDestroy+0x58>
ffffffff80105ad0:	00408825 	move	$s1,$v0
ffffffff80105ad4:	8e030030 	lw	$v1,48($s0)
ffffffff80105ad8:	3c028011 	lui	$v0,0x8011
ffffffff80105adc:	8c429194 	lw	$v0,-28268($v0)
ffffffff80105ae0:	10620035 	beq	$v1,$v0,ffffffff80105bb8 <taskDestroy+0x128>
ffffffff80105ae4:	00000000 	nop
ffffffff80105ae8:	0c041eff 	jal	ffffffff80107bfc <intUnlock>
ffffffff80105aec:	02202025 	move	$a0,$s1
ffffffff80105af0:	08041743 	j	ffffffff80105d0c <taskDestroy+0x27c>
ffffffff80105af4:	24020001 	li	$v0,1
ffffffff80105af8:	24110001 	li	$s1,1
ffffffff80105afc:	3c018011 	lui	$at,0x8011
ffffffff80105b00:	0c041eff 	jal	ffffffff80107bfc <intUnlock>
ffffffff80105b04:	ac319198 	sw	$s1,-28264($at)
ffffffff80105b08:	56400006 	bnezl	$s2,ffffffff80105b24 <taskDestroy+0x94>
ffffffff80105b0c:	8e020060 	lw	$v0,96($s0)
ffffffff80105b10:	3c028011 	lui	$v0,0x8011
ffffffff80105b14:	8c42919c 	lw	$v0,-28260($v0)
ffffffff80105b18:	1602000b 	bne	$s0,$v0,ffffffff80105b48 <taskDestroy+0xb8>
ffffffff80105b1c:	26040060 	addiu	$a0,$s0,96
ffffffff80105b20:	8e020060 	lw	$v0,96($s0)
ffffffff80105b24:	ae00005c 	sw	$zero,92($s0)
ffffffff80105b28:	10400003 	beqz	$v0,ffffffff80105b38 <taskDestroy+0xa8>
ffffffff80105b2c:	ae000050 	sw	$zero,80($s0)
ffffffff80105b30:	0c040cd2 	jal	ffffffff80103348 <kernelPendQFlush>
ffffffff80105b34:	26040060 	addiu	$a0,$s0,96
ffffffff80105b38:	0c041df5 	jal	ffffffff801077d4 <kernelExit>
ffffffff80105b3c:	00000000 	nop
ffffffff80105b40:	080416de 	j	ffffffff80105b78 <taskDestroy+0xe8>
ffffffff80105b44:	00000000 	nop
ffffffff80105b48:	0c040d33 	jal	ffffffff801034cc <kernelPendQPut>
ffffffff80105b4c:	02602825 	move	$a1,$s3
ffffffff80105b50:	1440004e 	bnez	$v0,ffffffff80105c8c <taskDestroy+0x1fc>
ffffffff80105b54:	00000000 	nop
ffffffff80105b58:	0c041df5 	jal	ffffffff801077d4 <kernelExit>
ffffffff80105b5c:	00000000 	nop
ffffffff80105b60:	00401825 	move	$v1,$v0
ffffffff80105b64:	1071006a 	beq	$v1,$s1,ffffffff80105d10 <taskDestroy+0x280>
ffffffff80105b68:	8fbf0024 	lw	$ra,36($sp)
ffffffff80105b6c:	24020002 	li	$v0,2
ffffffff80105b70:	1062ffd4 	beq	$v1,$v0,ffffffff80105ac4 <taskDestroy+0x34>
ffffffff80105b74:	00000000 	nop
ffffffff80105b78:	0c041ef2 	jal	ffffffff80107bc8 <intLock>
ffffffff80105b7c:	00000000 	nop
ffffffff80105b80:	12000006 	beqz	$s0,ffffffff80105b9c <taskDestroy+0x10c>
ffffffff80105b84:	00408825 	move	$s1,$v0
ffffffff80105b88:	8e030030 	lw	$v1,48($s0)
ffffffff80105b8c:	3c028011 	lui	$v0,0x8011
ffffffff80105b90:	8c429194 	lw	$v0,-28268($v0)
ffffffff80105b94:	10620008 	beq	$v1,$v0,ffffffff80105bb8 <taskDestroy+0x128>
ffffffff80105b98:	00000000 	nop
ffffffff80105b9c:	0c041eff 	jal	ffffffff80107bfc <intUnlock>
ffffffff80105ba0:	02202025 	move	$a0,$s1
ffffffff80105ba4:	24020001 	li	$v0,1
ffffffff80105ba8:	3c018011 	lui	$at,0x8011
ffffffff80105bac:	ac229400 	sw	$v0,-27648($at)
ffffffff80105bb0:	08041744 	j	ffffffff80105d10 <taskDestroy+0x280>
ffffffff80105bb4:	8fbf0024 	lw	$ra,36($sp)
ffffffff80105bb8:	8e02005c 	lw	$v0,92($s0)
ffffffff80105bbc:	1440ffce 	bnez	$v0,ffffffff80105af8 <taskDestroy+0x68>
ffffffff80105bc0:	02202025 	move	$a0,$s1
ffffffff80105bc4:	8e02003c 	lw	$v0,60($s0)
ffffffff80105bc8:	14400004 	bnez	$v0,ffffffff80105bdc <taskDestroy+0x14c>
ffffffff80105bcc:	00000000 	nop
ffffffff80105bd0:	8e020050 	lw	$v0,80($s0)
ffffffff80105bd4:	5440ffc9 	bnezl	$v0,ffffffff80105afc <taskDestroy+0x6c>
ffffffff80105bd8:	24110001 	li	$s1,1
ffffffff80105bdc:	3c028011 	lui	$v0,0x8011
ffffffff80105be0:	8c42919c 	lw	$v0,-28260($v0)
ffffffff80105be4:	8c43005c 	lw	$v1,92($v0)
ffffffff80105be8:	24630001 	addiu	$v1,$v1,1
ffffffff80105bec:	ac43005c 	sw	$v1,92($v0)
ffffffff80105bf0:	8e04005c 	lw	$a0,92($s0)
ffffffff80105bf4:	24840001 	addiu	$a0,$a0,1
ffffffff80105bf8:	ae04005c 	sw	$a0,92($s0)
ffffffff80105bfc:	1202000b 	beq	$s0,$v0,ffffffff80105c2c <taskDestroy+0x19c>
ffffffff80105c00:	24020001 	li	$v0,1
ffffffff80105c04:	3c018011 	lui	$at,0x8011
ffffffff80105c08:	ac229198 	sw	$v0,-28264($at)
ffffffff80105c0c:	0c041eff 	jal	ffffffff80107bfc <intUnlock>
ffffffff80105c10:	02202025 	move	$a0,$s1
ffffffff80105c14:	0c040db5 	jal	ffffffff801036d4 <kernelSuspend>
ffffffff80105c18:	02002025 	move	$a0,$s0
ffffffff80105c1c:	0c041df5 	jal	ffffffff801077d4 <kernelExit>
ffffffff80105c20:	00000000 	nop
ffffffff80105c24:	0804170d 	j	ffffffff80105c34 <taskDestroy+0x1a4>
ffffffff80105c28:	00000000 	nop
ffffffff80105c2c:	0c041eff 	jal	ffffffff80107bfc <intUnlock>
ffffffff80105c30:	02202025 	move	$a0,$s1
ffffffff80105c34:	3c038011 	lui	$v1,0x8011
ffffffff80105c38:	8c63919c 	lw	$v1,-28260($v1)
ffffffff80105c3c:	8c620050 	lw	$v0,80($v1)
ffffffff80105c40:	24420001 	addiu	$v0,$v0,1
ffffffff80105c44:	12800019 	beqz	$s4,ffffffff80105cac <taskDestroy+0x21c>
ffffffff80105c48:	ac620050 	sw	$v0,80($v1)
ffffffff80105c4c:	8e020038 	lw	$v0,56($s0)
ffffffff80105c50:	30420004 	andi	$v0,$v0,0x4
ffffffff80105c54:	10400015 	beqz	$v0,ffffffff80105cac <taskDestroy+0x21c>
ffffffff80105c58:	00000000 	nop
ffffffff80105c5c:	3c028011 	lui	$v0,0x8011
ffffffff80105c60:	8c429090 	lw	$v0,-28528($v0)
ffffffff80105c64:	1602000d 	bne	$s0,$v0,ffffffff80105c9c <taskDestroy+0x20c>
ffffffff80105c68:	00000000 	nop
ffffffff80105c6c:	3c048011 	lui	$a0,0x8011
ffffffff80105c70:	8c84908c 	lw	$a0,-28532($a0)
ffffffff80105c74:	3c058011 	lui	$a1,0x8011
ffffffff80105c78:	8ca59080 	lw	$a1,-28544($a1)
ffffffff80105c7c:	0c041b43 	jal	ffffffff80106d0c <memAddToPool>
ffffffff80105c80:	00000000 	nop
ffffffff80105c84:	0804172b 	j	ffffffff80105cac <taskDestroy+0x21c>
ffffffff80105c88:	00000000 	nop
ffffffff80105c8c:	0c041df5 	jal	ffffffff801077d4 <kernelExit>
ffffffff80105c90:	00000000 	nop
ffffffff80105c94:	08041743 	j	ffffffff80105d0c <taskDestroy+0x27c>
ffffffff80105c98:	24020001 	li	$v0,1
ffffffff80105c9c:	3c048011 	lui	$a0,0x8011
ffffffff80105ca0:	8c849194 	lw	$a0,-28268($a0)
ffffffff80105ca4:	0c041ac2 	jal	ffffffff80106b08 <objFree>
ffffffff80105ca8:	2605fff0 	addiu	$a1,$s0,-16
ffffffff80105cac:	0c041ef2 	jal	ffffffff80107bc8 <intLock>
ffffffff80105cb0:	00000000 	nop
ffffffff80105cb4:	00408825 	move	$s1,$v0
ffffffff80105cb8:	0c041ad3 	jal	ffffffff80106b4c <objCoreTerminate>
ffffffff80105cbc:	26040030 	addiu	$a0,$s0,48
ffffffff80105cc0:	24020001 	li	$v0,1
ffffffff80105cc4:	3c018011 	lui	$at,0x8011
ffffffff80105cc8:	ac229198 	sw	$v0,-28264($at)
ffffffff80105ccc:	0c041eff 	jal	ffffffff80107bfc <intUnlock>
ffffffff80105cd0:	02202025 	move	$a0,$s1
ffffffff80105cd4:	0c040dca 	jal	ffffffff80103728 <kernelDelete>
ffffffff80105cd8:	02002025 	move	$a0,$s0
ffffffff80105cdc:	8e030060 	lw	$v1,96($s0)
ffffffff80105ce0:	10600003 	beqz	$v1,ffffffff80105cf0 <taskDestroy+0x260>
ffffffff80105ce4:	00000000 	nop
ffffffff80105ce8:	0c040cd2 	jal	ffffffff80103348 <kernelPendQFlush>
ffffffff80105cec:	26040060 	addiu	$a0,$s0,96
ffffffff80105cf0:	0c041df5 	jal	ffffffff801077d4 <kernelExit>
ffffffff80105cf4:	00000000 	nop
ffffffff80105cf8:	0c0417ff 	jal	ffffffff80105ffc <taskUnlock>
ffffffff80105cfc:	00000000 	nop
ffffffff80105d00:	0c04182a 	jal	ffffffff801060a8 <taskUnsafe>
ffffffff80105d04:	00000000 	nop
ffffffff80105d08:	00001025 	move	$v0,$zero
ffffffff80105d0c:	8fbf0024 	lw	$ra,36($sp)
ffffffff80105d10:	8fb40020 	lw	$s4,32($sp)
ffffffff80105d14:	8fb3001c 	lw	$s3,28($sp)
ffffffff80105d18:	8fb20018 	lw	$s2,24($sp)
ffffffff80105d1c:	8fb10014 	lw	$s1,20($sp)
ffffffff80105d20:	8fb00010 	lw	$s0,16($sp)
ffffffff80105d24:	03e00008 	jr	$ra
ffffffff80105d28:	27bd0028 	addiu	$sp,$sp,40

ffffffff80105d2c <taskDelay>:
ffffffff80105d2c:	27bdffe8 	addiu	$sp,$sp,-24
ffffffff80105d30:	24020001 	li	$v0,1
ffffffff80105d34:	afbf0014 	sw	$ra,20($sp)
ffffffff80105d38:	afb00010 	sw	$s0,16($sp)
ffffffff80105d3c:	3c018011 	lui	$at,0x8011
ffffffff80105d40:	14800014 	bnez	$a0,ffffffff80105d94 <taskDelay+0x68>
ffffffff80105d44:	ac229198 	sw	$v0,-28264($at)
ffffffff80105d48:	3c038011 	lui	$v1,0x8011
ffffffff80105d4c:	8c63943c 	lw	$v1,-27588($v1)
ffffffff80105d50:	3c058011 	lui	$a1,0x8011
ffffffff80105d54:	8ca5919c 	lw	$a1,-28260($a1)
ffffffff80105d58:	3c108011 	lui	$s0,0x8011
ffffffff80105d5c:	26109430 	addiu	$s0,$s0,-27600
ffffffff80105d60:	8c620018 	lw	$v0,24($v1)
ffffffff80105d64:	0040f809 	jalr	$v0
ffffffff80105d68:	02002025 	move	$a0,$s0
ffffffff80105d6c:	3c058011 	lui	$a1,0x8011
ffffffff80105d70:	8ca5919c 	lw	$a1,-28260($a1)
ffffffff80105d74:	3c038011 	lui	$v1,0x8011
ffffffff80105d78:	8c63943c 	lw	$v1,-27588($v1)
ffffffff80105d7c:	02002025 	move	$a0,$s0
ffffffff80105d80:	8c620010 	lw	$v0,16($v1)
ffffffff80105d84:	0040f809 	jalr	$v0
ffffffff80105d88:	8ca60040 	lw	$a2,64($a1)
ffffffff80105d8c:	08041767 	j	ffffffff80105d9c <taskDelay+0x70>
ffffffff80105d90:	00000000 	nop
ffffffff80105d94:	0c040e76 	jal	ffffffff801039d8 <kernelDelay>
ffffffff80105d98:	00000000 	nop
ffffffff80105d9c:	0c041df5 	jal	ffffffff801077d4 <kernelExit>
ffffffff80105da0:	00000000 	nop
ffffffff80105da4:	8fbf0014 	lw	$ra,20($sp)
ffffffff80105da8:	8fb00010 	lw	$s0,16($sp)
ffffffff80105dac:	38440002 	xori	$a0,$v0,0x2
ffffffff80105db0:	24030001 	li	$v1,1
ffffffff80105db4:	0064100a 	movz	$v0,$v1,$a0
ffffffff80105db8:	03e00008 	jr	$ra
ffffffff80105dbc:	27bd0018 	addiu	$sp,$sp,24

ffffffff80105dc0 <taskSuspend>:
ffffffff80105dc0:	3c028011 	lui	$v0,0x8011
ffffffff80105dc4:	8c429198 	lw	$v0,-28264($v0)
ffffffff80105dc8:	27bdffe8 	addiu	$sp,$sp,-24
ffffffff80105dcc:	1040000f 	beqz	$v0,ffffffff80105e0c <taskSuspend+0x4c>
ffffffff80105dd0:	afbf0010 	sw	$ra,16($sp)
ffffffff80105dd4:	10800023 	beqz	$a0,ffffffff80105e64 <taskSuspend+0xa4>
ffffffff80105dd8:	24020001 	li	$v0,1
ffffffff80105ddc:	8c830030 	lw	$v1,48($a0)
ffffffff80105de0:	3c028011 	lui	$v0,0x8011
ffffffff80105de4:	8c429194 	lw	$v0,-28268($v0)
ffffffff80105de8:	5462001e 	bnel	$v1,$v0,ffffffff80105e64 <taskSuspend+0xa4>
ffffffff80105dec:	24020001 	li	$v0,1
ffffffff80105df0:	00802825 	move	$a1,$a0
ffffffff80105df4:	3c048010 	lui	$a0,0x8010
ffffffff80105df8:	248436d4 	addiu	$a0,$a0,14036
ffffffff80105dfc:	0c040f26 	jal	ffffffff80103c98 <workQAdd1>
ffffffff80105e00:	00000000 	nop
ffffffff80105e04:	08041799 	j	ffffffff80105e64 <taskSuspend+0xa4>
ffffffff80105e08:	00001025 	move	$v0,$zero
ffffffff80105e0c:	3c028011 	lui	$v0,0x8011
ffffffff80105e10:	8c42919c 	lw	$v0,-28260($v0)
ffffffff80105e14:	24030001 	li	$v1,1
ffffffff80105e18:	3c018011 	lui	$at,0x8011
ffffffff80105e1c:	ac239198 	sw	$v1,-28264($at)
ffffffff80105e20:	0044200a 	movz	$a0,$v0,$a0
ffffffff80105e24:	10800006 	beqz	$a0,ffffffff80105e40 <taskSuspend+0x80>
ffffffff80105e28:	00000000 	nop
ffffffff80105e2c:	8c830030 	lw	$v1,48($a0)
ffffffff80105e30:	3c028011 	lui	$v0,0x8011
ffffffff80105e34:	8c429194 	lw	$v0,-28268($v0)
ffffffff80105e38:	10620005 	beq	$v1,$v0,ffffffff80105e50 <taskSuspend+0x90>
ffffffff80105e3c:	00000000 	nop
ffffffff80105e40:	0c041df5 	jal	ffffffff801077d4 <kernelExit>
ffffffff80105e44:	00000000 	nop
ffffffff80105e48:	08041799 	j	ffffffff80105e64 <taskSuspend+0xa4>
ffffffff80105e4c:	24020001 	li	$v0,1
ffffffff80105e50:	0c040db5 	jal	ffffffff801036d4 <kernelSuspend>
ffffffff80105e54:	00000000 	nop
ffffffff80105e58:	0c041df5 	jal	ffffffff801077d4 <kernelExit>
ffffffff80105e5c:	00000000 	nop
ffffffff80105e60:	00001025 	move	$v0,$zero
ffffffff80105e64:	8fbf0010 	lw	$ra,16($sp)
ffffffff80105e68:	03e00008 	jr	$ra
ffffffff80105e6c:	27bd0018 	addiu	$sp,$sp,24

ffffffff80105e70 <taskRegsInit>:
ffffffff80105e70:	3c038011 	lui	$v1,0x8011
ffffffff80105e74:	8c6391a8 	lw	$v1,-28248($v1)
ffffffff80105e78:	3c028010 	lui	$v0,0x8010
ffffffff80105e7c:	24427a08 	addiu	$v0,$v0,31240
ffffffff80105e80:	ac8200cc 	sw	$v0,204($a0)
ffffffff80105e84:	ac8300c8 	sw	$v1,200($a0)
ffffffff80105e88:	ac8000d0 	sw	$zero,208($a0)
ffffffff80105e8c:	ac8000d4 	sw	$zero,212($a0)
ffffffff80105e90:	ac800158 	sw	$zero,344($a0)
ffffffff80105e94:	ac80015c 	sw	$zero,348($a0)
ffffffff80105e98:	2406001f 	li	$a2,31
ffffffff80105e9c:	24830154 	addiu	$v1,$a0,340
ffffffff80105ea0:	24c6ffff 	addiu	$a2,$a2,-1
ffffffff80105ea4:	ac600000 	sw	$zero,0($v1)
ffffffff80105ea8:	04c1fffd 	bgez	$a2,ffffffff80105ea0 <taskRegsInit+0x30>
ffffffff80105eac:	2463fffc 	addiu	$v1,$v1,-4
ffffffff80105eb0:	24a2ffec 	addiu	$v0,$a1,-20
ffffffff80105eb4:	3c038011 	lui	$v1,0x8011
ffffffff80105eb8:	246312b0 	addiu	$v1,$v1,4784
ffffffff80105ebc:	ac82014c 	sw	$v0,332($a0)
ffffffff80105ec0:	03e00008 	jr	$ra
ffffffff80105ec4:	ac830148 	sw	$v1,328($a0)

ffffffff80105ec8 <taskRtnValueSet>:
ffffffff80105ec8:	03e00008 	jr	$ra
ffffffff80105ecc:	ac8500e0 	sw	$a1,224($a0)

ffffffff80105ed0 <taskArgsSet>:
ffffffff80105ed0:	24070004 	li	$a3,4
ffffffff80105ed4:	24c30010 	addiu	$v1,$a2,16
ffffffff80105ed8:	8c620000 	lw	$v0,0($v1)
ffffffff80105edc:	24a5fffc 	addiu	$a1,$a1,-4
ffffffff80105ee0:	24e7ffff 	addiu	$a3,$a3,-1
ffffffff80105ee4:	aca20000 	sw	$v0,0($a1)
ffffffff80105ee8:	04e1fffb 	bgez	$a3,ffffffff80105ed8 <taskArgsSet+0x8>
ffffffff80105eec:	2463fffc 	addiu	$v1,$v1,-4
ffffffff80105ef0:	8cc20000 	lw	$v0,0($a2)
ffffffff80105ef4:	ac8200e8 	sw	$v0,232($a0)
ffffffff80105ef8:	8cc30004 	lw	$v1,4($a2)
ffffffff80105efc:	ac8300ec 	sw	$v1,236($a0)
ffffffff80105f00:	8cc20008 	lw	$v0,8($a2)
ffffffff80105f04:	ac8200f0 	sw	$v0,240($a0)
ffffffff80105f08:	8cc3000c 	lw	$v1,12($a2)
ffffffff80105f0c:	03e00008 	jr	$ra
ffffffff80105f10:	ac8300f4 	sw	$v1,244($a0)

ffffffff80105f14 <taskStackAlloc>:
ffffffff80105f14:	27bdffe8 	addiu	$sp,$sp,-24
ffffffff80105f18:	afb00010 	sw	$s0,16($sp)
ffffffff80105f1c:	afbf0014 	sw	$ra,20($sp)
ffffffff80105f20:	0c0417dc 	jal	ffffffff80105f70 <taskTcb>
ffffffff80105f24:	00a08025 	move	$s0,$a1
ffffffff80105f28:	00403025 	move	$a2,$v0
ffffffff80105f2c:	2604000f 	addiu	$a0,$s0,15
ffffffff80105f30:	2403fff0 	li	$v1,-16
ffffffff80105f34:	00001025 	move	$v0,$zero
ffffffff80105f38:	10c00009 	beqz	$a2,ffffffff80105f60 <taskStackAlloc+0x4c>
ffffffff80105f3c:	00838024 	and	$s0,$a0,$v1
ffffffff80105f40:	8cc40078 	lw	$a0,120($a2)
ffffffff80105f44:	8cc30074 	lw	$v1,116($a2)
ffffffff80105f48:	00641823 	subu	$v1,$v1,$a0
ffffffff80105f4c:	0070182b 	sltu	$v1,$v1,$s0
ffffffff80105f50:	14600003 	bnez	$v1,ffffffff80105f60 <taskStackAlloc+0x4c>
ffffffff80105f54:	00902021 	addu	$a0,$a0,$s0
ffffffff80105f58:	acc40078 	sw	$a0,120($a2)
ffffffff80105f5c:	00801025 	move	$v0,$a0
ffffffff80105f60:	8fbf0014 	lw	$ra,20($sp)
ffffffff80105f64:	8fb00010 	lw	$s0,16($sp)
ffffffff80105f68:	03e00008 	jr	$ra
ffffffff80105f6c:	27bd0018 	addiu	$sp,$sp,24

ffffffff80105f70 <taskTcb>:
ffffffff80105f70:	3c038011 	lui	$v1,0x8011
ffffffff80105f74:	8c63919c 	lw	$v1,-28260($v1)
ffffffff80105f78:	0084180b 	movn	$v1,$a0,$a0
ffffffff80105f7c:	10600006 	beqz	$v1,ffffffff80105f98 <taskTcb+0x28>
ffffffff80105f80:	00601025 	move	$v0,$v1
ffffffff80105f84:	8c640030 	lw	$a0,48($v1)
ffffffff80105f88:	3c038011 	lui	$v1,0x8011
ffffffff80105f8c:	8c639194 	lw	$v1,-28268($v1)
ffffffff80105f90:	10830002 	beq	$a0,$v1,ffffffff80105f9c <taskTcb+0x2c>
ffffffff80105f94:	00000000 	nop
ffffffff80105f98:	00001025 	move	$v0,$zero
ffffffff80105f9c:	03e00008 	jr	$ra
ffffffff80105fa0:	00000000 	nop

ffffffff80105fa4 <taskIdSelf>:
ffffffff80105fa4:	3c028011 	lui	$v0,0x8011
ffffffff80105fa8:	03e00008 	jr	$ra
ffffffff80105fac:	8c42919c 	lw	$v0,-28260($v0)

ffffffff80105fb0 <exit>:
ffffffff80105fb0:	3c028011 	lui	$v0,0x8011
ffffffff80105fb4:	8c42919c 	lw	$v0,-28260($v0)
ffffffff80105fb8:	27bdffe8 	addiu	$sp,$sp,-24
ffffffff80105fbc:	afbf0010 	sw	$ra,16($sp)
ffffffff80105fc0:	0c04181c 	jal	ffffffff80106070 <taskLock>
ffffffff80105fc4:	ac440084 	sw	$a0,132($v0)
ffffffff80105fc8:	3c038011 	lui	$v1,0x8011
ffffffff80105fcc:	8c63919c 	lw	$v1,-28260($v1)
ffffffff80105fd0:	8c620038 	lw	$v0,56($v1)
ffffffff80105fd4:	34420002 	ori	$v0,$v0,0x2
ffffffff80105fd8:	0c0417ff 	jal	ffffffff80105ffc <taskUnlock>
ffffffff80105fdc:	ac620038 	sw	$v0,56($v1)
ffffffff80105fe0:	8fbf0010 	lw	$ra,16($sp)
ffffffff80105fe4:	00002025 	move	$a0,$zero
ffffffff80105fe8:	24050001 	li	$a1,1
ffffffff80105fec:	2406ffff 	li	$a2,-1
ffffffff80105ff0:	00003825 	move	$a3,$zero
ffffffff80105ff4:	080416a4 	j	ffffffff80105a90 <taskDestroy>
ffffffff80105ff8:	27bd0018 	addiu	$sp,$sp,24

ffffffff80105ffc <taskUnlock>:
ffffffff80105ffc:	3c048011 	lui	$a0,0x8011
ffffffff80106000:	8c84919c 	lw	$a0,-28260($a0)
ffffffff80106004:	27bdffe8 	addiu	$sp,$sp,-24
ffffffff80106008:	afbf0010 	sw	$ra,16($sp)
ffffffff8010600c:	8c820050 	lw	$v0,80($a0)
ffffffff80106010:	50400014 	beqzl	$v0,ffffffff80106064 <taskUnlock+0x68>
ffffffff80106014:	8fbf0010 	lw	$ra,16($sp)
ffffffff80106018:	8c820050 	lw	$v0,80($a0)
ffffffff8010601c:	2442ffff 	addiu	$v0,$v0,-1
ffffffff80106020:	ac820050 	sw	$v0,80($a0)
ffffffff80106024:	8c830050 	lw	$v1,80($a0)
ffffffff80106028:	5460000e 	bnezl	$v1,ffffffff80106064 <taskUnlock+0x68>
ffffffff8010602c:	8fbf0010 	lw	$ra,16($sp)
ffffffff80106030:	8c830060 	lw	$v1,96($a0)
ffffffff80106034:	24020001 	li	$v0,1
ffffffff80106038:	3c018011 	lui	$at,0x8011
ffffffff8010603c:	10600006 	beqz	$v1,ffffffff80106058 <taskUnlock+0x5c>
ffffffff80106040:	ac229198 	sw	$v0,-28264($at)
ffffffff80106044:	8c82005c 	lw	$v0,92($a0)
ffffffff80106048:	14400003 	bnez	$v0,ffffffff80106058 <taskUnlock+0x5c>
ffffffff8010604c:	00000000 	nop
ffffffff80106050:	0c040cd2 	jal	ffffffff80103348 <kernelPendQFlush>
ffffffff80106054:	24840060 	addiu	$a0,$a0,96
ffffffff80106058:	0c041df5 	jal	ffffffff801077d4 <kernelExit>
ffffffff8010605c:	00000000 	nop
ffffffff80106060:	8fbf0010 	lw	$ra,16($sp)
ffffffff80106064:	00001025 	move	$v0,$zero
ffffffff80106068:	03e00008 	jr	$ra
ffffffff8010606c:	27bd0018 	addiu	$sp,$sp,24

ffffffff80106070 <taskLock>:
ffffffff80106070:	3c038011 	lui	$v1,0x8011
ffffffff80106074:	8c63919c 	lw	$v1,-28260($v1)
ffffffff80106078:	8c620050 	lw	$v0,80($v1)
ffffffff8010607c:	24420001 	addiu	$v0,$v0,1
ffffffff80106080:	ac620050 	sw	$v0,80($v1)
ffffffff80106084:	03e00008 	jr	$ra
ffffffff80106088:	00001025 	move	$v0,$zero

ffffffff8010608c <taskSafe>:
ffffffff8010608c:	3c038011 	lui	$v1,0x8011
ffffffff80106090:	8c63919c 	lw	$v1,-28260($v1)
ffffffff80106094:	8c62005c 	lw	$v0,92($v1)
ffffffff80106098:	24420001 	addiu	$v0,$v0,1
ffffffff8010609c:	ac62005c 	sw	$v0,92($v1)
ffffffff801060a0:	03e00008 	jr	$ra
ffffffff801060a4:	00001025 	move	$v0,$zero

ffffffff801060a8 <taskUnsafe>:
ffffffff801060a8:	3c048011 	lui	$a0,0x8011
ffffffff801060ac:	8c84919c 	lw	$a0,-28260($a0)
ffffffff801060b0:	27bdffe8 	addiu	$sp,$sp,-24
ffffffff801060b4:	afbf0010 	sw	$ra,16($sp)
ffffffff801060b8:	8c82005c 	lw	$v0,92($a0)
ffffffff801060bc:	50400011 	beqzl	$v0,ffffffff80106104 <taskUnsafe+0x5c>
ffffffff801060c0:	8fbf0010 	lw	$ra,16($sp)
ffffffff801060c4:	8c82005c 	lw	$v0,92($a0)
ffffffff801060c8:	2442ffff 	addiu	$v0,$v0,-1
ffffffff801060cc:	ac82005c 	sw	$v0,92($a0)
ffffffff801060d0:	8c83005c 	lw	$v1,92($a0)
ffffffff801060d4:	5460000b 	bnezl	$v1,ffffffff80106104 <taskUnsafe+0x5c>
ffffffff801060d8:	8fbf0010 	lw	$ra,16($sp)
ffffffff801060dc:	8c830060 	lw	$v1,96($a0)
ffffffff801060e0:	24020001 	li	$v0,1
ffffffff801060e4:	3c018011 	lui	$at,0x8011
ffffffff801060e8:	10600003 	beqz	$v1,ffffffff801060f8 <taskUnsafe+0x50>
ffffffff801060ec:	ac229198 	sw	$v0,-28264($at)
ffffffff801060f0:	0c040cd2 	jal	ffffffff80103348 <kernelPendQFlush>
ffffffff801060f4:	24840060 	addiu	$a0,$a0,96
ffffffff801060f8:	0c041df5 	jal	ffffffff801077d4 <kernelExit>
ffffffff801060fc:	00000000 	nop
ffffffff80106100:	8fbf0010 	lw	$ra,16($sp)
ffffffff80106104:	00001025 	move	$v0,$zero
ffffffff80106108:	03e00008 	jr	$ra
ffffffff8010610c:	27bd0018 	addiu	$sp,$sp,24

ffffffff80106110 <tickAnnounce>:
ffffffff80106110:	3c028011 	lui	$v0,0x8011
ffffffff80106114:	8c429198 	lw	$v0,-28264($v0)
ffffffff80106118:	27bdffe8 	addiu	$sp,$sp,-24
ffffffff8010611c:	10400006 	beqz	$v0,ffffffff80106138 <tickAnnounce+0x28>
ffffffff80106120:	afbf0010 	sw	$ra,16($sp)
ffffffff80106124:	8fbf0010 	lw	$ra,16($sp)
ffffffff80106128:	3c048010 	lui	$a0,0x8010
ffffffff8010612c:	2484387c 	addiu	$a0,$a0,14460
ffffffff80106130:	08040f01 	j	ffffffff80103c04 <workQAdd0>
ffffffff80106134:	27bd0018 	addiu	$sp,$sp,24
ffffffff80106138:	24020001 	li	$v0,1
ffffffff8010613c:	3c018011 	lui	$at,0x8011
ffffffff80106140:	ac229198 	sw	$v0,-28264($at)
ffffffff80106144:	0c040e1f 	jal	ffffffff8010387c <kernelTickAnnounce>
ffffffff80106148:	00000000 	nop
ffffffff8010614c:	8fbf0010 	lw	$ra,16($sp)
ffffffff80106150:	08041df5 	j	ffffffff801077d4 <kernelExit>
ffffffff80106154:	27bd0018 	addiu	$sp,$sp,24

ffffffff80106158 <tickSet>:
ffffffff80106158:	27bdffe8 	addiu	$sp,$sp,-24
ffffffff8010615c:	afbf0014 	sw	$ra,20($sp)
ffffffff80106160:	afb00010 	sw	$s0,16($sp)
ffffffff80106164:	0c041ef2 	jal	ffffffff80107bc8 <intLock>
ffffffff80106168:	00808025 	move	$s0,$a0
ffffffff8010616c:	8fbf0014 	lw	$ra,20($sp)
ffffffff80106170:	02003825 	move	$a3,$s0
ffffffff80106174:	8fb00010 	lw	$s0,16($sp)
ffffffff80106178:	00003025 	move	$a2,$zero
ffffffff8010617c:	00402025 	move	$a0,$v0
ffffffff80106180:	3c018011 	lui	$at,0x8011
ffffffff80106184:	ac2698b0 	sw	$a2,-26448($at)
ffffffff80106188:	3c018011 	lui	$at,0x8011
ffffffff8010618c:	ac2798b4 	sw	$a3,-26444($at)
ffffffff80106190:	08041eff 	j	ffffffff80107bfc <intUnlock>
ffffffff80106194:	27bd0018 	addiu	$sp,$sp,24

ffffffff80106198 <tickGet>:
ffffffff80106198:	3c028011 	lui	$v0,0x8011
ffffffff8010619c:	8c4298b4 	lw	$v0,-26444($v0)
ffffffff801061a0:	03e00008 	jr	$ra
	...

ffffffff801061b0 <qFifoCreate>:
ffffffff801061b0:	03e00008 	jr	$ra
ffffffff801061b4:	00001025 	move	$v0,$zero

ffffffff801061b8 <qFifoInit>:
ffffffff801061b8:	27bdffe8 	addiu	$sp,$sp,-24
ffffffff801061bc:	afbf0010 	sw	$ra,16($sp)
ffffffff801061c0:	0c041f10 	jal	ffffffff80107c40 <dllInit>
ffffffff801061c4:	00000000 	nop
ffffffff801061c8:	8fbf0010 	lw	$ra,16($sp)
ffffffff801061cc:	00001025 	move	$v0,$zero
ffffffff801061d0:	03e00008 	jr	$ra
ffffffff801061d4:	27bd0018 	addiu	$sp,$sp,24

ffffffff801061d8 <qFifoDelete>:
ffffffff801061d8:	03e00008 	jr	$ra
ffffffff801061dc:	24020001 	li	$v0,1

ffffffff801061e0 <qFifoPut>:
ffffffff801061e0:	27bdffe8 	addiu	$sp,$sp,-24
ffffffff801061e4:	2402ffff 	li	$v0,-1
ffffffff801061e8:	afbf0010 	sw	$ra,16($sp)
ffffffff801061ec:	14c20006 	bne	$a2,$v0,ffffffff80106208 <qFifoPut+0x28>
ffffffff801061f0:	00a01825 	move	$v1,$a1
ffffffff801061f4:	8fbf0010 	lw	$ra,16($sp)
ffffffff801061f8:	00603025 	move	$a2,$v1
ffffffff801061fc:	00002825 	move	$a1,$zero
ffffffff80106200:	08041f16 	j	ffffffff80107c58 <dllInsert>
ffffffff80106204:	27bd0018 	addiu	$sp,$sp,24
ffffffff80106208:	8fbf0010 	lw	$ra,16($sp)
ffffffff8010620c:	08041f22 	j	ffffffff80107c88 <dllAdd>
ffffffff80106210:	27bd0018 	addiu	$sp,$sp,24

ffffffff80106214 <qFifoGet>:
ffffffff80106214:	8c830000 	lw	$v1,0($a0)
ffffffff80106218:	27bdffe8 	addiu	$sp,$sp,-24
ffffffff8010621c:	afbf0010 	sw	$ra,16($sp)
ffffffff80106220:	10600004 	beqz	$v1,ffffffff80106234 <qFifoGet+0x20>
ffffffff80106224:	00001025 	move	$v0,$zero
ffffffff80106228:	8fbf0010 	lw	$ra,16($sp)
ffffffff8010622c:	08041f36 	j	ffffffff80107cd8 <dllGet>
ffffffff80106230:	27bd0018 	addiu	$sp,$sp,24
ffffffff80106234:	8fbf0010 	lw	$ra,16($sp)
ffffffff80106238:	03e00008 	jr	$ra
ffffffff8010623c:	27bd0018 	addiu	$sp,$sp,24

ffffffff80106240 <qFifoRemove>:
ffffffff80106240:	27bdffe8 	addiu	$sp,$sp,-24
ffffffff80106244:	afbf0010 	sw	$ra,16($sp)
ffffffff80106248:	0c041f29 	jal	ffffffff80107ca4 <dllRemove>
ffffffff8010624c:	00000000 	nop
ffffffff80106250:	8fbf0010 	lw	$ra,16($sp)
ffffffff80106254:	00001025 	move	$v0,$zero
ffffffff80106258:	03e00008 	jr	$ra
ffffffff8010625c:	27bd0018 	addiu	$sp,$sp,24

ffffffff80106260 <qFifoEach>:
ffffffff80106260:	27bdffe0 	addiu	$sp,$sp,-32
ffffffff80106264:	afb20018 	sw	$s2,24($sp)
ffffffff80106268:	afb10014 	sw	$s1,20($sp)
ffffffff8010626c:	afbf001c 	sw	$ra,28($sp)
ffffffff80106270:	afb00010 	sw	$s0,16($sp)
ffffffff80106274:	8c900000 	lw	$s0,0($a0)
ffffffff80106278:	00a09025 	move	$s2,$a1
ffffffff8010627c:	00c08825 	move	$s1,$a2
ffffffff80106280:	12000005 	beqz	$s0,ffffffff80106298 <qFifoEach+0x38>
ffffffff80106284:	02002025 	move	$a0,$s0
ffffffff80106288:	0240f809 	jalr	$s2
ffffffff8010628c:	02202825 	move	$a1,$s1
ffffffff80106290:	5440fffb 	bnezl	$v0,ffffffff80106280 <qFifoEach+0x20>
ffffffff80106294:	8e100000 	lw	$s0,0($s0)
ffffffff80106298:	02001025 	move	$v0,$s0
ffffffff8010629c:	8fbf001c 	lw	$ra,28($sp)
ffffffff801062a0:	8fb20018 	lw	$s2,24($sp)
ffffffff801062a4:	8fb10014 	lw	$s1,20($sp)
ffffffff801062a8:	8fb00010 	lw	$s0,16($sp)
ffffffff801062ac:	03e00008 	jr	$ra
ffffffff801062b0:	27bd0020 	addiu	$sp,$sp,32

ffffffff801062b4 <qFifoNullRtn>:
ffffffff801062b4:	03e00008 	jr	$ra
ffffffff801062b8:	00001025 	move	$v0,$zero
ffffffff801062bc:	00000000 	nop

ffffffff801062c0 <qJobCreate>:
ffffffff801062c0:	27bdffe0 	addiu	$sp,$sp,-32
ffffffff801062c4:	afb00010 	sw	$s0,16($sp)
ffffffff801062c8:	00808025 	move	$s0,$a0
ffffffff801062cc:	afb10014 	sw	$s1,20($sp)
ffffffff801062d0:	afbf0018 	sw	$ra,24($sp)
ffffffff801062d4:	0c041cfa 	jal	ffffffff801073e8 <malloc>
ffffffff801062d8:	24040020 	li	$a0,32
ffffffff801062dc:	00408825 	move	$s1,$v0
ffffffff801062e0:	02002825 	move	$a1,$s0
ffffffff801062e4:	12200008 	beqz	$s1,ffffffff80106308 <qJobCreate+0x48>
ffffffff801062e8:	02202025 	move	$a0,$s1
ffffffff801062ec:	0c0418c7 	jal	ffffffff8010631c <qJobInit>
ffffffff801062f0:	00000000 	nop
ffffffff801062f4:	50400004 	beqzl	$v0,ffffffff80106308 <qJobCreate+0x48>
ffffffff801062f8:	02201025 	move	$v0,$s1
ffffffff801062fc:	0c041d02 	jal	ffffffff80107408 <free>
ffffffff80106300:	02202025 	move	$a0,$s1
ffffffff80106304:	00001025 	move	$v0,$zero
ffffffff80106308:	8fbf0018 	lw	$ra,24($sp)
ffffffff8010630c:	8fb10014 	lw	$s1,20($sp)
ffffffff80106310:	8fb00010 	lw	$s0,16($sp)
ffffffff80106314:	03e00008 	jr	$ra
ffffffff80106318:	27bd0020 	addiu	$sp,$sp,32

ffffffff8010631c <qJobInit>:
ffffffff8010631c:	27bdffd8 	addiu	$sp,$sp,-40
ffffffff80106320:	afbf0020 	sw	$ra,32($sp)
ffffffff80106324:	24030004 	li	$v1,4
ffffffff80106328:	ac800000 	sw	$zero,0($a0)
ffffffff8010632c:	ac800004 	sw	$zero,4($a0)
ffffffff80106330:	ac800008 	sw	$zero,8($a0)
ffffffff80106334:	24080005 	li	$t0,5
ffffffff80106338:	24840010 	addiu	$a0,$a0,16
ffffffff8010633c:	24020003 	li	$v0,3
ffffffff80106340:	24060001 	li	$a2,1
ffffffff80106344:	24070002 	li	$a3,2
ffffffff80106348:	afa20010 	sw	$v0,16($sp)
ffffffff8010634c:	afa30014 	sw	$v1,20($sp)
ffffffff80106350:	0c041a34 	jal	ffffffff801068d0 <qInit>
ffffffff80106354:	afa80018 	sw	$t0,24($sp)
ffffffff80106358:	8fbf0020 	lw	$ra,32($sp)
ffffffff8010635c:	00001025 	move	$v0,$zero
ffffffff80106360:	03e00008 	jr	$ra
ffffffff80106364:	27bd0028 	addiu	$sp,$sp,40

ffffffff80106368 <qJobDelete>:
ffffffff80106368:	27bdffe8 	addiu	$sp,$sp,-24
ffffffff8010636c:	afb00010 	sw	$s0,16($sp)
ffffffff80106370:	afbf0014 	sw	$ra,20($sp)
ffffffff80106374:	0c0418e6 	jal	ffffffff80106398 <qJobTerminate>
ffffffff80106378:	00808025 	move	$s0,$a0
ffffffff8010637c:	0c041d02 	jal	ffffffff80107408 <free>
ffffffff80106380:	02002025 	move	$a0,$s0
ffffffff80106384:	8fbf0014 	lw	$ra,20($sp)
ffffffff80106388:	8fb00010 	lw	$s0,16($sp)
ffffffff8010638c:	00001025 	move	$v0,$zero
ffffffff80106390:	03e00008 	jr	$ra
ffffffff80106394:	27bd0018 	addiu	$sp,$sp,24

ffffffff80106398 <qJobTerminate>:
ffffffff80106398:	27bdffe8 	addiu	$sp,$sp,-24
ffffffff8010639c:	afbf0010 	sw	$ra,16($sp)
ffffffff801063a0:	0c040d7b 	jal	ffffffff801035ec <kernelPendQTerminate>
ffffffff801063a4:	24840010 	addiu	$a0,$a0,16
ffffffff801063a8:	8fbf0010 	lw	$ra,16($sp)
ffffffff801063ac:	00001025 	move	$v0,$zero
ffffffff801063b0:	03e00008 	jr	$ra
ffffffff801063b4:	27bd0018 	addiu	$sp,$sp,24

ffffffff801063b8 <qJobPut>:
ffffffff801063b8:	27bdffe0 	addiu	$sp,$sp,-32
ffffffff801063bc:	afb20018 	sw	$s2,24($sp)
ffffffff801063c0:	afb10014 	sw	$s1,20($sp)
ffffffff801063c4:	afb00010 	sw	$s0,16($sp)
ffffffff801063c8:	afbf001c 	sw	$ra,28($sp)
ffffffff801063cc:	00809025 	move	$s2,$a0
ffffffff801063d0:	00a08825 	move	$s1,$a1
ffffffff801063d4:	14e0000b 	bnez	$a3,ffffffff80106404 <qJobPut+0x4c>
ffffffff801063d8:	00c08025 	move	$s0,$a2
ffffffff801063dc:	0c041ef2 	jal	ffffffff80107bc8 <intLock>
ffffffff801063e0:	ae000000 	sw	$zero,0($s0)
ffffffff801063e4:	00402025 	move	$a0,$v0
ffffffff801063e8:	8e220000 	lw	$v0,0($s1)
ffffffff801063ec:	5040000c 	beqzl	$v0,ffffffff80106420 <qJobPut+0x68>
ffffffff801063f0:	ae300004 	sw	$s0,4($s1)
ffffffff801063f4:	8e220004 	lw	$v0,4($s1)
ffffffff801063f8:	ac500000 	sw	$s0,0($v0)
ffffffff801063fc:	08041909 	j	ffffffff80106424 <qJobPut+0x6c>
ffffffff80106400:	ae300004 	sw	$s0,4($s1)
ffffffff80106404:	0c041ef2 	jal	ffffffff80107bc8 <intLock>
ffffffff80106408:	00000000 	nop
ffffffff8010640c:	00402025 	move	$a0,$v0
ffffffff80106410:	8e220000 	lw	$v0,0($s1)
ffffffff80106414:	14400002 	bnez	$v0,ffffffff80106420 <qJobPut+0x68>
ffffffff80106418:	ae020000 	sw	$v0,0($s0)
ffffffff8010641c:	ae300004 	sw	$s0,4($s1)
ffffffff80106420:	ae300000 	sw	$s0,0($s1)
ffffffff80106424:	8e220008 	lw	$v0,8($s1)
ffffffff80106428:	3c038011 	lui	$v1,0x8011
ffffffff8010642c:	8c639198 	lw	$v1,-28264($v1)
ffffffff80106430:	24420001 	addiu	$v0,$v0,1
ffffffff80106434:	1060000a 	beqz	$v1,ffffffff80106460 <qJobPut+0xa8>
ffffffff80106438:	ae220008 	sw	$v0,8($s1)
ffffffff8010643c:	0c041eff 	jal	ffffffff80107bfc <intUnlock>
ffffffff80106440:	00000000 	nop
ffffffff80106444:	02402825 	move	$a1,$s2
ffffffff80106448:	3c048010 	lui	$a0,0x8010
ffffffff8010644c:	248464b8 	addiu	$a0,$a0,25784
ffffffff80106450:	0c040f4f 	jal	ffffffff80103d3c <workQAdd2>
ffffffff80106454:	02203025 	move	$a2,$s1
ffffffff80106458:	08041928 	j	ffffffff801064a0 <qJobPut+0xe8>
ffffffff8010645c:	8fbf001c 	lw	$ra,28($sp)
ffffffff80106460:	8e220010 	lw	$v0,16($s1)
ffffffff80106464:	54400005 	bnezl	$v0,ffffffff8010647c <qJobPut+0xc4>
ffffffff80106468:	24020001 	li	$v0,1
ffffffff8010646c:	0c041eff 	jal	ffffffff80107bfc <intUnlock>
ffffffff80106470:	00000000 	nop
ffffffff80106474:	08041928 	j	ffffffff801064a0 <qJobPut+0xe8>
ffffffff80106478:	8fbf001c 	lw	$ra,28($sp)
ffffffff8010647c:	3c018011 	lui	$at,0x8011
ffffffff80106480:	ac229198 	sw	$v0,-28264($at)
ffffffff80106484:	0c041eff 	jal	ffffffff80107bfc <intUnlock>
ffffffff80106488:	00000000 	nop
ffffffff8010648c:	0c040d07 	jal	ffffffff8010341c <kernelPendQGet>
ffffffff80106490:	26240010 	addiu	$a0,$s1,16
ffffffff80106494:	0c041df5 	jal	ffffffff801077d4 <kernelExit>
ffffffff80106498:	00000000 	nop
ffffffff8010649c:	8fbf001c 	lw	$ra,28($sp)
ffffffff801064a0:	8fb20018 	lw	$s2,24($sp)
ffffffff801064a4:	8fb10014 	lw	$s1,20($sp)
ffffffff801064a8:	8fb00010 	lw	$s0,16($sp)
ffffffff801064ac:	00001025 	move	$v0,$zero
ffffffff801064b0:	03e00008 	jr	$ra
ffffffff801064b4:	27bd0020 	addiu	$sp,$sp,32

ffffffff801064b8 <qJobPendQGet>:
ffffffff801064b8:	27bdffe8 	addiu	$sp,$sp,-24
ffffffff801064bc:	00a02025 	move	$a0,$a1
ffffffff801064c0:	afbf0010 	sw	$ra,16($sp)
ffffffff801064c4:	8c820010 	lw	$v0,16($a0)
ffffffff801064c8:	10400004 	beqz	$v0,ffffffff801064dc <qJobPendQGet+0x24>
ffffffff801064cc:	24840010 	addiu	$a0,$a0,16
ffffffff801064d0:	8fbf0010 	lw	$ra,16($sp)
ffffffff801064d4:	08040d07 	j	ffffffff8010341c <kernelPendQGet>
ffffffff801064d8:	27bd0018 	addiu	$sp,$sp,24
ffffffff801064dc:	8fbf0010 	lw	$ra,16($sp)
ffffffff801064e0:	03e00008 	jr	$ra
ffffffff801064e4:	27bd0018 	addiu	$sp,$sp,24

ffffffff801064e8 <qJobGet>:
ffffffff801064e8:	27bdffd0 	addiu	$sp,$sp,-48
ffffffff801064ec:	afb10014 	sw	$s1,20($sp)
ffffffff801064f0:	00a08825 	move	$s1,$a1
ffffffff801064f4:	afb50024 	sw	$s5,36($sp)
ffffffff801064f8:	afb20018 	sw	$s2,24($sp)
ffffffff801064fc:	afb00010 	sw	$s0,16($sp)
ffffffff80106500:	0080a825 	move	$s5,$a0
ffffffff80106504:	afbf0028 	sw	$ra,40($sp)
ffffffff80106508:	afb40020 	sw	$s4,32($sp)
ffffffff8010650c:	afb3001c 	sw	$s3,28($sp)
ffffffff80106510:	0c041ef2 	jal	ffffffff80107bc8 <intLock>
ffffffff80106514:	00c09025 	move	$s2,$a2
ffffffff80106518:	8e300000 	lw	$s0,0($s1)
ffffffff8010651c:	16000021 	bnez	$s0,ffffffff801065a4 <qJobGet+0xbc>
ffffffff80106520:	00402025 	move	$a0,$v0
ffffffff80106524:	24140001 	li	$s4,1
ffffffff80106528:	24130002 	li	$s3,2
ffffffff8010652c:	16400005 	bnez	$s2,ffffffff80106544 <qJobGet+0x5c>
ffffffff80106530:	00000000 	nop
ffffffff80106534:	0c041eff 	jal	ffffffff80107bfc <intUnlock>
ffffffff80106538:	00000000 	nop
ffffffff8010653c:	08041970 	j	ffffffff801065c0 <qJobGet+0xd8>
ffffffff80106540:	00001025 	move	$v0,$zero
ffffffff80106544:	3c018011 	lui	$at,0x8011
ffffffff80106548:	ac349198 	sw	$s4,-28264($at)
ffffffff8010654c:	0c041eff 	jal	ffffffff80107bfc <intUnlock>
ffffffff80106550:	00000000 	nop
ffffffff80106554:	26240010 	addiu	$a0,$s1,16
ffffffff80106558:	0c040d33 	jal	ffffffff801034cc <kernelPendQPut>
ffffffff8010655c:	02402825 	move	$a1,$s2
ffffffff80106560:	0c041df5 	jal	ffffffff801077d4 <kernelExit>
ffffffff80106564:	00000000 	nop
ffffffff80106568:	00401825 	move	$v1,$v0
ffffffff8010656c:	50730014 	beql	$v1,$s3,ffffffff801065c0 <qJobGet+0xd8>
ffffffff80106570:	00001025 	move	$v0,$zero
ffffffff80106574:	54600012 	bnezl	$v1,ffffffff801065c0 <qJobGet+0xd8>
ffffffff80106578:	00001025 	move	$v0,$zero
ffffffff8010657c:	8ea40000 	lw	$a0,0($s5)
ffffffff80106580:	3c038011 	lui	$v1,0x8011
ffffffff80106584:	8c6390b0 	lw	$v1,-28496($v1)
ffffffff80106588:	1483000e 	bne	$a0,$v1,ffffffff801065c4 <qJobGet+0xdc>
ffffffff8010658c:	8fbf0028 	lw	$ra,40($sp)
ffffffff80106590:	0c041ef2 	jal	ffffffff80107bc8 <intLock>
ffffffff80106594:	00000000 	nop
ffffffff80106598:	8e300000 	lw	$s0,0($s1)
ffffffff8010659c:	1200ffe3 	beqz	$s0,ffffffff8010652c <qJobGet+0x44>
ffffffff801065a0:	00402025 	move	$a0,$v0
ffffffff801065a4:	8e220008 	lw	$v0,8($s1)
ffffffff801065a8:	8e030000 	lw	$v1,0($s0)
ffffffff801065ac:	2442ffff 	addiu	$v0,$v0,-1
ffffffff801065b0:	ae220008 	sw	$v0,8($s1)
ffffffff801065b4:	0c041eff 	jal	ffffffff80107bfc <intUnlock>
ffffffff801065b8:	ae230000 	sw	$v1,0($s1)
ffffffff801065bc:	02001025 	move	$v0,$s0
ffffffff801065c0:	8fbf0028 	lw	$ra,40($sp)
ffffffff801065c4:	8fb50024 	lw	$s5,36($sp)
ffffffff801065c8:	8fb40020 	lw	$s4,32($sp)
ffffffff801065cc:	8fb3001c 	lw	$s3,28($sp)
ffffffff801065d0:	8fb20018 	lw	$s2,24($sp)
ffffffff801065d4:	8fb10014 	lw	$s1,20($sp)
ffffffff801065d8:	8fb00010 	lw	$s0,16($sp)
ffffffff801065dc:	03e00008 	jr	$ra
ffffffff801065e0:	27bd0030 	addiu	$sp,$sp,48

ffffffff801065e4 <qJobEach>:
ffffffff801065e4:	27bdffd8 	addiu	$sp,$sp,-40
ffffffff801065e8:	afb00010 	sw	$s0,16($sp)
ffffffff801065ec:	00808025 	move	$s0,$a0
ffffffff801065f0:	afb3001c 	sw	$s3,28($sp)
ffffffff801065f4:	afb20018 	sw	$s2,24($sp)
ffffffff801065f8:	afb10014 	sw	$s1,20($sp)
ffffffff801065fc:	afbf0020 	sw	$ra,32($sp)
ffffffff80106600:	00a09825 	move	$s3,$a1
ffffffff80106604:	0c041ef2 	jal	ffffffff80107bc8 <intLock>
ffffffff80106608:	00c09025 	move	$s2,$a2
ffffffff8010660c:	8e100000 	lw	$s0,0($s0)
ffffffff80106610:	00408825 	move	$s1,$v0
ffffffff80106614:	12000006 	beqz	$s0,ffffffff80106630 <qJobEach+0x4c>
ffffffff80106618:	00000000 	nop
ffffffff8010661c:	02002025 	move	$a0,$s0
ffffffff80106620:	0260f809 	jalr	$s3
ffffffff80106624:	02402825 	move	$a1,$s2
ffffffff80106628:	5440fffa 	bnezl	$v0,ffffffff80106614 <qJobEach+0x30>
ffffffff8010662c:	8e100000 	lw	$s0,0($s0)
ffffffff80106630:	0c041eff 	jal	ffffffff80107bfc <intUnlock>
ffffffff80106634:	02202025 	move	$a0,$s1
ffffffff80106638:	8fbf0020 	lw	$ra,32($sp)
ffffffff8010663c:	02001025 	move	$v0,$s0
ffffffff80106640:	8fb3001c 	lw	$s3,28($sp)
ffffffff80106644:	8fb20018 	lw	$s2,24($sp)
ffffffff80106648:	8fb10014 	lw	$s1,20($sp)
ffffffff8010664c:	8fb00010 	lw	$s0,16($sp)
ffffffff80106650:	03e00008 	jr	$ra
ffffffff80106654:	27bd0028 	addiu	$sp,$sp,40

ffffffff80106658 <qJobNullRtn>:
ffffffff80106658:	03e00008 	jr	$ra
ffffffff8010665c:	00001025 	move	$v0,$zero

ffffffff80106660 <qPriListCreate>:
ffffffff80106660:	03e00008 	jr	$ra
ffffffff80106664:	00001025 	move	$v0,$zero

ffffffff80106668 <qPriListInit>:
ffffffff80106668:	27bdffe8 	addiu	$sp,$sp,-24
ffffffff8010666c:	afbf0010 	sw	$ra,16($sp)
ffffffff80106670:	0c041f10 	jal	ffffffff80107c40 <dllInit>
ffffffff80106674:	00000000 	nop
ffffffff80106678:	8fbf0010 	lw	$ra,16($sp)
ffffffff8010667c:	00001025 	move	$v0,$zero
ffffffff80106680:	03e00008 	jr	$ra
ffffffff80106684:	27bd0018 	addiu	$sp,$sp,24

ffffffff80106688 <qPriListDelete>:
ffffffff80106688:	03e00008 	jr	$ra
ffffffff8010668c:	24020001 	li	$v0,1

ffffffff80106690 <qPriListTerminate>:
ffffffff80106690:	03e00008 	jr	$ra
ffffffff80106694:	24020001 	li	$v0,1

ffffffff80106698 <qPriListPut>:
ffffffff80106698:	8c830000 	lw	$v1,0($a0)
ffffffff8010669c:	27bdffe8 	addiu	$sp,$sp,-24
ffffffff801066a0:	00a03825 	move	$a3,$a1
ffffffff801066a4:	afbf0010 	sw	$ra,16($sp)
ffffffff801066a8:	10600008 	beqz	$v1,ffffffff801066cc <qPriListPut+0x34>
ffffffff801066ac:	ace60008 	sw	$a2,8($a3)
ffffffff801066b0:	8c620008 	lw	$v0,8($v1)
ffffffff801066b4:	00c2102b 	sltu	$v0,$a2,$v0
ffffffff801066b8:	54400009 	bnezl	$v0,ffffffff801066e0 <qPriListPut+0x48>
ffffffff801066bc:	8c650004 	lw	$a1,4($v1)
ffffffff801066c0:	8c630000 	lw	$v1,0($v1)
ffffffff801066c4:	5460fffb 	bnezl	$v1,ffffffff801066b4 <qPriListPut+0x1c>
ffffffff801066c8:	8c620008 	lw	$v0,8($v1)
ffffffff801066cc:	8c850004 	lw	$a1,4($a0)
ffffffff801066d0:	8fbf0010 	lw	$ra,16($sp)
ffffffff801066d4:	00e03025 	move	$a2,$a3
ffffffff801066d8:	08041f16 	j	ffffffff80107c58 <dllInsert>
ffffffff801066dc:	27bd0018 	addiu	$sp,$sp,24
ffffffff801066e0:	0c041f16 	jal	ffffffff80107c58 <dllInsert>
ffffffff801066e4:	00e03025 	move	$a2,$a3
ffffffff801066e8:	8fbf0010 	lw	$ra,16($sp)
ffffffff801066ec:	03e00008 	jr	$ra
ffffffff801066f0:	27bd0018 	addiu	$sp,$sp,24

ffffffff801066f4 <qPriListGet>:
ffffffff801066f4:	8c830000 	lw	$v1,0($a0)
ffffffff801066f8:	27bdffe8 	addiu	$sp,$sp,-24
ffffffff801066fc:	afbf0010 	sw	$ra,16($sp)
ffffffff80106700:	10600004 	beqz	$v1,ffffffff80106714 <qPriListGet+0x20>
ffffffff80106704:	00001025 	move	$v0,$zero
ffffffff80106708:	8fbf0010 	lw	$ra,16($sp)
ffffffff8010670c:	08041f36 	j	ffffffff80107cd8 <dllGet>
ffffffff80106710:	27bd0018 	addiu	$sp,$sp,24
ffffffff80106714:	8fbf0010 	lw	$ra,16($sp)
ffffffff80106718:	03e00008 	jr	$ra
ffffffff8010671c:	27bd0018 	addiu	$sp,$sp,24

ffffffff80106720 <qPriListRemove>:
ffffffff80106720:	27bdffe8 	addiu	$sp,$sp,-24
ffffffff80106724:	afbf0010 	sw	$ra,16($sp)
ffffffff80106728:	0c041f29 	jal	ffffffff80107ca4 <dllRemove>
ffffffff8010672c:	00000000 	nop
ffffffff80106730:	8fbf0010 	lw	$ra,16($sp)
ffffffff80106734:	00001025 	move	$v0,$zero
ffffffff80106738:	03e00008 	jr	$ra
ffffffff8010673c:	27bd0018 	addiu	$sp,$sp,24

ffffffff80106740 <qPriListResort>:
ffffffff80106740:	27bdffe0 	addiu	$sp,$sp,-32
ffffffff80106744:	afb20018 	sw	$s2,24($sp)
ffffffff80106748:	afb10014 	sw	$s1,20($sp)
ffffffff8010674c:	afb00010 	sw	$s0,16($sp)
ffffffff80106750:	afbf001c 	sw	$ra,28($sp)
ffffffff80106754:	00a08025 	move	$s0,$a1
ffffffff80106758:	8e020004 	lw	$v0,4($s0)
ffffffff8010675c:	00c08825 	move	$s1,$a2
ffffffff80106760:	00809025 	move	$s2,$a0
ffffffff80106764:	10400005 	beqz	$v0,ffffffff8010677c <qPriListResort+0x3c>
ffffffff80106768:	8e030000 	lw	$v1,0($s0)
ffffffff8010676c:	8c420008 	lw	$v0,8($v0)
ffffffff80106770:	0222102b 	sltu	$v0,$s1,$v0
ffffffff80106774:	1440000e 	bnez	$v0,ffffffff801067b0 <qPriListResort+0x70>
ffffffff80106778:	00000000 	nop
ffffffff8010677c:	50600006 	beqzl	$v1,ffffffff80106798 <qPriListResort+0x58>
ffffffff80106780:	ae110008 	sw	$s1,8($s0)
ffffffff80106784:	8c620008 	lw	$v0,8($v1)
ffffffff80106788:	0051102b 	sltu	$v0,$v0,$s1
ffffffff8010678c:	14400008 	bnez	$v0,ffffffff801067b0 <qPriListResort+0x70>
ffffffff80106790:	00000000 	nop
ffffffff80106794:	ae110008 	sw	$s1,8($s0)
ffffffff80106798:	8fbf001c 	lw	$ra,28($sp)
ffffffff8010679c:	8fb20018 	lw	$s2,24($sp)
ffffffff801067a0:	8fb10014 	lw	$s1,20($sp)
ffffffff801067a4:	8fb00010 	lw	$s0,16($sp)
ffffffff801067a8:	03e00008 	jr	$ra
ffffffff801067ac:	27bd0020 	addiu	$sp,$sp,32
ffffffff801067b0:	0c0419c8 	jal	ffffffff80106720 <qPriListRemove>
ffffffff801067b4:	00000000 	nop
ffffffff801067b8:	8fbf001c 	lw	$ra,28($sp)
ffffffff801067bc:	02402025 	move	$a0,$s2
ffffffff801067c0:	02002825 	move	$a1,$s0
ffffffff801067c4:	02203025 	move	$a2,$s1
ffffffff801067c8:	8fb20018 	lw	$s2,24($sp)
ffffffff801067cc:	8fb10014 	lw	$s1,20($sp)
ffffffff801067d0:	8fb00010 	lw	$s0,16($sp)
ffffffff801067d4:	080419a6 	j	ffffffff80106698 <qPriListPut>
ffffffff801067d8:	27bd0020 	addiu	$sp,$sp,32

ffffffff801067dc <qPriListAdvance>:
ffffffff801067dc:	03e00008 	jr	$ra
ffffffff801067e0:	00000000 	nop

ffffffff801067e4 <qPriListGetExpired>:
ffffffff801067e4:	8c820000 	lw	$v0,0($a0)
ffffffff801067e8:	27bdffe8 	addiu	$sp,$sp,-24
ffffffff801067ec:	10400009 	beqz	$v0,ffffffff80106814 <qPriListGetExpired+0x30>
ffffffff801067f0:	afbf0010 	sw	$ra,16($sp)
ffffffff801067f4:	8c430008 	lw	$v1,8($v0)
ffffffff801067f8:	3c028011 	lui	$v0,0x8011
ffffffff801067fc:	8c4291b0 	lw	$v0,-28240($v0)
ffffffff80106800:	0043102b 	sltu	$v0,$v0,$v1
ffffffff80106804:	14400004 	bnez	$v0,ffffffff80106818 <qPriListGetExpired+0x34>
ffffffff80106808:	8fbf0010 	lw	$ra,16($sp)
ffffffff8010680c:	08041f36 	j	ffffffff80107cd8 <dllGet>
ffffffff80106810:	27bd0018 	addiu	$sp,$sp,24
ffffffff80106814:	8fbf0010 	lw	$ra,16($sp)
ffffffff80106818:	00001025 	move	$v0,$zero
ffffffff8010681c:	03e00008 	jr	$ra
ffffffff80106820:	27bd0018 	addiu	$sp,$sp,24

ffffffff80106824 <qPriListCalibrate>:
ffffffff80106824:	8c840000 	lw	$a0,0($a0)
ffffffff80106828:	10800007 	beqz	$a0,ffffffff80106848 <qPriListCalibrate+0x24>
ffffffff8010682c:	00000000 	nop
ffffffff80106830:	8c820008 	lw	$v0,8($a0)
ffffffff80106834:	00451021 	addu	$v0,$v0,$a1
ffffffff80106838:	ac820008 	sw	$v0,8($a0)
ffffffff8010683c:	8c840000 	lw	$a0,0($a0)
ffffffff80106840:	5480fffc 	bnezl	$a0,ffffffff80106834 <qPriListCalibrate+0x10>
ffffffff80106844:	8c820008 	lw	$v0,8($a0)
ffffffff80106848:	03e00008 	jr	$ra
ffffffff8010684c:	00000000 	nop

ffffffff80106850 <qPriListKey>:
ffffffff80106850:	54a00003 	bnezl	$a1,ffffffff80106860 <qPriListKey+0x10>
ffffffff80106854:	8c830008 	lw	$v1,8($a0)
ffffffff80106858:	03e00008 	jr	$ra
ffffffff8010685c:	8c820008 	lw	$v0,8($a0)
ffffffff80106860:	3c028011 	lui	$v0,0x8011
ffffffff80106864:	8c4291b0 	lw	$v0,-28240($v0)
ffffffff80106868:	03e00008 	jr	$ra
ffffffff8010686c:	00621023 	subu	$v0,$v1,$v0

ffffffff80106870 <qPriListEach>:
ffffffff80106870:	27bdffe0 	addiu	$sp,$sp,-32
ffffffff80106874:	afb20018 	sw	$s2,24($sp)
ffffffff80106878:	afb10014 	sw	$s1,20($sp)
ffffffff8010687c:	afbf001c 	sw	$ra,28($sp)
ffffffff80106880:	afb00010 	sw	$s0,16($sp)
ffffffff80106884:	8c900000 	lw	$s0,0($a0)
ffffffff80106888:	00a09025 	move	$s2,$a1
ffffffff8010688c:	00c08825 	move	$s1,$a2
ffffffff80106890:	12000005 	beqz	$s0,ffffffff801068a8 <qPriListEach+0x38>
ffffffff80106894:	02002025 	move	$a0,$s0
ffffffff80106898:	0240f809 	jalr	$s2
ffffffff8010689c:	02202825 	move	$a1,$s1
ffffffff801068a0:	5440fffb 	bnezl	$v0,ffffffff80106890 <qPriListEach+0x20>
ffffffff801068a4:	8e100000 	lw	$s0,0($s0)
ffffffff801068a8:	02001025 	move	$v0,$s0
ffffffff801068ac:	8fbf001c 	lw	$ra,28($sp)
ffffffff801068b0:	8fb20018 	lw	$s2,24($sp)
ffffffff801068b4:	8fb10014 	lw	$s1,20($sp)
ffffffff801068b8:	8fb00010 	lw	$s0,16($sp)
ffffffff801068bc:	03e00008 	jr	$ra
ffffffff801068c0:	27bd0020 	addiu	$sp,$sp,32
	...

ffffffff801068d0 <qInit>:
ffffffff801068d0:	27bdffe0 	addiu	$sp,$sp,-32
ffffffff801068d4:	00a01825 	move	$v1,$a1
ffffffff801068d8:	afbf0018 	sw	$ra,24($sp)
ffffffff801068dc:	8c680034 	lw	$t0,52($v1)
ffffffff801068e0:	00c02825 	move	$a1,$a2
ffffffff801068e4:	00804825 	move	$t1,$a0
ffffffff801068e8:	00e03025 	move	$a2,$a3
ffffffff801068ec:	24020001 	li	$v0,1
ffffffff801068f0:	15030009 	bne	$t0,$v1,ffffffff80106918 <qInit+0x48>
ffffffff801068f4:	8fa70030 	lw	$a3,48($sp)
ffffffff801068f8:	ad28000c 	sw	$t0,12($t1)
ffffffff801068fc:	8fa20034 	lw	$v0,52($sp)
ffffffff80106900:	8fa30038 	lw	$v1,56($sp)
ffffffff80106904:	afa20010 	sw	$v0,16($sp)
ffffffff80106908:	afa30014 	sw	$v1,20($sp)
ffffffff8010690c:	8d020004 	lw	$v0,4($t0)
ffffffff80106910:	0040f809 	jalr	$v0
ffffffff80106914:	00000000 	nop
ffffffff80106918:	8fbf0018 	lw	$ra,24($sp)
ffffffff8010691c:	03e00008 	jr	$ra
ffffffff80106920:	27bd0020 	addiu	$sp,$sp,32
	...

ffffffff80106930 <classLibInit>:
ffffffff80106930:	3c048011 	lui	$a0,0x8011
ffffffff80106934:	8c849280 	lw	$a0,-28032($a0)
ffffffff80106938:	27bdffe0 	addiu	$sp,$sp,-32
ffffffff8010693c:	3c038010 	lui	$v1,0x8010
ffffffff80106940:	24636a50 	addiu	$v1,$v1,27216
ffffffff80106944:	3c028010 	lui	$v0,0x8010
ffffffff80106948:	2442697c 	addiu	$v0,$v0,27004
ffffffff8010694c:	24050030 	li	$a1,48
ffffffff80106950:	00003025 	move	$a2,$zero
ffffffff80106954:	3c078010 	lui	$a3,0x8010
ffffffff80106958:	24e769cc 	addiu	$a3,$a3,27084
ffffffff8010695c:	afbf0018 	sw	$ra,24($sp)
ffffffff80106960:	afa20010 	sw	$v0,16($sp)
ffffffff80106964:	0c041a5f 	jal	ffffffff8010697c <classInit>
ffffffff80106968:	afa30014 	sw	$v1,20($sp)
ffffffff8010696c:	8fbf0018 	lw	$ra,24($sp)
ffffffff80106970:	00001025 	move	$v0,$zero
ffffffff80106974:	03e00008 	jr	$ra
ffffffff80106978:	27bd0020 	addiu	$sp,$sp,32

ffffffff8010697c <classInit>:
ffffffff8010697c:	27bdffe8 	addiu	$sp,$sp,-24
ffffffff80106980:	00801025 	move	$v0,$a0
ffffffff80106984:	8fa8002c 	lw	$t0,44($sp)
ffffffff80106988:	3c038011 	lui	$v1,0x8011
ffffffff8010698c:	8c639298 	lw	$v1,-28008($v1)
ffffffff80106990:	8fa90028 	lw	$t1,40($sp)
ffffffff80106994:	afbf0010 	sw	$ra,16($sp)
ffffffff80106998:	ac450008 	sw	$a1,8($v0)
ffffffff8010699c:	3c058011 	lui	$a1,0x8011
ffffffff801069a0:	8ca59280 	lw	$a1,-28032($a1)
ffffffff801069a4:	ac480028 	sw	$t0,40($v0)
ffffffff801069a8:	ac430004 	sw	$v1,4($v0)
ffffffff801069ac:	ac46001c 	sw	$a2,28($v0)
ffffffff801069b0:	ac470020 	sw	$a3,32($v0)
ffffffff801069b4:	0c041a96 	jal	ffffffff80106a58 <objCoreInit>
ffffffff801069b8:	ac490024 	sw	$t1,36($v0)
ffffffff801069bc:	8fbf0010 	lw	$ra,16($sp)
ffffffff801069c0:	00001025 	move	$v0,$zero
ffffffff801069c4:	03e00008 	jr	$ra
ffffffff801069c8:	27bd0018 	addiu	$sp,$sp,24

ffffffff801069cc <classCreate>:
ffffffff801069cc:	27bdffd0 	addiu	$sp,$sp,-48
ffffffff801069d0:	afb00018 	sw	$s0,24($sp)
ffffffff801069d4:	00808025 	move	$s0,$a0
ffffffff801069d8:	3c048011 	lui	$a0,0x8011
ffffffff801069dc:	8c849280 	lw	$a0,-28032($a0)
ffffffff801069e0:	afb40028 	sw	$s4,40($sp)
ffffffff801069e4:	afb30024 	sw	$s3,36($sp)
ffffffff801069e8:	afb20020 	sw	$s2,32($sp)
ffffffff801069ec:	afb1001c 	sw	$s1,28($sp)
ffffffff801069f0:	00c09025 	move	$s2,$a2
ffffffff801069f4:	00a08825 	move	$s1,$a1
ffffffff801069f8:	afbf002c 	sw	$ra,44($sp)
ffffffff801069fc:	0c041a9b 	jal	ffffffff80106a6c <objAlloc>
ffffffff80106a00:	00e0a025 	move	$s4,$a3
ffffffff80106a04:	00409825 	move	$s3,$v0
ffffffff80106a08:	02002825 	move	$a1,$s0
ffffffff80106a0c:	02203025 	move	$a2,$s1
ffffffff80106a10:	02403825 	move	$a3,$s2
ffffffff80106a14:	12600005 	beqz	$s3,ffffffff80106a2c <classCreate+0x60>
ffffffff80106a18:	02602025 	move	$a0,$s3
ffffffff80106a1c:	8fa20040 	lw	$v0,64($sp)
ffffffff80106a20:	afb40010 	sw	$s4,16($sp)
ffffffff80106a24:	0c041a5f 	jal	ffffffff8010697c <classInit>
ffffffff80106a28:	afa20014 	sw	$v0,20($sp)
ffffffff80106a2c:	02601025 	move	$v0,$s3
ffffffff80106a30:	8fbf002c 	lw	$ra,44($sp)
ffffffff80106a34:	8fb40028 	lw	$s4,40($sp)
ffffffff80106a38:	8fb30024 	lw	$s3,36($sp)
ffffffff80106a3c:	8fb20020 	lw	$s2,32($sp)
ffffffff80106a40:	8fb1001c 	lw	$s1,28($sp)
ffffffff80106a44:	8fb00018 	lw	$s0,24($sp)
ffffffff80106a48:	03e00008 	jr	$ra
ffffffff80106a4c:	27bd0030 	addiu	$sp,$sp,48

ffffffff80106a50 <classDestroy>:
ffffffff80106a50:	03e00008 	jr	$ra
ffffffff80106a54:	24020001 	li	$v0,1

ffffffff80106a58 <objCoreInit>:
ffffffff80106a58:	ac850000 	sw	$a1,0($a0)
ffffffff80106a5c:	8ca20014 	lw	$v0,20($a1)
ffffffff80106a60:	24420001 	addiu	$v0,$v0,1
ffffffff80106a64:	03e00008 	jr	$ra
ffffffff80106a68:	aca20014 	sw	$v0,20($a1)

ffffffff80106a6c <objAlloc>:
ffffffff80106a6c:	27bdffe8 	addiu	$sp,$sp,-24
ffffffff80106a70:	afbf0010 	sw	$ra,16($sp)
ffffffff80106a74:	8fbf0010 	lw	$ra,16($sp)
ffffffff80106a78:	00002825 	move	$a1,$zero
ffffffff80106a7c:	00003025 	move	$a2,$zero
ffffffff80106a80:	08041aa2 	j	ffffffff80106a88 <objAllocExtra>
ffffffff80106a84:	27bd0018 	addiu	$sp,$sp,24

ffffffff80106a88 <objAllocExtra>:
ffffffff80106a88:	27bdffe0 	addiu	$sp,$sp,-32
ffffffff80106a8c:	afb10014 	sw	$s1,20($sp)
ffffffff80106a90:	afb00010 	sw	$s0,16($sp)
ffffffff80106a94:	afbf0018 	sw	$ra,24($sp)
ffffffff80106a98:	00808025 	move	$s0,$a0
ffffffff80106a9c:	8e040000 	lw	$a0,0($s0)
ffffffff80106aa0:	3c038011 	lui	$v1,0x8011
ffffffff80106aa4:	8c639280 	lw	$v1,-28032($v1)
ffffffff80106aa8:	00c08825 	move	$s1,$a2
ffffffff80106aac:	00001025 	move	$v0,$zero
ffffffff80106ab0:	14830010 	bne	$a0,$v1,ffffffff80106af4 <objAllocExtra+0x6c>
ffffffff80106ab4:	00a03025 	move	$a2,$a1
ffffffff80106ab8:	8e050008 	lw	$a1,8($s0)
ffffffff80106abc:	8e040004 	lw	$a0,4($s0)
ffffffff80106ac0:	0c041bf2 	jal	ffffffff80106fc8 <memPartAlloc>
ffffffff80106ac4:	00a62821 	addu	$a1,$a1,$a2
ffffffff80106ac8:	00401825 	move	$v1,$v0
ffffffff80106acc:	10600009 	beqz	$v1,ffffffff80106af4 <objAllocExtra+0x6c>
ffffffff80106ad0:	00601025 	move	$v0,$v1
ffffffff80106ad4:	8e02000c 	lw	$v0,12($s0)
ffffffff80106ad8:	24420001 	addiu	$v0,$v0,1
ffffffff80106adc:	12200004 	beqz	$s1,ffffffff80106af0 <objAllocExtra+0x68>
ffffffff80106ae0:	ae02000c 	sw	$v0,12($s0)
ffffffff80106ae4:	8e020008 	lw	$v0,8($s0)
ffffffff80106ae8:	00621021 	addu	$v0,$v1,$v0
ffffffff80106aec:	ae220000 	sw	$v0,0($s1)
ffffffff80106af0:	00601025 	move	$v0,$v1
ffffffff80106af4:	8fbf0018 	lw	$ra,24($sp)
ffffffff80106af8:	8fb10014 	lw	$s1,20($sp)
ffffffff80106afc:	8fb00010 	lw	$s0,16($sp)
ffffffff80106b00:	03e00008 	jr	$ra
ffffffff80106b04:	27bd0020 	addiu	$sp,$sp,32

ffffffff80106b08 <objFree>:
ffffffff80106b08:	27bdffe8 	addiu	$sp,$sp,-24
ffffffff80106b0c:	afb00010 	sw	$s0,16($sp)
ffffffff80106b10:	8cb00000 	lw	$s0,0($a1)
ffffffff80106b14:	16040005 	bne	$s0,$a0,ffffffff80106b2c <objFree+0x24>
ffffffff80106b18:	afbf0014 	sw	$ra,20($sp)
ffffffff80106b1c:	0c041bf9 	jal	ffffffff80106fe4 <memPartFree>
ffffffff80106b20:	8e040004 	lw	$a0,4($s0)
ffffffff80106b24:	50400003 	beqzl	$v0,ffffffff80106b34 <objFree+0x2c>
ffffffff80106b28:	8e030010 	lw	$v1,16($s0)
ffffffff80106b2c:	08041acf 	j	ffffffff80106b3c <objFree+0x34>
ffffffff80106b30:	24020001 	li	$v0,1
ffffffff80106b34:	24630001 	addiu	$v1,$v1,1
ffffffff80106b38:	ae030010 	sw	$v1,16($s0)
ffffffff80106b3c:	8fbf0014 	lw	$ra,20($sp)
ffffffff80106b40:	8fb00010 	lw	$s0,16($sp)
ffffffff80106b44:	03e00008 	jr	$ra
ffffffff80106b48:	27bd0018 	addiu	$sp,$sp,24

ffffffff80106b4c <objCoreTerminate>:
ffffffff80106b4c:	8c830000 	lw	$v1,0($a0)
ffffffff80106b50:	8c620018 	lw	$v0,24($v1)
ffffffff80106b54:	24420001 	addiu	$v0,$v0,1
ffffffff80106b58:	ac620018 	sw	$v0,24($v1)
ffffffff80106b5c:	03e00008 	jr	$ra
ffffffff80106b60:	ac800000 	sw	$zero,0($a0)
	...

ffffffff80106b70 <memPartLibInit>:
ffffffff80106b70:	3c028011 	lui	$v0,0x8011
ffffffff80106b74:	8c429290 	lw	$v0,-28016($v0)
ffffffff80106b78:	27bdffd8 	addiu	$sp,$sp,-40
ffffffff80106b7c:	afb1001c 	sw	$s1,28($sp)
ffffffff80106b80:	afb00018 	sw	$s0,24($sp)
ffffffff80106b84:	00a08825 	move	$s1,$a1
ffffffff80106b88:	afbf0020 	sw	$ra,32($sp)
ffffffff80106b8c:	00808025 	move	$s0,$a0
ffffffff80106b90:	1440001b 	bnez	$v0,ffffffff80106c00 <memPartLibInit+0x90>
ffffffff80106b94:	2405002c 	li	$a1,44
ffffffff80106b98:	3c048011 	lui	$a0,0x8011
ffffffff80106b9c:	8c849294 	lw	$a0,-28012($a0)
ffffffff80106ba0:	3c028010 	lui	$v0,0x8010
ffffffff80106ba4:	24426c78 	addiu	$v0,$v0,27768
ffffffff80106ba8:	3c038010 	lui	$v1,0x8010
ffffffff80106bac:	24636d04 	addiu	$v1,$v1,27908
ffffffff80106bb0:	00003025 	move	$a2,$zero
ffffffff80106bb4:	3c078010 	lui	$a3,0x8010
ffffffff80106bb8:	24e76c18 	addiu	$a3,$a3,27672
ffffffff80106bbc:	afa20010 	sw	$v0,16($sp)
ffffffff80106bc0:	0c041a5f 	jal	ffffffff8010697c <classInit>
ffffffff80106bc4:	afa30014 	sw	$v1,20($sp)
ffffffff80106bc8:	02002825 	move	$a1,$s0
ffffffff80106bcc:	3c048011 	lui	$a0,0x8011
ffffffff80106bd0:	248493b0 	addiu	$a0,$a0,-27728
ffffffff80106bd4:	14400008 	bnez	$v0,ffffffff80106bf8 <memPartLibInit+0x88>
ffffffff80106bd8:	02203025 	move	$a2,$s1
ffffffff80106bdc:	0c041b1e 	jal	ffffffff80106c78 <memPartInit>
ffffffff80106be0:	00000000 	nop
ffffffff80106be4:	24020001 	li	$v0,1
ffffffff80106be8:	3c018011 	lui	$at,0x8011
ffffffff80106bec:	ac229290 	sw	$v0,-28016($at)
ffffffff80106bf0:	08041b01 	j	ffffffff80106c04 <memPartLibInit+0x94>
ffffffff80106bf4:	8fbf0020 	lw	$ra,32($sp)
ffffffff80106bf8:	3c028011 	lui	$v0,0x8011
ffffffff80106bfc:	8c429290 	lw	$v0,-28016($v0)
ffffffff80106c00:	8fbf0020 	lw	$ra,32($sp)
ffffffff80106c04:	8fb1001c 	lw	$s1,28($sp)
ffffffff80106c08:	8fb00018 	lw	$s0,24($sp)
ffffffff80106c0c:	2c420001 	sltiu	$v0,$v0,1
ffffffff80106c10:	03e00008 	jr	$ra
ffffffff80106c14:	27bd0028 	addiu	$sp,$sp,40

ffffffff80106c18 <memPartCreate>:
ffffffff80106c18:	27bdffe0 	addiu	$sp,$sp,-32
ffffffff80106c1c:	afb10014 	sw	$s1,20($sp)
ffffffff80106c20:	00808825 	move	$s1,$a0
ffffffff80106c24:	3c048011 	lui	$a0,0x8011
ffffffff80106c28:	8c849294 	lw	$a0,-28012($a0)
ffffffff80106c2c:	afb20018 	sw	$s2,24($sp)
ffffffff80106c30:	afb00010 	sw	$s0,16($sp)
ffffffff80106c34:	afbf001c 	sw	$ra,28($sp)
ffffffff80106c38:	0c041a9b 	jal	ffffffff80106a6c <objAlloc>
ffffffff80106c3c:	00a08025 	move	$s0,$a1
ffffffff80106c40:	00409025 	move	$s2,$v0
ffffffff80106c44:	02202825 	move	$a1,$s1
ffffffff80106c48:	02003025 	move	$a2,$s0
ffffffff80106c4c:	12400003 	beqz	$s2,ffffffff80106c5c <memPartCreate+0x44>
ffffffff80106c50:	02402025 	move	$a0,$s2
ffffffff80106c54:	0c041b1e 	jal	ffffffff80106c78 <memPartInit>
ffffffff80106c58:	00000000 	nop
ffffffff80106c5c:	02401025 	move	$v0,$s2
ffffffff80106c60:	8fbf001c 	lw	$ra,28($sp)
ffffffff80106c64:	8fb20018 	lw	$s2,24($sp)
ffffffff80106c68:	8fb10014 	lw	$s1,20($sp)
ffffffff80106c6c:	8fb00010 	lw	$s0,16($sp)
ffffffff80106c70:	03e00008 	jr	$ra
ffffffff80106c74:	27bd0020 	addiu	$sp,$sp,32

ffffffff80106c78 <memPartInit>:
ffffffff80106c78:	27bdffe0 	addiu	$sp,$sp,-32
ffffffff80106c7c:	afb20018 	sw	$s2,24($sp)
ffffffff80106c80:	afb10014 	sw	$s1,20($sp)
ffffffff80106c84:	00c09025 	move	$s2,$a2
ffffffff80106c88:	00a08825 	move	$s1,$a1
ffffffff80106c8c:	2406002c 	li	$a2,44
ffffffff80106c90:	00002825 	move	$a1,$zero
ffffffff80106c94:	afbf001c 	sw	$ra,28($sp)
ffffffff80106c98:	afb00010 	sw	$s0,16($sp)
ffffffff80106c9c:	0c040aed 	jal	ffffffff80102bb4 <memset>
ffffffff80106ca0:	00808025 	move	$s0,$a0
ffffffff80106ca4:	3c048011 	lui	$a0,0x8011
ffffffff80106ca8:	8c8492a4 	lw	$a0,-27996($a0)
ffffffff80106cac:	3c028011 	lui	$v0,0x8011
ffffffff80106cb0:	8c4292a0 	lw	$v0,-28000($v0)
ffffffff80106cb4:	24030008 	li	$v1,8
ffffffff80106cb8:	ae030010 	sw	$v1,16($s0)
ffffffff80106cbc:	ae040014 	sw	$a0,20($s0)
ffffffff80106cc0:	0040f809 	jalr	$v0
ffffffff80106cc4:	02002025 	move	$a0,$s0
ffffffff80106cc8:	0c041f10 	jal	ffffffff80107c40 <dllInit>
ffffffff80106ccc:	26040004 	addiu	$a0,$s0,4
ffffffff80106cd0:	3c058011 	lui	$a1,0x8011
ffffffff80106cd4:	8ca59294 	lw	$a1,-28012($a1)
ffffffff80106cd8:	0c041a96 	jal	ffffffff80106a58 <objCoreInit>
ffffffff80106cdc:	02002025 	move	$a0,$s0
ffffffff80106ce0:	8fbf001c 	lw	$ra,28($sp)
ffffffff80106ce4:	02002025 	move	$a0,$s0
ffffffff80106ce8:	02202825 	move	$a1,$s1
ffffffff80106cec:	02403025 	move	$a2,$s2
ffffffff80106cf0:	8fb10014 	lw	$s1,20($sp)
ffffffff80106cf4:	8fb20018 	lw	$s2,24($sp)
ffffffff80106cf8:	8fb00010 	lw	$s0,16($sp)
ffffffff80106cfc:	08041b4c 	j	ffffffff80106d30 <memPartAddToPool>
ffffffff80106d00:	27bd0020 	addiu	$sp,$sp,32

ffffffff80106d04 <memPartDestroy>:
ffffffff80106d04:	03e00008 	jr	$ra
ffffffff80106d08:	24020001 	li	$v0,1

ffffffff80106d0c <memAddToPool>:
ffffffff80106d0c:	27bdffe8 	addiu	$sp,$sp,-24
ffffffff80106d10:	afbf0010 	sw	$ra,16($sp)
ffffffff80106d14:	8fbf0010 	lw	$ra,16($sp)
ffffffff80106d18:	00a03025 	move	$a2,$a1
ffffffff80106d1c:	00802825 	move	$a1,$a0
ffffffff80106d20:	3c048011 	lui	$a0,0x8011
ffffffff80106d24:	248493b0 	addiu	$a0,$a0,-27728
ffffffff80106d28:	08041b4c 	j	ffffffff80106d30 <memPartAddToPool>
ffffffff80106d2c:	27bd0018 	addiu	$sp,$sp,24

ffffffff80106d30 <memPartAddToPool>:
ffffffff80106d30:	27bdffe0 	addiu	$sp,$sp,-32
ffffffff80106d34:	afb20018 	sw	$s2,24($sp)
ffffffff80106d38:	afb00010 	sw	$s0,16($sp)
ffffffff80106d3c:	afbf001c 	sw	$ra,28($sp)
ffffffff80106d40:	afb10014 	sw	$s1,20($sp)
ffffffff80106d44:	00809025 	move	$s2,$a0
ffffffff80106d48:	8e440000 	lw	$a0,0($s2)
ffffffff80106d4c:	3c038011 	lui	$v1,0x8011
ffffffff80106d50:	8c639294 	lw	$v1,-28012($v1)
ffffffff80106d54:	00a04025 	move	$t0,$a1
ffffffff80106d58:	00c08025 	move	$s0,$a2
ffffffff80106d5c:	25070003 	addiu	$a3,$t0,3
ffffffff80106d60:	14830029 	bne	$a0,$v1,ffffffff80106e08 <memPartAddToPool+0xd8>
ffffffff80106d64:	24020001 	li	$v0,1
ffffffff80106d68:	2406fffc 	li	$a2,-4
ffffffff80106d6c:	00e68824 	and	$s1,$a3,$a2
ffffffff80106d70:	02281823 	subu	$v1,$s1,$t0
ffffffff80106d74:	02032023 	subu	$a0,$s0,$v1
ffffffff80106d78:	0203182b 	sltu	$v1,$s0,$v1
ffffffff80106d7c:	00008025 	move	$s0,$zero
ffffffff80106d80:	0083800a 	movz	$s0,$a0,$v1
ffffffff80106d84:	8e450010 	lw	$a1,16($s2)
ffffffff80106d88:	02068024 	and	$s0,$s0,$a2
ffffffff80106d8c:	2604fff0 	addiu	$a0,$s0,-16
ffffffff80106d90:	00052840 	sll	$a1,$a1,0x1
ffffffff80106d94:	34840001 	ori	$a0,$a0,0x1
ffffffff80106d98:	24a50018 	addiu	$a1,$a1,24
ffffffff80106d9c:	00041842 	srl	$v1,$a0,0x1
ffffffff80106da0:	26270008 	addiu	$a3,$s1,8
ffffffff80106da4:	00031840 	sll	$v1,$v1,0x1
ffffffff80106da8:	0205282b 	sltu	$a1,$s0,$a1
ffffffff80106dac:	14a00016 	bnez	$a1,ffffffff80106e08 <memPartAddToPool+0xd8>
ffffffff80106db0:	00e31821 	addu	$v1,$a3,$v1
ffffffff80106db4:	24020008 	li	$v0,8
ffffffff80106db8:	ae200000 	sw	$zero,0($s1)
ffffffff80106dbc:	ae220004 	sw	$v0,4($s1)
ffffffff80106dc0:	acf10000 	sw	$s1,0($a3)
ffffffff80106dc4:	ace40004 	sw	$a0,4($a3)
ffffffff80106dc8:	ac670000 	sw	$a3,0($v1)
ffffffff80106dcc:	ac620004 	sw	$v0,4($v1)
ffffffff80106dd0:	8e440028 	lw	$a0,40($s2)
ffffffff80106dd4:	0c04135b 	jal	ffffffff80104d6c <semTake>
ffffffff80106dd8:	2405ffff 	li	$a1,-1
ffffffff80106ddc:	26260010 	addiu	$a2,$s1,16
ffffffff80106de0:	26440004 	addiu	$a0,$s2,4
ffffffff80106de4:	0c041f16 	jal	ffffffff80107c58 <dllInsert>
ffffffff80106de8:	00002825 	move	$a1,$zero
ffffffff80106dec:	8e42000c 	lw	$v0,12($s2)
ffffffff80106df0:	00101842 	srl	$v1,$s0,0x1
ffffffff80106df4:	8e440028 	lw	$a0,40($s2)
ffffffff80106df8:	00431021 	addu	$v0,$v0,$v1
ffffffff80106dfc:	0c041347 	jal	ffffffff80104d1c <semGive>
ffffffff80106e00:	ae42000c 	sw	$v0,12($s2)
ffffffff80106e04:	00001025 	move	$v0,$zero
ffffffff80106e08:	8fbf001c 	lw	$ra,28($sp)
ffffffff80106e0c:	8fb20018 	lw	$s2,24($sp)
ffffffff80106e10:	8fb10014 	lw	$s1,20($sp)
ffffffff80106e14:	8fb00010 	lw	$s0,16($sp)
ffffffff80106e18:	03e00008 	jr	$ra
ffffffff80106e1c:	27bd0020 	addiu	$sp,$sp,32

ffffffff80106e20 <memPartAllignedAlloc>:
ffffffff80106e20:	27bdffc8 	addiu	$sp,$sp,-56
ffffffff80106e24:	afb60030 	sw	$s6,48($sp)
ffffffff80106e28:	afb30024 	sw	$s3,36($sp)
ffffffff80106e2c:	afbf0034 	sw	$ra,52($sp)
ffffffff80106e30:	afb5002c 	sw	$s5,44($sp)
ffffffff80106e34:	afb40028 	sw	$s4,40($sp)
ffffffff80106e38:	afb20020 	sw	$s2,32($sp)
ffffffff80106e3c:	afb1001c 	sw	$s1,28($sp)
ffffffff80106e40:	afb00018 	sw	$s0,24($sp)
ffffffff80106e44:	00809825 	move	$s3,$a0
ffffffff80106e48:	8e640000 	lw	$a0,0($s3)
ffffffff80106e4c:	3c038011 	lui	$v1,0x8011
ffffffff80106e50:	8c639294 	lw	$v1,-28012($v1)
ffffffff80106e54:	00c0b025 	move	$s6,$a2
ffffffff80106e58:	14830051 	bne	$a0,$v1,ffffffff80106fa0 <memPartAllignedAlloc+0x180>
ffffffff80106e5c:	00001025 	move	$v0,$zero
ffffffff80106e60:	2403fffc 	li	$v1,-4
ffffffff80106e64:	24a20003 	addiu	$v0,$a1,3
ffffffff80106e68:	00431024 	and	$v0,$v0,$v1
ffffffff80106e6c:	24420008 	addiu	$v0,$v0,8
ffffffff80106e70:	0045182b 	sltu	$v1,$v0,$a1
ffffffff80106e74:	00029042 	srl	$s2,$v0,0x1
ffffffff80106e78:	14600049 	bnez	$v1,ffffffff80106fa0 <memPartAllignedAlloc+0x180>
ffffffff80106e7c:	00001025 	move	$v0,$zero
ffffffff80106e80:	8e620010 	lw	$v0,16($s3)
ffffffff80106e84:	8e640028 	lw	$a0,40($s3)
ffffffff80106e88:	2405ffff 	li	$a1,-1
ffffffff80106e8c:	0242182b 	sltu	$v1,$s2,$v0
ffffffff80106e90:	0c04135b 	jal	ffffffff80104d6c <semTake>
ffffffff80106e94:	0043900b 	movn	$s2,$v0,$v1
ffffffff80106e98:	8e700004 	lw	$s0,4($s3)
ffffffff80106e9c:	00161042 	srl	$v0,$s6,0x1
ffffffff80106ea0:	0242a821 	addu	$s5,$s2,$v0
ffffffff80106ea4:	26d4ffff 	addiu	$s4,$s6,-1
ffffffff80106ea8:	12000019 	beqz	$s0,ffffffff80106f10 <memPartAllignedAlloc+0xf0>
ffffffff80106eac:	00000000 	nop
ffffffff80106eb0:	8e02fffc 	lw	$v0,-4($s0)
ffffffff80106eb4:	00021042 	srl	$v0,$v0,0x1
ffffffff80106eb8:	02a2182b 	sltu	$v1,$s5,$v0
ffffffff80106ebc:	14600012 	bnez	$v1,ffffffff80106f08 <memPartAllignedAlloc+0xe8>
ffffffff80106ec0:	00000000 	nop
ffffffff80106ec4:	54520005 	bnel	$v0,$s2,ffffffff80106edc <memPartAllignedAlloc+0xbc>
ffffffff80106ec8:	8e100000 	lw	$s0,0($s0)
ffffffff80106ecc:	02141024 	and	$v0,$s0,$s4
ffffffff80106ed0:	1040000d 	beqz	$v0,ffffffff80106f08 <memPartAllignedAlloc+0xe8>
ffffffff80106ed4:	00000000 	nop
ffffffff80106ed8:	8e100000 	lw	$s0,0($s0)
ffffffff80106edc:	1200000c 	beqz	$s0,ffffffff80106f10 <memPartAllignedAlloc+0xf0>
ffffffff80106ee0:	02142024 	and	$a0,$s0,$s4
ffffffff80106ee4:	8e02fffc 	lw	$v0,-4($s0)
ffffffff80106ee8:	00021042 	srl	$v0,$v0,0x1
ffffffff80106eec:	02a2182b 	sltu	$v1,$s5,$v0
ffffffff80106ef0:	14600005 	bnez	$v1,ffffffff80106f08 <memPartAllignedAlloc+0xe8>
ffffffff80106ef4:	00000000 	nop
ffffffff80106ef8:	5452fff8 	bnel	$v0,$s2,ffffffff80106edc <memPartAllignedAlloc+0xbc>
ffffffff80106efc:	8e100000 	lw	$s0,0($s0)
ffffffff80106f00:	5480fff6 	bnezl	$a0,ffffffff80106edc <memPartAllignedAlloc+0xbc>
ffffffff80106f04:	8e100000 	lw	$s0,0($s0)
ffffffff80106f08:	56000005 	bnezl	$s0,ffffffff80106f20 <memPartAllignedAlloc+0x100>
ffffffff80106f0c:	8e670010 	lw	$a3,16($s3)
ffffffff80106f10:	0c041347 	jal	ffffffff80104d1c <semGive>
ffffffff80106f14:	8e640028 	lw	$a0,40($s3)
ffffffff80106f18:	08041be8 	j	ffffffff80106fa0 <memPartAllignedAlloc+0x180>
ffffffff80106f1c:	00001025 	move	$v0,$zero
ffffffff80106f20:	02602025 	move	$a0,$s3
ffffffff80106f24:	2605fff8 	addiu	$a1,$s0,-8
ffffffff80106f28:	02403025 	move	$a2,$s2
ffffffff80106f2c:	0c041c8a 	jal	ffffffff80107228 <memAlignedBlockSplit>
ffffffff80106f30:	afb60010 	sw	$s6,16($sp)
ffffffff80106f34:	00408825 	move	$s1,$v0
ffffffff80106f38:	56200003 	bnezl	$s1,ffffffff80106f48 <memPartAllignedAlloc+0x128>
ffffffff80106f3c:	8e220004 	lw	$v0,4($s1)
ffffffff80106f40:	08041baa 	j	ffffffff80106ea8 <memPartAllignedAlloc+0x88>
ffffffff80106f44:	8e100000 	lw	$s0,0($s0)
ffffffff80106f48:	2403fffe 	li	$v1,-2
ffffffff80106f4c:	00431024 	and	$v0,$v0,$v1
ffffffff80106f50:	ae220004 	sw	$v0,4($s1)
ffffffff80106f54:	8e630020 	lw	$v1,32($s3)
ffffffff80106f58:	8e650024 	lw	$a1,36($s3)
ffffffff80106f5c:	8e640018 	lw	$a0,24($s3)
ffffffff80106f60:	24630001 	addiu	$v1,$v1,1
ffffffff80106f64:	ae630020 	sw	$v1,32($s3)
ffffffff80106f68:	8e220004 	lw	$v0,4($s1)
ffffffff80106f6c:	24840001 	addiu	$a0,$a0,1
ffffffff80106f70:	ae640018 	sw	$a0,24($s3)
ffffffff80106f74:	00021042 	srl	$v0,$v0,0x1
ffffffff80106f78:	00a22821 	addu	$a1,$a1,$v0
ffffffff80106f7c:	ae650024 	sw	$a1,36($s3)
ffffffff80106f80:	8e220004 	lw	$v0,4($s1)
ffffffff80106f84:	8e63001c 	lw	$v1,28($s3)
ffffffff80106f88:	8e640028 	lw	$a0,40($s3)
ffffffff80106f8c:	00021042 	srl	$v0,$v0,0x1
ffffffff80106f90:	00621821 	addu	$v1,$v1,$v0
ffffffff80106f94:	0c041347 	jal	ffffffff80104d1c <semGive>
ffffffff80106f98:	ae63001c 	sw	$v1,28($s3)
ffffffff80106f9c:	26220008 	addiu	$v0,$s1,8
ffffffff80106fa0:	8fbf0034 	lw	$ra,52($sp)
ffffffff80106fa4:	8fb60030 	lw	$s6,48($sp)
ffffffff80106fa8:	8fb5002c 	lw	$s5,44($sp)
ffffffff80106fac:	8fb40028 	lw	$s4,40($sp)
ffffffff80106fb0:	8fb30024 	lw	$s3,36($sp)
ffffffff80106fb4:	8fb20020 	lw	$s2,32($sp)
ffffffff80106fb8:	8fb1001c 	lw	$s1,28($sp)
ffffffff80106fbc:	8fb00018 	lw	$s0,24($sp)
ffffffff80106fc0:	03e00008 	jr	$ra
ffffffff80106fc4:	27bd0038 	addiu	$sp,$sp,56

ffffffff80106fc8 <memPartAlloc>:
ffffffff80106fc8:	27bdffe8 	addiu	$sp,$sp,-24
ffffffff80106fcc:	afbf0010 	sw	$ra,16($sp)
ffffffff80106fd0:	3c068011 	lui	$a2,0x8011
ffffffff80106fd4:	8cc6929c 	lw	$a2,-28004($a2)
ffffffff80106fd8:	8fbf0010 	lw	$ra,16($sp)
ffffffff80106fdc:	08041b88 	j	ffffffff80106e20 <memPartAllignedAlloc>
ffffffff80106fe0:	27bd0018 	addiu	$sp,$sp,24

ffffffff80106fe4 <memPartFree>:
ffffffff80106fe4:	27bdffe0 	addiu	$sp,$sp,-32
ffffffff80106fe8:	afb10014 	sw	$s1,20($sp)
ffffffff80106fec:	afbf001c 	sw	$ra,28($sp)
ffffffff80106ff0:	afb20018 	sw	$s2,24($sp)
ffffffff80106ff4:	afb00010 	sw	$s0,16($sp)
ffffffff80106ff8:	00808825 	move	$s1,$a0
ffffffff80106ffc:	8e240000 	lw	$a0,0($s1)
ffffffff80107000:	3c038011 	lui	$v1,0x8011
ffffffff80107004:	8c639294 	lw	$v1,-28012($v1)
ffffffff80107008:	00a03025 	move	$a2,$a1
ffffffff8010700c:	1483004a 	bne	$a0,$v1,ffffffff80107138 <memPartFree+0x154>
ffffffff80107010:	24020001 	li	$v0,1
ffffffff80107014:	10c00048 	beqz	$a2,ffffffff80107138 <memPartFree+0x154>
ffffffff80107018:	00001025 	move	$v0,$zero
ffffffff8010701c:	8e240028 	lw	$a0,40($s1)
ffffffff80107020:	2405ffff 	li	$a1,-1
ffffffff80107024:	0c04135b 	jal	ffffffff80104d6c <semTake>
ffffffff80107028:	24d0fff8 	addiu	$s0,$a2,-8
ffffffff8010702c:	8e230014 	lw	$v1,20($s1)
ffffffff80107030:	30630010 	andi	$v1,$v1,0x10
ffffffff80107034:	1060000a 	beqz	$v1,ffffffff80107060 <memPartFree+0x7c>
ffffffff80107038:	02202025 	move	$a0,$s1
ffffffff8010703c:	02002825 	move	$a1,$s0
ffffffff80107040:	0c041c54 	jal	ffffffff80107150 <memPartBlockIsValid>
ffffffff80107044:	00003025 	move	$a2,$zero
ffffffff80107048:	54400006 	bnezl	$v0,ffffffff80107064 <memPartFree+0x80>
ffffffff8010704c:	8e040000 	lw	$a0,0($s0)
ffffffff80107050:	0c041347 	jal	ffffffff80104d1c <semGive>
ffffffff80107054:	8e240028 	lw	$a0,40($s1)
ffffffff80107058:	08041c4e 	j	ffffffff80107138 <memPartFree+0x154>
ffffffff8010705c:	24020001 	li	$v0,1
ffffffff80107060:	8e040000 	lw	$a0,0($s0)
ffffffff80107064:	8e030004 	lw	$v1,4($s0)
ffffffff80107068:	8c820004 	lw	$v0,4($a0)
ffffffff8010706c:	30420001 	andi	$v0,$v0,0x1
ffffffff80107070:	1040000d 	beqz	$v0,ffffffff801070a8 <memPartFree+0xc4>
ffffffff80107074:	00039042 	srl	$s2,$v1,0x1
ffffffff80107078:	2402fffe 	li	$v0,-2
ffffffff8010707c:	00621024 	and	$v0,$v1,$v0
ffffffff80107080:	ae020004 	sw	$v0,4($s0)
ffffffff80107084:	00808025 	move	$s0,$a0
ffffffff80107088:	8e030004 	lw	$v1,4($s0)
ffffffff8010708c:	00031042 	srl	$v0,$v1,0x1
ffffffff80107090:	00521021 	addu	$v0,$v0,$s2
ffffffff80107094:	00021040 	sll	$v0,$v0,0x1
ffffffff80107098:	30630001 	andi	$v1,$v1,0x1
ffffffff8010709c:	00621825 	or	$v1,$v1,$v0
ffffffff801070a0:	08041c30 	j	ffffffff801070c0 <memPartFree+0xdc>
ffffffff801070a4:	ae030004 	sw	$v1,4($s0)
ffffffff801070a8:	34620001 	ori	$v0,$v1,0x1
ffffffff801070ac:	ae020004 	sw	$v0,4($s0)
ffffffff801070b0:	26240004 	addiu	$a0,$s1,4
ffffffff801070b4:	00002825 	move	$a1,$zero
ffffffff801070b8:	0c041f16 	jal	ffffffff80107c58 <dllInsert>
ffffffff801070bc:	26060008 	addiu	$a2,$s0,8
ffffffff801070c0:	8e030004 	lw	$v1,4($s0)
ffffffff801070c4:	00033042 	srl	$a2,$v1,0x1
ffffffff801070c8:	00061040 	sll	$v0,$a2,0x1
ffffffff801070cc:	02022821 	addu	$a1,$s0,$v0
ffffffff801070d0:	8ca40004 	lw	$a0,4($a1)
ffffffff801070d4:	30820001 	andi	$v0,$a0,0x1
ffffffff801070d8:	1040000a 	beqz	$v0,ffffffff80107104 <memPartFree+0x120>
ffffffff801070dc:	00041042 	srl	$v0,$a0,0x1
ffffffff801070e0:	00c21021 	addu	$v0,$a2,$v0
ffffffff801070e4:	00021040 	sll	$v0,$v0,0x1
ffffffff801070e8:	30630001 	andi	$v1,$v1,0x1
ffffffff801070ec:	00621825 	or	$v1,$v1,$v0
ffffffff801070f0:	ae030004 	sw	$v1,4($s0)
ffffffff801070f4:	24a50008 	addiu	$a1,$a1,8
ffffffff801070f8:	0c041f29 	jal	ffffffff80107ca4 <dllRemove>
ffffffff801070fc:	26240004 	addiu	$a0,$s1,4
ffffffff80107100:	8e030004 	lw	$v1,4($s0)
ffffffff80107104:	00031042 	srl	$v0,$v1,0x1
ffffffff80107108:	00021040 	sll	$v0,$v0,0x1
ffffffff8010710c:	00501021 	addu	$v0,$v0,$s0
ffffffff80107110:	ac500000 	sw	$s0,0($v0)
ffffffff80107114:	8e230018 	lw	$v1,24($s1)
ffffffff80107118:	8e22001c 	lw	$v0,28($s1)
ffffffff8010711c:	8e240028 	lw	$a0,40($s1)
ffffffff80107120:	2463ffff 	addiu	$v1,$v1,-1
ffffffff80107124:	00521023 	subu	$v0,$v0,$s2
ffffffff80107128:	ae230018 	sw	$v1,24($s1)
ffffffff8010712c:	0c041347 	jal	ffffffff80104d1c <semGive>
ffffffff80107130:	ae22001c 	sw	$v0,28($s1)
ffffffff80107134:	00001025 	move	$v0,$zero
ffffffff80107138:	8fbf001c 	lw	$ra,28($sp)
ffffffff8010713c:	8fb20018 	lw	$s2,24($sp)
ffffffff80107140:	8fb10014 	lw	$s1,20($sp)
ffffffff80107144:	8fb00010 	lw	$s0,16($sp)
ffffffff80107148:	03e00008 	jr	$ra
ffffffff8010714c:	27bd0020 	addiu	$sp,$sp,32

ffffffff80107150 <memPartBlockIsValid>:
ffffffff80107150:	27bdffd8 	addiu	$sp,$sp,-40
ffffffff80107154:	afb3001c 	sw	$s3,28($sp)
ffffffff80107158:	afb10014 	sw	$s1,20($sp)
ffffffff8010715c:	afb00010 	sw	$s0,16($sp)
ffffffff80107160:	00808825 	move	$s1,$a0
ffffffff80107164:	00a08025 	move	$s0,$a1
ffffffff80107168:	00c09825 	move	$s3,$a2
ffffffff8010716c:	afbf0020 	sw	$ra,32($sp)
ffffffff80107170:	afb20018 	sw	$s2,24($sp)
ffffffff80107174:	3c028011 	lui	$v0,0x8011
ffffffff80107178:	8c42919c 	lw	$v0,-28260($v0)
ffffffff8010717c:	8c430050 	lw	$v1,80($v0)
ffffffff80107180:	24630001 	addiu	$v1,$v1,1
ffffffff80107184:	ac430050 	sw	$v1,80($v0)
ffffffff80107188:	8e240028 	lw	$a0,40($s1)
ffffffff8010718c:	0c041347 	jal	ffffffff80104d1c <semGive>
ffffffff80107190:	00009025 	move	$s2,$zero
ffffffff80107194:	32020003 	andi	$v0,$s0,0x3
ffffffff80107198:	14400017 	bnez	$v0,ffffffff801071f8 <memPartBlockIsValid+0xa8>
ffffffff8010719c:	2405ffff 	li	$a1,-1
ffffffff801071a0:	8e040004 	lw	$a0,4($s0)
ffffffff801071a4:	00041842 	srl	$v1,$a0,0x1
ffffffff801071a8:	00033040 	sll	$a2,$v1,0x1
ffffffff801071ac:	30c20003 	andi	$v0,$a2,0x3
ffffffff801071b0:	14400011 	bnez	$v0,ffffffff801071f8 <memPartBlockIsValid+0xa8>
ffffffff801071b4:	00000000 	nop
ffffffff801071b8:	8e22000c 	lw	$v0,12($s1)
ffffffff801071bc:	0062102b 	sltu	$v0,$v1,$v0
ffffffff801071c0:	1040000d 	beqz	$v0,ffffffff801071f8 <memPartBlockIsValid+0xa8>
ffffffff801071c4:	30820001 	andi	$v0,$a0,0x1
ffffffff801071c8:	1453000b 	bne	$v0,$s3,ffffffff801071f8 <memPartBlockIsValid+0xa8>
ffffffff801071cc:	00d01021 	addu	$v0,$a2,$s0
ffffffff801071d0:	8c430000 	lw	$v1,0($v0)
ffffffff801071d4:	16030008 	bne	$s0,$v1,ffffffff801071f8 <memPartBlockIsValid+0xa8>
ffffffff801071d8:	00000000 	nop
ffffffff801071dc:	8e030000 	lw	$v1,0($s0)
ffffffff801071e0:	8c620004 	lw	$v0,4($v1)
ffffffff801071e4:	00021042 	srl	$v0,$v0,0x1
ffffffff801071e8:	00021040 	sll	$v0,$v0,0x1
ffffffff801071ec:	00621821 	addu	$v1,$v1,$v0
ffffffff801071f0:	02031826 	xor	$v1,$s0,$v1
ffffffff801071f4:	2c720001 	sltiu	$s2,$v1,1
ffffffff801071f8:	0c04135b 	jal	ffffffff80104d6c <semTake>
ffffffff801071fc:	8e240028 	lw	$a0,40($s1)
ffffffff80107200:	0c0417ff 	jal	ffffffff80105ffc <taskUnlock>
ffffffff80107204:	00000000 	nop
ffffffff80107208:	8fbf0020 	lw	$ra,32($sp)
ffffffff8010720c:	02401025 	move	$v0,$s2
ffffffff80107210:	8fb3001c 	lw	$s3,28($sp)
ffffffff80107214:	8fb20018 	lw	$s2,24($sp)
ffffffff80107218:	8fb10014 	lw	$s1,20($sp)
ffffffff8010721c:	8fb00010 	lw	$s0,16($sp)
ffffffff80107220:	03e00008 	jr	$ra
ffffffff80107224:	27bd0028 	addiu	$sp,$sp,40

ffffffff80107228 <memAlignedBlockSplit>:
ffffffff80107228:	27bdffd0 	addiu	$sp,$sp,-48
ffffffff8010722c:	00a04025 	move	$t0,$a1
ffffffff80107230:	afb50024 	sw	$s5,36($sp)
ffffffff80107234:	afb40020 	sw	$s4,32($sp)
ffffffff80107238:	afb3001c 	sw	$s3,28($sp)
ffffffff8010723c:	afb20018 	sw	$s2,24($sp)
ffffffff80107240:	afb10014 	sw	$s1,20($sp)
ffffffff80107244:	afb00010 	sw	$s0,16($sp)
ffffffff80107248:	afbf0028 	sw	$ra,40($sp)
ffffffff8010724c:	8d030004 	lw	$v1,4($t0)
ffffffff80107250:	8fa50040 	lw	$a1,64($sp)
ffffffff80107254:	00c0a825 	move	$s5,$a2
ffffffff80107258:	00031842 	srl	$v1,$v1,0x1
ffffffff8010725c:	00031840 	sll	$v1,$v1,0x1
ffffffff80107260:	26a2fffc 	addiu	$v0,$s5,-4
ffffffff80107264:	01039021 	addu	$s2,$t0,$v1
ffffffff80107268:	00021040 	sll	$v0,$v0,0x1
ffffffff8010726c:	02428023 	subu	$s0,$s2,$v0
ffffffff80107270:	00052823 	negu	$a1,$a1
ffffffff80107274:	02058024 	and	$s0,$s0,$a1
ffffffff80107278:	2611fff8 	addiu	$s1,$s0,-8
ffffffff8010727c:	02281023 	subu	$v0,$s1,$t0
ffffffff80107280:	00021fc2 	srl	$v1,$v0,0x1f
ffffffff80107284:	00431021 	addu	$v0,$v0,$v1
ffffffff80107288:	00021043 	sra	$v0,$v0,0x1
ffffffff8010728c:	00e0a025 	move	$s4,$a3
ffffffff80107290:	00021840 	sll	$v1,$v0,0x1
ffffffff80107294:	0054102b 	sltu	$v0,$v0,$s4
ffffffff80107298:	10400008 	beqz	$v0,ffffffff801072bc <memAlignedBlockSplit+0x94>
ffffffff8010729c:	00809825 	move	$s3,$a0
ffffffff801072a0:	56280037 	bnel	$s1,$t0,ffffffff80107380 <memAlignedBlockSplit+0x158>
ffffffff801072a4:	00001025 	move	$v0,$zero
ffffffff801072a8:	26640004 	addiu	$a0,$s3,4
ffffffff801072ac:	0c041f29 	jal	ffffffff80107ca4 <dllRemove>
ffffffff801072b0:	02002825 	move	$a1,$s0
ffffffff801072b4:	08041cb5 	j	ffffffff801072d4 <memAlignedBlockSplit+0xac>
ffffffff801072b8:	00153040 	sll	$a2,$s5,0x1
ffffffff801072bc:	ae280000 	sw	$t0,0($s1)
ffffffff801072c0:	8d020004 	lw	$v0,4($t0)
ffffffff801072c4:	30420001 	andi	$v0,$v0,0x1
ffffffff801072c8:	00431025 	or	$v0,$v0,$v1
ffffffff801072cc:	ad020004 	sw	$v0,4($t0)
ffffffff801072d0:	00153040 	sll	$a2,$s5,0x1
ffffffff801072d4:	02511023 	subu	$v0,$s2,$s1
ffffffff801072d8:	00461023 	subu	$v0,$v0,$a2
ffffffff801072dc:	00141840 	sll	$v1,$s4,0x1
ffffffff801072e0:	0043102b 	sltu	$v0,$v0,$v1
ffffffff801072e4:	1040000d 	beqz	$v0,ffffffff8010731c <memAlignedBlockSplit+0xf4>
ffffffff801072e8:	8e230004 	lw	$v1,4($s1)
ffffffff801072ec:	02501023 	subu	$v0,$s2,$s0
ffffffff801072f0:	24420008 	addiu	$v0,$v0,8
ffffffff801072f4:	00021042 	srl	$v0,$v0,0x1
ffffffff801072f8:	00021040 	sll	$v0,$v0,0x1
ffffffff801072fc:	30630001 	andi	$v1,$v1,0x1
ffffffff80107300:	00621825 	or	$v1,$v1,$v0
ffffffff80107304:	34630001 	ori	$v1,$v1,0x1
ffffffff80107308:	00031042 	srl	$v0,$v1,0x1
ffffffff8010730c:	00021040 	sll	$v0,$v0,0x1
ffffffff80107310:	00511021 	addu	$v0,$v0,$s1
ffffffff80107314:	08041cde 	j	ffffffff80107378 <memAlignedBlockSplit+0x150>
ffffffff80107318:	ae230004 	sw	$v1,4($s1)
ffffffff8010731c:	26640004 	addiu	$a0,$s3,4
ffffffff80107320:	30630001 	andi	$v1,$v1,0x1
ffffffff80107324:	00661825 	or	$v1,$v1,$a2
ffffffff80107328:	34630001 	ori	$v1,$v1,0x1
ffffffff8010732c:	00038042 	srl	$s0,$v1,0x1
ffffffff80107330:	00108040 	sll	$s0,$s0,0x1
ffffffff80107334:	02308021 	addu	$s0,$s1,$s0
ffffffff80107338:	ae230004 	sw	$v1,4($s1)
ffffffff8010733c:	8e020004 	lw	$v0,4($s0)
ffffffff80107340:	02503023 	subu	$a2,$s2,$s0
ffffffff80107344:	00063042 	srl	$a2,$a2,0x1
ffffffff80107348:	00063040 	sll	$a2,$a2,0x1
ffffffff8010734c:	30420001 	andi	$v0,$v0,0x1
ffffffff80107350:	00461025 	or	$v0,$v0,$a2
ffffffff80107354:	34420001 	ori	$v0,$v0,0x1
ffffffff80107358:	ae020004 	sw	$v0,4($s0)
ffffffff8010735c:	26050008 	addiu	$a1,$s0,8
ffffffff80107360:	0c041f22 	jal	ffffffff80107c88 <dllAdd>
ffffffff80107364:	ae110000 	sw	$s1,0($s0)
ffffffff80107368:	8e020004 	lw	$v0,4($s0)
ffffffff8010736c:	00021042 	srl	$v0,$v0,0x1
ffffffff80107370:	00021040 	sll	$v0,$v0,0x1
ffffffff80107374:	00501021 	addu	$v0,$v0,$s0
ffffffff80107378:	ac510000 	sw	$s1,0($v0)
ffffffff8010737c:	02201025 	move	$v0,$s1
ffffffff80107380:	8fbf0028 	lw	$ra,40($sp)
ffffffff80107384:	8fb50024 	lw	$s5,36($sp)
ffffffff80107388:	8fb40020 	lw	$s4,32($sp)
ffffffff8010738c:	8fb3001c 	lw	$s3,28($sp)
ffffffff80107390:	8fb20018 	lw	$s2,24($sp)
ffffffff80107394:	8fb10014 	lw	$s1,20($sp)
ffffffff80107398:	8fb00010 	lw	$s0,16($sp)
ffffffff8010739c:	03e00008 	jr	$ra
ffffffff801073a0:	27bd0030 	addiu	$sp,$sp,48

ffffffff801073a4 <memPartSemInit>:
ffffffff801073a4:	27bdffe0 	addiu	$sp,$sp,-32
ffffffff801073a8:	afb00010 	sw	$s0,16($sp)
ffffffff801073ac:	3c108011 	lui	$s0,0x8011
ffffffff801073b0:	261093e0 	addiu	$s0,$s0,-27680
ffffffff801073b4:	afb10014 	sw	$s1,20($sp)
ffffffff801073b8:	00002825 	move	$a1,$zero
ffffffff801073bc:	00808825 	move	$s1,$a0
ffffffff801073c0:	24060001 	li	$a2,1
ffffffff801073c4:	afbf0018 	sw	$ra,24($sp)
ffffffff801073c8:	0c04119f 	jal	ffffffff8010467c <semBInit>
ffffffff801073cc:	02002025 	move	$a0,$s0
ffffffff801073d0:	8fbf0018 	lw	$ra,24($sp)
ffffffff801073d4:	ae300028 	sw	$s0,40($s1)
ffffffff801073d8:	8fb10014 	lw	$s1,20($sp)
ffffffff801073dc:	8fb00010 	lw	$s0,16($sp)
ffffffff801073e0:	03e00008 	jr	$ra
ffffffff801073e4:	27bd0020 	addiu	$sp,$sp,32

ffffffff801073e8 <malloc>:
ffffffff801073e8:	27bdffe8 	addiu	$sp,$sp,-24
ffffffff801073ec:	afbf0010 	sw	$ra,16($sp)
ffffffff801073f0:	00802825 	move	$a1,$a0
ffffffff801073f4:	8fbf0010 	lw	$ra,16($sp)
ffffffff801073f8:	3c048011 	lui	$a0,0x8011
ffffffff801073fc:	8c849298 	lw	$a0,-28008($a0)
ffffffff80107400:	08041bf2 	j	ffffffff80106fc8 <memPartAlloc>
ffffffff80107404:	27bd0018 	addiu	$sp,$sp,24

ffffffff80107408 <free>:
ffffffff80107408:	27bdffe8 	addiu	$sp,$sp,-24
ffffffff8010740c:	afbf0010 	sw	$ra,16($sp)
ffffffff80107410:	00802825 	move	$a1,$a0
ffffffff80107414:	8fbf0010 	lw	$ra,16($sp)
ffffffff80107418:	3c048011 	lui	$a0,0x8011
ffffffff8010741c:	8c849298 	lw	$a0,-28008($a0)
ffffffff80107420:	08041bf9 	j	ffffffff80106fe4 <memPartFree>
ffffffff80107424:	27bd0018 	addiu	$sp,$sp,24
	...

ffffffff80107430 <excNormVec>:
ffffffff80107430:	401a6800 	mfc0	$k0,$13
ffffffff80107434:	00000040 	sll	$zero,$zero,0x1
ffffffff80107438:	00000040 	sll	$zero,$zero,0x1
ffffffff8010743c:	00000040 	sll	$zero,$zero,0x1
ffffffff80107440:	00000040 	sll	$zero,$zero,0x1
ffffffff80107444:	3c1b8011 	lui	$k1,0x8011
ffffffff80107448:	8f7b8c50 	lw	$k1,-29616($k1)
ffffffff8010744c:	335a003c 	andi	$k0,$k0,0x3c
ffffffff80107450:	17400005 	bnez	$k0,ffffffff80107468 <excNormVec+0x38>
ffffffff80107454:	00000040 	sll	$zero,$zero,0x1
ffffffff80107458:	3c1a8010 	lui	$k0,0x8010
ffffffff8010745c:	275a7478 	addiu	$k0,$k0,29816
ffffffff80107460:	03400008 	jr	$k0
ffffffff80107464:	00000000 	nop
ffffffff80107468:	3c1a8010 	lui	$k0,0x8010
ffffffff8010746c:	275a7670 	addiu	$k0,$k0,30320
ffffffff80107470:	03400008 	jr	$k0
ffffffff80107474:	00000040 	sll	$zero,$zero,0x1

ffffffff80107478 <excIntStub>:
ffffffff80107478:	17600007 	bnez	$k1,ffffffff80107498 <nested>
ffffffff8010747c:	00000000 	nop
ffffffff80107480:	3c1a8011 	lui	$k0,0x8011
ffffffff80107484:	8f5a9084 	lw	$k0,-28540($k0)
ffffffff80107488:	275aff40 	addiu	$k0,$k0,-192
ffffffff8010748c:	af5d00ac 	sw	$sp,172($k0)
ffffffff80107490:	10000003 	b	ffffffff801074a0 <save_critical>
ffffffff80107494:	0340e825 	move	$sp,$k0

ffffffff80107498 <nested>:
ffffffff80107498:	afbdffec 	sw	$sp,-20($sp)
ffffffff8010749c:	27bdff40 	addiu	$sp,$sp,-192

ffffffff801074a0 <save_critical>:
ffffffff801074a0:	afa1003c 	sw	$at,60($sp)
ffffffff801074a4:	afa20040 	sw	$v0,64($sp)
ffffffff801074a8:	277b0001 	addiu	$k1,$k1,1
ffffffff801074ac:	3c018011 	lui	$at,0x8011
ffffffff801074b0:	ac3b8c50 	sw	$k1,-29616($at)
ffffffff801074b4:	3c1b8011 	lui	$k1,0x8011
ffffffff801074b8:	8f7b91a4 	lw	$k1,-28252($k1)
ffffffff801074bc:	277b0001 	addiu	$k1,$k1,1
ffffffff801074c0:	3c018011 	lui	$at,0x8011
ffffffff801074c4:	ac3b91a4 	sw	$k1,-28252($at)

ffffffff801074c8 <intStateSave>:
ffffffff801074c8:	afa00038 	sw	$zero,56($sp)
ffffffff801074cc:	afa20040 	sw	$v0,64($sp)
ffffffff801074d0:	afa30044 	sw	$v1,68($sp)
ffffffff801074d4:	afa40048 	sw	$a0,72($sp)
ffffffff801074d8:	afa5004c 	sw	$a1,76($sp)
ffffffff801074dc:	afa60050 	sw	$a2,80($sp)
ffffffff801074e0:	afa70054 	sw	$a3,84($sp)
ffffffff801074e4:	afa80058 	sw	$t0,88($sp)
ffffffff801074e8:	afa9005c 	sw	$t1,92($sp)
ffffffff801074ec:	afaa0060 	sw	$t2,96($sp)
ffffffff801074f0:	afab0064 	sw	$t3,100($sp)
ffffffff801074f4:	afac0068 	sw	$t4,104($sp)
ffffffff801074f8:	afad006c 	sw	$t5,108($sp)
ffffffff801074fc:	afae0070 	sw	$t6,112($sp)
ffffffff80107500:	afaf0074 	sw	$t7,116($sp)
ffffffff80107504:	afb80098 	sw	$t8,152($sp)
ffffffff80107508:	afb9009c 	sw	$t9,156($sp)
ffffffff8010750c:	afbf00b4 	sw	$ra,180($sp)
ffffffff80107510:	00005012 	mflo	$t2
ffffffff80107514:	00005810 	mfhi	$t3
ffffffff80107518:	afaa0030 	sw	$t2,48($sp)
ffffffff8010751c:	afab0034 	sw	$t3,52($sp)
ffffffff80107520:	401b6000 	mfc0	$k1,$12
ffffffff80107524:	401a7000 	mfc0	$k0,$14
ffffffff80107528:	40026800 	mfc0	$v0,$13
ffffffff8010752c:	00000040 	sll	$zero,$zero,0x1
ffffffff80107530:	00000040 	sll	$zero,$zero,0x1
ffffffff80107534:	00000040 	sll	$zero,$zero,0x1
ffffffff80107538:	00000040 	sll	$zero,$zero,0x1
ffffffff8010753c:	afbb0028 	sw	$k1,40($sp)
ffffffff80107540:	afba002c 	sw	$k0,44($sp)
ffffffff80107544:	afa20014 	sw	$v0,20($sp)

ffffffff80107548 <noIntEnt>:
ffffffff80107548:	3c1a8011 	lui	$k0,0x8011
ffffffff8010754c:	8f5a9400 	lw	$k0,-27648($k0)
ffffffff80107550:	afba0010 	sw	$k0,16($sp)

ffffffff80107554 <excIntStubNormal>:
ffffffff80107554:	304aff00 	andi	$t2,$v0,0xff00
ffffffff80107558:	036a1024 	and	$v0,$k1,$t2
ffffffff8010755c:	3c098011 	lui	$t1,0x8011
ffffffff80107560:	8d298a90 	lw	$t1,-30064($t1)
ffffffff80107564:	10400026 	beqz	$v0,ffffffff80107600 <restore>
ffffffff80107568:	00000000 	nop
ffffffff8010756c:	00025202 	srl	$t2,$v0,0x8
ffffffff80107570:	01495021 	addu	$t2,$t2,$t1
ffffffff80107574:	91490000 	lbu	$t1,0($t2)
ffffffff80107578:	00094900 	sll	$t1,$t1,0x4
ffffffff8010757c:	3c018011 	lui	$at,0x8011
ffffffff80107580:	00290821 	addu	$at,$at,$t1
ffffffff80107584:	8c2a8a9c 	lw	$t2,-30052($at)
ffffffff80107588:	004a1025 	or	$v0,$v0,$t2
ffffffff8010758c:	00401027 	nor	$v0,$v0,$zero
ffffffff80107590:	005bd824 	and	$k1,$v0,$k1

ffffffff80107594 <excIntStubCommonExit>:
ffffffff80107594:	409b6000 	mtc0	$k1,$12
ffffffff80107598:	00000040 	sll	$zero,$zero,0x1
ffffffff8010759c:	00000040 	sll	$zero,$zero,0x1
ffffffff801075a0:	00000040 	sll	$zero,$zero,0x1
ffffffff801075a4:	00000040 	sll	$zero,$zero,0x1
ffffffff801075a8:	2401fffd 	li	$at,-3
ffffffff801075ac:	0361d824 	and	$k1,$k1,$at
ffffffff801075b0:	409b6000 	mtc0	$k1,$12
ffffffff801075b4:	3c018011 	lui	$at,0x8011
ffffffff801075b8:	00290821 	addu	$at,$at,$t1
ffffffff801075bc:	8c228a98 	lw	$v0,-30056($at)
ffffffff801075c0:	3c018011 	lui	$at,0x8011
ffffffff801075c4:	00290821 	addu	$at,$at,$t1
ffffffff801075c8:	8c298aa0 	lw	$t1,-30048($at)
ffffffff801075cc:	11200003 	beqz	$t1,ffffffff801075dc <call>
ffffffff801075d0:	00000000 	nop
ffffffff801075d4:	0040f809 	jalr	$v0
ffffffff801075d8:	01202025 	move	$a0,$t1

ffffffff801075dc <call>:
ffffffff801075dc:	00402025 	move	$a0,$v0
ffffffff801075e0:	03a02825 	move	$a1,$sp
ffffffff801075e4:	00021080 	sll	$v0,$v0,0x2
ffffffff801075e8:	3c088011 	lui	$t0,0x8011
ffffffff801075ec:	25088c54 	addiu	$t0,$t0,-29612
ffffffff801075f0:	00481021 	addu	$v0,$v0,$t0
ffffffff801075f4:	8c430000 	lw	$v1,0($v0)
ffffffff801075f8:	0060f809 	jalr	$v1
ffffffff801075fc:	00000000 	nop

ffffffff80107600 <restore>:
ffffffff80107600:	8faa0010 	lw	$t2,16($sp)
ffffffff80107604:	3c018011 	lui	$at,0x8011
ffffffff80107608:	ac2a9400 	sw	$t2,-27648($at)
ffffffff8010760c:	8fa30044 	lw	$v1,68($sp)
ffffffff80107610:	8fa40048 	lw	$a0,72($sp)
ffffffff80107614:	8fa5004c 	lw	$a1,76($sp)
ffffffff80107618:	8fa60050 	lw	$a2,80($sp)
ffffffff8010761c:	8fa70054 	lw	$a3,84($sp)
ffffffff80107620:	8fa80058 	lw	$t0,88($sp)
ffffffff80107624:	8fac0068 	lw	$t4,104($sp)
ffffffff80107628:	8fad006c 	lw	$t5,108($sp)
ffffffff8010762c:	8fae0070 	lw	$t6,112($sp)
ffffffff80107630:	8faf0074 	lw	$t7,116($sp)
ffffffff80107634:	8fb80098 	lw	$t8,152($sp)
ffffffff80107638:	8fbf00b4 	lw	$ra,180($sp)
ffffffff8010763c:	8fb90030 	lw	$t9,48($sp)
ffffffff80107640:	03200013 	mtlo	$t9
ffffffff80107644:	8fb90034 	lw	$t9,52($sp)
ffffffff80107648:	03200011 	mthi	$t9
ffffffff8010764c:	8fb9009c 	lw	$t9,156($sp)

ffffffff80107650 <restoreVolatile>:
ffffffff80107650:	8fa90028 	lw	$t1,40($sp)
ffffffff80107654:	40896000 	mtc0	$t1,$12
ffffffff80107658:	8fa20040 	lw	$v0,64($sp)
ffffffff8010765c:	8fab0064 	lw	$t3,100($sp)
ffffffff80107660:	8faa0060 	lw	$t2,96($sp)
ffffffff80107664:	08041e89 	j	ffffffff80107a24 <intExit>
ffffffff80107668:	8fa9005c 	lw	$t1,92($sp)
ffffffff8010766c:	00000040 	sll	$zero,$zero,0x1

ffffffff80107670 <excStub>:
ffffffff80107670:	40026000 	mfc0	$v0,$12
ffffffff80107674:	00000040 	sll	$zero,$zero,0x1
ffffffff80107678:	00000040 	sll	$zero,$zero,0x1
ffffffff8010767c:	00000040 	sll	$zero,$zero,0x1
ffffffff80107680:	00000040 	sll	$zero,$zero,0x1
ffffffff80107684:	2409fffe 	li	$t1,-2
ffffffff80107688:	01224824 	and	$t1,$t1,$v0
ffffffff8010768c:	40896000 	mtc0	$t1,$12
ffffffff80107690:	00000040 	sll	$zero,$zero,0x1
ffffffff80107694:	00000040 	sll	$zero,$zero,0x1
ffffffff80107698:	00000040 	sll	$zero,$zero,0x1
ffffffff8010769c:	00000040 	sll	$zero,$zero,0x1
ffffffff801076a0:	1000ffff 	b	ffffffff801076a0 <excStub+0x30>
ffffffff801076a4:	00000000 	nop

ffffffff801076a8 <intSRGet>:
ffffffff801076a8:	40026000 	mfc0	$v0,$12
ffffffff801076ac:	00000040 	sll	$zero,$zero,0x1
ffffffff801076b0:	00000040 	sll	$zero,$zero,0x1
ffffffff801076b4:	00000040 	sll	$zero,$zero,0x1
ffffffff801076b8:	03e00008 	jr	$ra
ffffffff801076bc:	00000040 	sll	$zero,$zero,0x1

ffffffff801076c0 <intSRSet>:
ffffffff801076c0:	40846000 	mtc0	$a0,$12
ffffffff801076c4:	00000040 	sll	$zero,$zero,0x1
ffffffff801076c8:	00000040 	sll	$zero,$zero,0x1
ffffffff801076cc:	00000040 	sll	$zero,$zero,0x1
ffffffff801076d0:	03e00008 	jr	$ra
ffffffff801076d4:	00000040 	sll	$zero,$zero,0x1
	...

ffffffff801076e0 <kernelExitIntWork>:
ffffffff801076e0:	27bdffe8 	addiu	$sp,$sp,-24
ffffffff801076e4:	afbf0010 	sw	$ra,16($sp)
ffffffff801076e8:	00000040 	sll	$zero,$zero,0x1
ffffffff801076ec:	00000040 	sll	$zero,$zero,0x1
ffffffff801076f0:	00000040 	sll	$zero,$zero,0x1
ffffffff801076f4:	00000040 	sll	$zero,$zero,0x1
ffffffff801076f8:	0c040f7c 	jal	ffffffff80103df0 <workQDoWork>
ffffffff801076fc:	408a6000 	mtc0	$t2,$12
ffffffff80107700:	8fbf0010 	lw	$ra,16($sp)
ffffffff80107704:	27bd0018 	addiu	$sp,$sp,24

ffffffff80107708 <kernelExitInt>:
ffffffff80107708:	400a6000 	mfc0	$t2,$12
ffffffff8010770c:	2409fffe 	li	$t1,-2
ffffffff80107710:	012a4824 	and	$t1,$t1,$t2
ffffffff80107714:	40896000 	mtc0	$t1,$12
ffffffff80107718:	00000040 	sll	$zero,$zero,0x1
ffffffff8010771c:	00000040 	sll	$zero,$zero,0x1
ffffffff80107720:	00000040 	sll	$zero,$zero,0x1
ffffffff80107724:	00000040 	sll	$zero,$zero,0x1
ffffffff80107728:	3c088011 	lui	$t0,0x8011
ffffffff8010772c:	8d0890a0 	lw	$t0,-28512($t0)
ffffffff80107730:	1008ffeb 	beq	$zero,$t0,ffffffff801076e0 <kernelExitIntWork>
ffffffff80107734:	00000000 	nop
ffffffff80107738:	00000040 	sll	$zero,$zero,0x1

ffffffff8010773c <noInst1>:
ffffffff8010773c:	3c018011 	lui	$at,0x8011
ffffffff80107740:	ac209198 	sw	$zero,-28264($at)
ffffffff80107744:	00001025 	move	$v0,$zero
ffffffff80107748:	03e00008 	jr	$ra
ffffffff8010774c:	408a6000 	mtc0	$t2,$12

ffffffff80107750 <checkTaskReady>:
ffffffff80107750:	8d09003c 	lw	$t1,60($t0)
ffffffff80107754:	1409002c 	bne	$zero,$t1,ffffffff80107808 <saveTaskContext>
ffffffff80107758:	00000000 	nop

ffffffff8010775c <checkWorkQ>:
ffffffff8010775c:	00000040 	sll	$zero,$zero,0x1
ffffffff80107760:	00000040 	sll	$zero,$zero,0x1
ffffffff80107764:	00000040 	sll	$zero,$zero,0x1
ffffffff80107768:	00000040 	sll	$zero,$zero,0x1
ffffffff8010776c:	400a6000 	mfc0	$t2,$12
ffffffff80107770:	2409fffe 	li	$t1,-2
ffffffff80107774:	012a4824 	and	$t1,$t1,$t2
ffffffff80107778:	40896000 	mtc0	$t1,$12
ffffffff8010777c:	00000040 	sll	$zero,$zero,0x1
ffffffff80107780:	00000040 	sll	$zero,$zero,0x1
ffffffff80107784:	00000040 	sll	$zero,$zero,0x1
ffffffff80107788:	00000040 	sll	$zero,$zero,0x1
ffffffff8010778c:	3c088011 	lui	$t0,0x8011
ffffffff80107790:	8d0890a0 	lw	$t0,-28512($t0)
ffffffff80107794:	10080007 	beq	$zero,$t0,ffffffff801077b4 <doWorkPreSave>
ffffffff80107798:	00000000 	nop
ffffffff8010779c:	00000040 	sll	$zero,$zero,0x1

ffffffff801077a0 <noinst4>:
ffffffff801077a0:	3c018011 	lui	$at,0x8011
ffffffff801077a4:	ac209198 	sw	$zero,-28264($at)
ffffffff801077a8:	408a6000 	mtc0	$t2,$12
ffffffff801077ac:	03e00008 	jr	$ra
ffffffff801077b0:	00001025 	move	$v0,$zero

ffffffff801077b4 <doWorkPreSave>:
ffffffff801077b4:	408a6000 	mtc0	$t2,$12
ffffffff801077b8:	27bdffe8 	addiu	$sp,$sp,-24
ffffffff801077bc:	afbf0010 	sw	$ra,16($sp)
ffffffff801077c0:	0c040f7c 	jal	ffffffff80103df0 <workQDoWork>
ffffffff801077c4:	00000000 	nop
ffffffff801077c8:	8fbf0010 	lw	$ra,16($sp)
ffffffff801077cc:	10000005 	b	ffffffff801077e4 <checkTaskSwitch>
ffffffff801077d0:	27bd0018 	addiu	$sp,$sp,24

ffffffff801077d4 <kernelExit>:
ffffffff801077d4:	3c088011 	lui	$t0,0x8011
ffffffff801077d8:	8d0891a4 	lw	$t0,-28252($t0)
ffffffff801077dc:	1408ffca 	bne	$zero,$t0,ffffffff80107708 <kernelExitInt>
ffffffff801077e0:	00000000 	nop

ffffffff801077e4 <checkTaskSwitch>:
ffffffff801077e4:	3c088011 	lui	$t0,0x8011
ffffffff801077e8:	8d08919c 	lw	$t0,-28260($t0)
ffffffff801077ec:	3c098011 	lui	$t1,0x8011
ffffffff801077f0:	8d299430 	lw	$t1,-27600($t1)
ffffffff801077f4:	1109ffd9 	beq	$t0,$t1,ffffffff8010775c <checkWorkQ>
ffffffff801077f8:	00000000 	nop
ffffffff801077fc:	8d090050 	lw	$t1,80($t0)
ffffffff80107800:	1409ffd3 	bne	$zero,$t1,ffffffff80107750 <checkTaskReady>
ffffffff80107804:	00000000 	nop

ffffffff80107808 <saveTaskContext>:
ffffffff80107808:	3c098011 	lui	$t1,0x8011
ffffffff8010780c:	8d299400 	lw	$t1,-27648($t1)
ffffffff80107810:	ad090080 	sw	$t1,128($t0)
ffffffff80107814:	ad1f00cc 	sw	$ra,204($t0)
ffffffff80107818:	00000040 	sll	$zero,$zero,0x1
ffffffff8010781c:	00000040 	sll	$zero,$zero,0x1
ffffffff80107820:	00000040 	sll	$zero,$zero,0x1
ffffffff80107824:	00000040 	sll	$zero,$zero,0x1
ffffffff80107828:	40096000 	mfc0	$t1,$12
ffffffff8010782c:	ad1d014c 	sw	$sp,332($t0)
ffffffff80107830:	ad0900c8 	sw	$t1,200($t0)
ffffffff80107834:	ad0000e0 	sw	$zero,224($t0)
ffffffff80107838:	00005012 	mflo	$t2
ffffffff8010783c:	ad0a00d0 	sw	$t2,208($t0)
ffffffff80107840:	00005010 	mfhi	$t2
ffffffff80107844:	ad0a00d4 	sw	$t2,212($t0)
ffffffff80107848:	ad100118 	sw	$s0,280($t0)
ffffffff8010784c:	ad11011c 	sw	$s1,284($t0)
ffffffff80107850:	ad120120 	sw	$s2,288($t0)
ffffffff80107854:	ad130124 	sw	$s3,292($t0)
ffffffff80107858:	ad140128 	sw	$s4,296($t0)
ffffffff8010785c:	ad15012c 	sw	$s5,300($t0)
ffffffff80107860:	ad160130 	sw	$s6,304($t0)
ffffffff80107864:	ad170134 	sw	$s7,308($t0)
ffffffff80107868:	08041e1c 	j	ffffffff80107870 <reschedule>
ffffffff8010786c:	ad1e0150 	sw	$s8,336($t0)

ffffffff80107870 <reschedule>:
ffffffff80107870:	3c098011 	lui	$t1,0x8011
ffffffff80107874:	8d299430 	lw	$t1,-27600($t1)
ffffffff80107878:	10090040 	beq	$zero,$t1,ffffffff8010797c <idle>
ffffffff8010787c:	00000000 	nop

ffffffff80107880 <switchTasks>:
ffffffff80107880:	3c018011 	lui	$at,0x8011
ffffffff80107884:	ac29919c 	sw	$t1,-28260($at)

ffffffff80107888 <dispatch>:
ffffffff80107888:	3c098011 	lui	$t1,0x8011
ffffffff8010788c:	8d29919c 	lw	$t1,-28260($t1)
ffffffff80107890:	8d280080 	lw	$t0,128($t1)
ffffffff80107894:	3c018011 	lui	$at,0x8011
ffffffff80107898:	ac289400 	sw	$t0,-27648($at)
ffffffff8010789c:	40086000 	mfc0	$t0,$12
ffffffff801078a0:	240afffe 	li	$t2,-2
ffffffff801078a4:	01485024 	and	$t2,$t2,$t0
ffffffff801078a8:	408a6000 	mtc0	$t2,$12
ffffffff801078ac:	00000040 	sll	$zero,$zero,0x1
ffffffff801078b0:	00000040 	sll	$zero,$zero,0x1
ffffffff801078b4:	00000040 	sll	$zero,$zero,0x1
ffffffff801078b8:	00000040 	sll	$zero,$zero,0x1
ffffffff801078bc:	3c1a8011 	lui	$k0,0x8011
ffffffff801078c0:	8f5a90a0 	lw	$k0,-28512($k0)
ffffffff801078c4:	101a003f 	beq	$zero,$k0,ffffffff801079c4 <doWorkUnlock>
ffffffff801078c8:	8d3b00c8 	lw	$k1,200($t1)

ffffffff801078cc <noInst3>:
ffffffff801078cc:	8d3d014c 	lw	$sp,332($t1)
ffffffff801078d0:	8d2400e8 	lw	$a0,232($t1)
ffffffff801078d4:	8d2500ec 	lw	$a1,236($t1)
ffffffff801078d8:	8d2600f0 	lw	$a2,240($t1)
ffffffff801078dc:	8d2700f4 	lw	$a3,244($t1)
ffffffff801078e0:	8d2200e0 	lw	$v0,224($t1)
ffffffff801078e4:	8d2300e4 	lw	$v1,228($t1)
ffffffff801078e8:	8d2a0100 	lw	$t2,256($t1)
ffffffff801078ec:	8d2a00d0 	lw	$t2,208($t1)
ffffffff801078f0:	01400013 	mtlo	$t2
ffffffff801078f4:	8d2a00d4 	lw	$t2,212($t1)
ffffffff801078f8:	01400011 	mthi	$t2
ffffffff801078fc:	8d2b0104 	lw	$t3,260($t1)
ffffffff80107900:	8d2c0108 	lw	$t4,264($t1)
ffffffff80107904:	8d2d010c 	lw	$t5,268($t1)
ffffffff80107908:	8d2e0110 	lw	$t6,272($t1)
ffffffff8010790c:	8d2f0114 	lw	$t7,276($t1)
ffffffff80107910:	8d300118 	lw	$s0,280($t1)
ffffffff80107914:	8d31011c 	lw	$s1,284($t1)
ffffffff80107918:	8d320120 	lw	$s2,288($t1)
ffffffff8010791c:	8d330124 	lw	$s3,292($t1)
ffffffff80107920:	8d340128 	lw	$s4,296($t1)
ffffffff80107924:	8d35012c 	lw	$s5,300($t1)
ffffffff80107928:	8d360130 	lw	$s6,304($t1)
ffffffff8010792c:	8d370134 	lw	$s7,308($t1)
ffffffff80107930:	8d380138 	lw	$t8,312($t1)
ffffffff80107934:	8d39013c 	lw	$t9,316($t1)
ffffffff80107938:	8d3e0150 	lw	$s8,336($t1)
ffffffff8010793c:	8d3f0154 	lw	$ra,340($t1)
ffffffff80107940:	3c018011 	lui	$at,0x8011
ffffffff80107944:	ac209198 	sw	$zero,-28264($at)
ffffffff80107948:	8d3a00cc 	lw	$k0,204($t1)
ffffffff8010794c:	8d2100dc 	lw	$at,220($t1)
ffffffff80107950:	8d2a0100 	lw	$t2,256($t1)
ffffffff80107954:	8d2800f8 	lw	$t0,248($t1)
ffffffff80107958:	8d2900fc 	lw	$t1,252($t1)
ffffffff8010795c:	409a7000 	mtc0	$k0,$14
ffffffff80107960:	377b0002 	ori	$k1,$k1,0x2
ffffffff80107964:	409b6000 	mtc0	$k1,$12
ffffffff80107968:	00000040 	sll	$zero,$zero,0x1
ffffffff8010796c:	00000040 	sll	$zero,$zero,0x1
ffffffff80107970:	00000040 	sll	$zero,$zero,0x1
ffffffff80107974:	00000040 	sll	$zero,$zero,0x1

ffffffff80107978 <ct>:
ffffffff80107978:	42000018 	eret

ffffffff8010797c <idle>:
ffffffff8010797c:	3c0a8011 	lui	$t2,0x8011
ffffffff80107980:	8d4a91a8 	lw	$t2,-28248($t2)
ffffffff80107984:	24080001 	li	$t0,1
ffffffff80107988:	00000040 	sll	$zero,$zero,0x1
ffffffff8010798c:	00000040 	sll	$zero,$zero,0x1
ffffffff80107990:	00000040 	sll	$zero,$zero,0x1
ffffffff80107994:	00000040 	sll	$zero,$zero,0x1
ffffffff80107998:	408a6000 	mtc0	$t2,$12
ffffffff8010799c:	3c018011 	lui	$at,0x8011
ffffffff801079a0:	ac2891a0 	sw	$t0,-28256($at)

ffffffff801079a4 <idleLoop>:
ffffffff801079a4:	3c098011 	lui	$t1,0x8011
ffffffff801079a8:	8d2990a0 	lw	$t1,-28512($t1)
ffffffff801079ac:	1409fffd 	bne	$zero,$t1,ffffffff801079a4 <idleLoop>
ffffffff801079b0:	00000000 	nop
ffffffff801079b4:	3c018011 	lui	$at,0x8011
ffffffff801079b8:	ac2091a0 	sw	$zero,-28256($at)
ffffffff801079bc:	08041e76 	j	ffffffff801079d8 <doWork>
ffffffff801079c0:	00000000 	nop

ffffffff801079c4 <doWorkUnlock>:
ffffffff801079c4:	00000040 	sll	$zero,$zero,0x1
ffffffff801079c8:	00000040 	sll	$zero,$zero,0x1
ffffffff801079cc:	00000040 	sll	$zero,$zero,0x1
ffffffff801079d0:	00000040 	sll	$zero,$zero,0x1
ffffffff801079d4:	40886000 	mtc0	$t0,$12

ffffffff801079d8 <doWork>:
ffffffff801079d8:	0c040f7c 	jal	ffffffff80103df0 <workQDoWork>
ffffffff801079dc:	00000000 	nop
ffffffff801079e0:	3c088011 	lui	$t0,0x8011
ffffffff801079e4:	8d08919c 	lw	$t0,-28260($t0)
ffffffff801079e8:	3c098011 	lui	$t1,0x8011
ffffffff801079ec:	8d299430 	lw	$t1,-27600($t1)
ffffffff801079f0:	1009ffe2 	beq	$zero,$t1,ffffffff8010797c <idle>
ffffffff801079f4:	00000000 	nop
ffffffff801079f8:	1109ffa3 	beq	$t0,$t1,ffffffff80107888 <dispatch>
ffffffff801079fc:	00000000 	nop
ffffffff80107a00:	08041e20 	j	ffffffff80107880 <switchTasks>
ffffffff80107a04:	00000000 	nop

ffffffff80107a08 <kernelTaskEntry>:
ffffffff80107a08:	3c088011 	lui	$t0,0x8011
ffffffff80107a0c:	8d08919c 	lw	$t0,-28260($t0)
ffffffff80107a10:	8d090070 	lw	$t1,112($t0)
ffffffff80107a14:	0120f809 	jalr	$t1
ffffffff80107a18:	00000000 	nop
ffffffff80107a1c:	0c0417ec 	jal	ffffffff80105fb0 <exit>
ffffffff80107a20:	00402025 	move	$a0,$v0

ffffffff80107a24 <intExit>:
ffffffff80107a24:	27bdffd8 	addiu	$sp,$sp,-40
ffffffff80107a28:	afa80010 	sw	$t0,16($sp)
ffffffff80107a2c:	afa90014 	sw	$t1,20($sp)
ffffffff80107a30:	afaa0018 	sw	$t2,24($sp)

ffffffff80107a34 <noIntExit>:
ffffffff80107a34:	3c088011 	lui	$t0,0x8011
ffffffff80107a38:	8d0891a4 	lw	$t0,-28252($t0)
ffffffff80107a3c:	2508ffff 	addiu	$t0,$t0,-1
ffffffff80107a40:	3c018011 	lui	$at,0x8011
ffffffff80107a44:	ac2891a4 	sw	$t0,-28252($at)
ffffffff80107a48:	3c098011 	lui	$t1,0x8011
ffffffff80107a4c:	8d298c50 	lw	$t1,-29616($t1)
ffffffff80107a50:	2529ffff 	addiu	$t1,$t1,-1
ffffffff80107a54:	3c018011 	lui	$at,0x8011
ffffffff80107a58:	ac298c50 	sw	$t1,-29616($at)
ffffffff80107a5c:	3c0a8011 	lui	$t2,0x8011
ffffffff80107a60:	8d4a9198 	lw	$t2,-28264($t2)
ffffffff80107a64:	1540000f 	bnez	$t2,ffffffff80107aa4 <intRte>
ffffffff80107a68:	00000000 	nop
ffffffff80107a6c:	1520000d 	bnez	$t1,ffffffff80107aa4 <intRte>
ffffffff80107a70:	00000000 	nop
ffffffff80107a74:	3c088011 	lui	$t0,0x8011
ffffffff80107a78:	8d08919c 	lw	$t0,-28260($t0)
ffffffff80107a7c:	3c0a8011 	lui	$t2,0x8011
ffffffff80107a80:	8d4a9430 	lw	$t2,-27600($t2)
ffffffff80107a84:	110a0007 	beq	$t0,$t2,ffffffff80107aa4 <intRte>
ffffffff80107a88:	00000000 	nop
ffffffff80107a8c:	8d090050 	lw	$t1,80($t0)
ffffffff80107a90:	10090011 	beq	$zero,$t1,ffffffff80107ad8 <saveIntContext>
ffffffff80107a94:	00000000 	nop
ffffffff80107a98:	8d09003c 	lw	$t1,60($t0)
ffffffff80107a9c:	1409000e 	bne	$zero,$t1,ffffffff80107ad8 <saveIntContext>
ffffffff80107aa0:	00000000 	nop

ffffffff80107aa4 <intRte>:
ffffffff80107aa4:	8fa80010 	lw	$t0,16($sp)
ffffffff80107aa8:	8fa90014 	lw	$t1,20($sp)
ffffffff80107aac:	8faa0018 	lw	$t2,24($sp)
ffffffff80107ab0:	27bd0028 	addiu	$sp,$sp,40
ffffffff80107ab4:	8fba002c 	lw	$k0,44($sp)
ffffffff80107ab8:	8fa1003c 	lw	$at,60($sp)
ffffffff80107abc:	8fbd00ac 	lw	$sp,172($sp)
ffffffff80107ac0:	409a7000 	mtc0	$k0,$14
ffffffff80107ac4:	00000040 	sll	$zero,$zero,0x1
ffffffff80107ac8:	00000040 	sll	$zero,$zero,0x1
ffffffff80107acc:	00000040 	sll	$zero,$zero,0x1
ffffffff80107ad0:	00000040 	sll	$zero,$zero,0x1
ffffffff80107ad4:	42000018 	eret

ffffffff80107ad8 <saveIntContext>:
ffffffff80107ad8:	24090001 	li	$t1,1
ffffffff80107adc:	3c018011 	lui	$at,0x8011
ffffffff80107ae0:	ac299198 	sw	$t1,-28264($at)
ffffffff80107ae4:	3c1a8011 	lui	$k0,0x8011
ffffffff80107ae8:	8f5a919c 	lw	$k0,-28260($k0)
ffffffff80107aec:	3c088011 	lui	$t0,0x8011
ffffffff80107af0:	8d089400 	lw	$t0,-27648($t0)
ffffffff80107af4:	af480080 	sw	$t0,128($k0)
ffffffff80107af8:	8fa80010 	lw	$t0,16($sp)
ffffffff80107afc:	8fa90014 	lw	$t1,20($sp)
ffffffff80107b00:	8faa0018 	lw	$t2,24($sp)
ffffffff80107b04:	af4800f8 	sw	$t0,248($k0)
ffffffff80107b08:	af4900fc 	sw	$t1,252($k0)
ffffffff80107b0c:	af4a0100 	sw	$t2,256($k0)
ffffffff80107b10:	03404025 	move	$t0,$k0
ffffffff80107b14:	27bd0028 	addiu	$sp,$sp,40
ffffffff80107b18:	8faa002c 	lw	$t2,44($sp)
ffffffff80107b1c:	8fa900ac 	lw	$t1,172($sp)
ffffffff80107b20:	ad0a00cc 	sw	$t2,204($t0)
ffffffff80107b24:	ad09014c 	sw	$t1,332($t0)
ffffffff80107b28:	8fa1003c 	lw	$at,60($sp)
ffffffff80107b2c:	ad0100dc 	sw	$at,220($t0)
ffffffff80107b30:	401b6000 	mfc0	$k1,$12
ffffffff80107b34:	00000040 	sll	$zero,$zero,0x1
ffffffff80107b38:	00000040 	sll	$zero,$zero,0x1
ffffffff80107b3c:	00000040 	sll	$zero,$zero,0x1
ffffffff80107b40:	00000040 	sll	$zero,$zero,0x1
ffffffff80107b44:	2401fffd 	li	$at,-3
ffffffff80107b48:	0361d824 	and	$k1,$k1,$at
ffffffff80107b4c:	ad1b00c8 	sw	$k1,200($t0)
ffffffff80107b50:	0120e825 	move	$sp,$t1
ffffffff80107b54:	409b6000 	mtc0	$k1,$12
ffffffff80107b58:	ad0b0104 	sw	$t3,260($t0)
ffffffff80107b5c:	ad0c0108 	sw	$t4,264($t0)
ffffffff80107b60:	ad0d010c 	sw	$t5,268($t0)
ffffffff80107b64:	ad0e0110 	sw	$t6,272($t0)
ffffffff80107b68:	ad0f0114 	sw	$t7,276($t0)
ffffffff80107b6c:	ad0400e8 	sw	$a0,232($t0)
ffffffff80107b70:	ad0500ec 	sw	$a1,236($t0)
ffffffff80107b74:	ad0600f0 	sw	$a2,240($t0)
ffffffff80107b78:	ad0700f4 	sw	$a3,244($t0)
ffffffff80107b7c:	ad0200e0 	sw	$v0,224($t0)
ffffffff80107b80:	ad0300e4 	sw	$v1,228($t0)
ffffffff80107b84:	00001012 	mflo	$v0
ffffffff80107b88:	00001810 	mfhi	$v1
ffffffff80107b8c:	ad0200d0 	sw	$v0,208($t0)
ffffffff80107b90:	ad0300d4 	sw	$v1,212($t0)
ffffffff80107b94:	ad100118 	sw	$s0,280($t0)
ffffffff80107b98:	ad11011c 	sw	$s1,284($t0)
ffffffff80107b9c:	ad120120 	sw	$s2,288($t0)
ffffffff80107ba0:	ad130124 	sw	$s3,292($t0)
ffffffff80107ba4:	ad140128 	sw	$s4,296($t0)
ffffffff80107ba8:	ad15012c 	sw	$s5,300($t0)
ffffffff80107bac:	ad160130 	sw	$s6,304($t0)
ffffffff80107bb0:	ad170134 	sw	$s7,308($t0)
ffffffff80107bb4:	ad180138 	sw	$t8,312($t0)
ffffffff80107bb8:	ad19013c 	sw	$t9,316($t0)
ffffffff80107bbc:	ad1e0150 	sw	$s8,336($t0)
ffffffff80107bc0:	08041e1c 	j	ffffffff80107870 <reschedule>
ffffffff80107bc4:	ad1f0154 	sw	$ra,340($t0)

ffffffff80107bc8 <intLock>:
ffffffff80107bc8:	40026000 	mfc0	$v0,$12
ffffffff80107bcc:	00000040 	sll	$zero,$zero,0x1
ffffffff80107bd0:	00000040 	sll	$zero,$zero,0x1
ffffffff80107bd4:	00000040 	sll	$zero,$zero,0x1
ffffffff80107bd8:	00000040 	sll	$zero,$zero,0x1
ffffffff80107bdc:	2409fffe 	li	$t1,-2
ffffffff80107be0:	01224824 	and	$t1,$t1,$v0
ffffffff80107be4:	40896000 	mtc0	$t1,$12
ffffffff80107be8:	00000040 	sll	$zero,$zero,0x1
ffffffff80107bec:	00000040 	sll	$zero,$zero,0x1
ffffffff80107bf0:	00000040 	sll	$zero,$zero,0x1
ffffffff80107bf4:	03e00008 	jr	$ra
ffffffff80107bf8:	00000040 	sll	$zero,$zero,0x1

ffffffff80107bfc <intUnlock>:
ffffffff80107bfc:	40846000 	mtc0	$a0,$12
ffffffff80107c00:	00000040 	sll	$zero,$zero,0x1
ffffffff80107c04:	00000040 	sll	$zero,$zero,0x1
ffffffff80107c08:	00000040 	sll	$zero,$zero,0x1
ffffffff80107c0c:	03e00008 	jr	$ra
ffffffff80107c10:	00000040 	sll	$zero,$zero,0x1

ffffffff80107c14 <kLogChar>:
ffffffff80107c14:	3c08b400 	lui	$t0,0xb400
ffffffff80107c18:	350802f8 	ori	$t0,$t0,0x2f8
ffffffff80107c1c:	81090005 	lb	$t1,5($t0)
ffffffff80107c20:	31290020 	andi	$t1,$t1,0x20
ffffffff80107c24:	1120fffb 	beqz	$t1,ffffffff80107c14 <kLogChar>
ffffffff80107c28:	00000000 	nop
ffffffff80107c2c:	03e00008 	jr	$ra
ffffffff80107c30:	a1040000 	sb	$a0,0($t0)
	...

ffffffff80107c40 <dllInit>:
ffffffff80107c40:	ac800004 	sw	$zero,4($a0)
ffffffff80107c44:	ac800000 	sw	$zero,0($a0)
ffffffff80107c48:	03e00008 	jr	$ra
ffffffff80107c4c:	00001025 	move	$v0,$zero

ffffffff80107c50 <dllDelete>:
ffffffff80107c50:	03e00008 	jr	$ra
ffffffff80107c54:	00001025 	move	$v0,$zero

ffffffff80107c58 <dllInsert>:
ffffffff80107c58:	54a00004 	bnezl	$a1,ffffffff80107c6c <dllInsert+0x14>
ffffffff80107c5c:	8ca20000 	lw	$v0,0($a1)
ffffffff80107c60:	8c820000 	lw	$v0,0($a0)
ffffffff80107c64:	08041f1c 	j	ffffffff80107c70 <dllInsert+0x18>
ffffffff80107c68:	ac860000 	sw	$a2,0($a0)
ffffffff80107c6c:	aca60000 	sw	$a2,0($a1)
ffffffff80107c70:	54400002 	bnezl	$v0,ffffffff80107c7c <dllInsert+0x24>
ffffffff80107c74:	ac460004 	sw	$a2,4($v0)
ffffffff80107c78:	ac860004 	sw	$a2,4($a0)
ffffffff80107c7c:	acc50004 	sw	$a1,4($a2)
ffffffff80107c80:	03e00008 	jr	$ra
ffffffff80107c84:	acc20000 	sw	$v0,0($a2)

ffffffff80107c88 <dllAdd>:
ffffffff80107c88:	27bdffe8 	addiu	$sp,$sp,-24
ffffffff80107c8c:	afbf0010 	sw	$ra,16($sp)
ffffffff80107c90:	00a03025 	move	$a2,$a1
ffffffff80107c94:	8fbf0010 	lw	$ra,16($sp)
ffffffff80107c98:	8c850004 	lw	$a1,4($a0)
ffffffff80107c9c:	08041f16 	j	ffffffff80107c58 <dllInsert>
ffffffff80107ca0:	27bd0018 	addiu	$sp,$sp,24

ffffffff80107ca4 <dllRemove>:
ffffffff80107ca4:	8ca30004 	lw	$v1,4($a1)
ffffffff80107ca8:	14600003 	bnez	$v1,ffffffff80107cb8 <dllRemove+0x14>
ffffffff80107cac:	8ca20000 	lw	$v0,0($a1)
ffffffff80107cb0:	08041f2f 	j	ffffffff80107cbc <dllRemove+0x18>
ffffffff80107cb4:	ac820000 	sw	$v0,0($a0)
ffffffff80107cb8:	ac620000 	sw	$v0,0($v1)
ffffffff80107cbc:	8ca30000 	lw	$v1,0($a1)
ffffffff80107cc0:	14600003 	bnez	$v1,ffffffff80107cd0 <dllRemove+0x2c>
ffffffff80107cc4:	8ca20004 	lw	$v0,4($a1)
ffffffff80107cc8:	03e00008 	jr	$ra
ffffffff80107ccc:	ac820004 	sw	$v0,4($a0)
ffffffff80107cd0:	03e00008 	jr	$ra
ffffffff80107cd4:	ac620004 	sw	$v0,4($v1)

ffffffff80107cd8 <dllGet>:
ffffffff80107cd8:	8c850000 	lw	$a1,0($a0)
ffffffff80107cdc:	10a00008 	beqz	$a1,ffffffff80107d00 <dllGet+0x28>
ffffffff80107ce0:	00a01025 	move	$v0,$a1
ffffffff80107ce4:	8ca30000 	lw	$v1,0($a1)
ffffffff80107ce8:	ac830000 	sw	$v1,0($a0)
ffffffff80107cec:	8ca30000 	lw	$v1,0($a1)
ffffffff80107cf0:	54600003 	bnezl	$v1,ffffffff80107d00 <dllGet+0x28>
ffffffff80107cf4:	ac600004 	sw	$zero,4($v1)
ffffffff80107cf8:	03e00008 	jr	$ra
ffffffff80107cfc:	ac800004 	sw	$zero,4($a0)
ffffffff80107d00:	03e00008 	jr	$ra
ffffffff80107d04:	00000000 	nop

ffffffff80107d08 <dllCount>:
ffffffff80107d08:	8c840000 	lw	$a0,0($a0)
ffffffff80107d0c:	10800004 	beqz	$a0,ffffffff80107d20 <dllCount+0x18>
ffffffff80107d10:	00001025 	move	$v0,$zero
ffffffff80107d14:	8c840000 	lw	$a0,0($a0)
ffffffff80107d18:	1480fffe 	bnez	$a0,ffffffff80107d14 <dllCount+0xc>
ffffffff80107d1c:	24420001 	addiu	$v0,$v0,1
ffffffff80107d20:	03e00008 	jr	$ra
	...
ffffffff80107d30:	08200800 	j	ffffffff80802000 <_gp+0x6f0d50>
ffffffff80107d34:	00000000 	nop
ffffffff80107d38:	8010059c 	lb	$s0,1436($zero)
ffffffff80107d3c:	801005c0 	lb	$s0,1472($zero)
ffffffff80107d40:	801005c0 	lb	$s0,1472($zero)
ffffffff80107d44:	801005c0 	lb	$s0,1472($zero)
ffffffff80107d48:	801005c0 	lb	$s0,1472($zero)
ffffffff80107d4c:	801005c0 	lb	$s0,1472($zero)
ffffffff80107d50:	80100578 	lb	$s0,1400($zero)
ffffffff80107d54:	801005c0 	lb	$s0,1472($zero)
ffffffff80107d58:	801005c0 	lb	$s0,1472($zero)
ffffffff80107d5c:	801005c0 	lb	$s0,1472($zero)
ffffffff80107d60:	801005c0 	lb	$s0,1472($zero)
ffffffff80107d64:	801005c0 	lb	$s0,1472($zero)
ffffffff80107d68:	801005c0 	lb	$s0,1472($zero)
ffffffff80107d6c:	801005c0 	lb	$s0,1472($zero)
ffffffff80107d70:	801005c0 	lb	$s0,1472($zero)
ffffffff80107d74:	801005c0 	lb	$s0,1472($zero)
ffffffff80107d78:	80100554 	lb	$s0,1364($zero)
ffffffff80107d7c:	801005c0 	lb	$s0,1472($zero)
ffffffff80107d80:	801005c0 	lb	$s0,1472($zero)
ffffffff80107d84:	801005c0 	lb	$s0,1472($zero)
ffffffff80107d88:	801005c0 	lb	$s0,1472($zero)
ffffffff80107d8c:	801005c0 	lb	$s0,1472($zero)
ffffffff80107d90:	801005c0 	lb	$s0,1472($zero)
ffffffff80107d94:	801005c0 	lb	$s0,1472($zero)
ffffffff80107d98:	801005c0 	lb	$s0,1472($zero)
ffffffff80107d9c:	801005c0 	lb	$s0,1472($zero)
ffffffff80107da0:	801005c0 	lb	$s0,1472($zero)
ffffffff80107da4:	801005c0 	lb	$s0,1472($zero)
ffffffff80107da8:	801005c0 	lb	$s0,1472($zero)
ffffffff80107dac:	801005c0 	lb	$s0,1472($zero)
ffffffff80107db0:	801005c0 	lb	$s0,1472($zero)
ffffffff80107db4:	801005c0 	lb	$s0,1472($zero)
ffffffff80107db8:	8010059c 	lb	$s0,1436($zero)
ffffffff80107dbc:	801005c0 	lb	$s0,1472($zero)
ffffffff80107dc0:	801005c0 	lb	$s0,1472($zero)
ffffffff80107dc4:	801005c0 	lb	$s0,1472($zero)
ffffffff80107dc8:	801005c0 	lb	$s0,1472($zero)
ffffffff80107dcc:	801005c0 	lb	$s0,1472($zero)
ffffffff80107dd0:	80100578 	lb	$s0,1400($zero)
ffffffff80107dd4:	801005c0 	lb	$s0,1472($zero)
ffffffff80107dd8:	801005c0 	lb	$s0,1472($zero)
ffffffff80107ddc:	801005c0 	lb	$s0,1472($zero)
ffffffff80107de0:	801005c0 	lb	$s0,1472($zero)
ffffffff80107de4:	801005c0 	lb	$s0,1472($zero)
ffffffff80107de8:	801005c0 	lb	$s0,1472($zero)
ffffffff80107dec:	801005c0 	lb	$s0,1472($zero)
ffffffff80107df0:	801005c0 	lb	$s0,1472($zero)
ffffffff80107df4:	801005c0 	lb	$s0,1472($zero)
ffffffff80107df8:	80100554 	lb	$s0,1364($zero)
ffffffff80107dfc:	00000000 	nop
ffffffff80107e00:	0a0a2573 	j	ffffffff882895cc <_gp+0x817831c>
ffffffff80107e04:	20566572 	addi	$s6,$v0,25970
ffffffff80107e08:	20257320 	addi	$a1,$at,29472
ffffffff80107e0c:	666f7220 	0x666f7220
ffffffff80107e10:	2573203a 	addiu	$s3,$t3,8250
ffffffff80107e14:	25730a00 	addiu	$s3,$t3,2560
ffffffff80107e18:	4d495053 	0x4d495053
ffffffff80107e1c:	5f524149 	0x5f524149
ffffffff80107e20:	4e000000 	c3	0x0
ffffffff80107e24:	312e3030 	andi	$t6,$t1,0x3030
ffffffff80107e28:	00000000 	nop
ffffffff80107e2c:	344b6320 	ori	$t3,$v0,0x6320
ffffffff80107e30:	284d4950 	slti	$t5,$v0,18768
ffffffff80107e34:	5320344b 	beqzl	$t9,ffffffff80114f64 <_gp+0x3cb4>
ffffffff80107e38:	2070726f 	addi	$s0,$v1,29295
ffffffff80107e3c:	63657373 	0x63657373
ffffffff80107e40:	6f722900 	0x6f722900
ffffffff80107e44:	33304a61 	andi	$s0,$t9,0x4a61
ffffffff80107e48:	6e313200 	0x6e313200
ffffffff80107e4c:	4275696c 	c0	0x75696c
ffffffff80107e50:	74207573 	jalx	ffffffff8081d5cc <_gp+0x70c31c>
ffffffff80107e54:	696e6720 	0x696e6720
ffffffff80107e58:	2573206f 	addiu	$s3,$t3,8303
ffffffff80107e5c:	6e202573 	0x6e202573
ffffffff80107e60:	203c2573 	addi	$gp,$at,9587
ffffffff80107e64:	3e0a0000 	0x3e0a0000
ffffffff80107e68:	6d697073 	0x6d697073
ffffffff80107e6c:	2d656c66 	sltiu	$a1,$t3,27750
ffffffff80107e70:	2d676363 	sltiu	$a3,$t3,25443
ffffffff80107e74:	00000000 	nop
ffffffff80107e78:	41707220 	0x41707220
ffffffff80107e7c:	32342032 	andi	$s4,$s1,0x2032
ffffffff80107e80:	30313300 	andi	$s1,$at,0x3300
ffffffff80107e84:	32333a30 	andi	$s3,$s1,0x3a30
ffffffff80107e88:	383a3535 	xori	$k0,$at,0x3535
ffffffff80107e8c:	00000000 	nop
ffffffff80107e90:	44657665 	0x44657665
ffffffff80107e94:	6c6f7065 	0x6c6f7065
ffffffff80107e98:	64206279 	0x64206279
ffffffff80107e9c:	2025730a 	addi	$a1,$at,29450
ffffffff80107ea0:	0a000000 	j	ffffffff88000000 <_gp+0x7eeed50>
ffffffff80107ea4:	4a616e73 	c2	0x616e73
ffffffff80107ea8:	6f6e2c20 	0x6f6e2c20
ffffffff80107eac:	68747470 	0x68747470
ffffffff80107eb0:	3a2f2f77 	xori	$t7,$s1,0x2f77
ffffffff80107eb4:	77772e67 	jalx	ffffffff8ddcb99c <_gp+0xdcba6ec>
ffffffff80107eb8:	616e6461 	0x616e6461
ffffffff80107ebc:	6e63696e 	0x6e63696e
ffffffff80107ec0:	672e636f 	0x672e636f
ffffffff80107ec4:	6d2f0000 	0x6d2f0000
ffffffff80107ec8:	6b65726e 	0x6b65726e
ffffffff80107ecc:	656c5374 	0x656c5374
ffffffff80107ed0:	61727420 	0x61727420
ffffffff80107ed4:	704d656d 	0x704d656d
ffffffff80107ed8:	506f6f6c 	beql	$v1,$t7,ffffffff80123c8c <_gp+0x129dc>
ffffffff80107edc:	53746172 	beql	$k1,$s4,ffffffff801204a8 <_gp+0xf1f8>
ffffffff80107ee0:	743a3078 	jalx	ffffffff80e8c1e0 <_gp+0xd7af30>
ffffffff80107ee4:	2578206d 	addiu	$t8,$t3,8301
ffffffff80107ee8:	656d506f 	0x656d506f
ffffffff80107eec:	6f6c5369 	0x6f6c5369
ffffffff80107ef0:	7a653a30 	0x7a653a30
ffffffff80107ef4:	7825780a 	0x7825780a
ffffffff80107ef8:	00000000 	nop
ffffffff80107efc:	2d2d2d2d 	sltiu	$t5,$t1,11565
ffffffff80107f00:	2d2d2d2d 	sltiu	$t5,$t1,11565
ffffffff80107f04:	2d534845 	sltiu	$s3,$t2,18501
ffffffff80107f08:	4c4c2053 	0x4c4c2053
ffffffff80107f0c:	54415254 	bnel	$v0,$at,ffffffff8011c860 <_gp+0xb5b0>
ffffffff80107f10:	2d2d2d2d 	sltiu	$t5,$t1,11565
ffffffff80107f14:	2d2d2d2d 	sltiu	$t5,$t1,11565
ffffffff80107f18:	2d0a2d2d 	sltiu	$t2,$t0,11565
ffffffff80107f1c:	3e200000 	0x3e200000
ffffffff80107f20:	0a2d2d3e 	j	ffffffff88b4b4f8 <_gp+0x8a3a248>
ffffffff80107f24:	20000000 	addi	$zero,$zero,0
	...
ffffffff80107f30:	30313233 	andi	$s1,$at,0x3233
ffffffff80107f34:	34353637 	ori	$s5,$at,0x3637
ffffffff80107f38:	38396162 	xori	$t9,$at,0x6162
ffffffff80107f3c:	63646566 	0x63646566
ffffffff80107f40:	00000000 	nop
ffffffff80107f44:	286e756c 	slti	$t6,$v1,30060
ffffffff80107f48:	6c290000 	0x6c290000
ffffffff80107f4c:	30313233 	andi	$s1,$at,0x3233
ffffffff80107f50:	34353637 	ori	$s5,$at,0x3637
ffffffff80107f54:	38394142 	xori	$t9,$at,0x4142
ffffffff80107f58:	43444546 	c0	0x1444546
ffffffff80107f5c:	00000000 	nop
ffffffff80107f60:	8010125c 	lb	$s0,4700($zero)
ffffffff80107f64:	80101264 	lb	$s0,4708($zero)
ffffffff80107f68:	80101264 	lb	$s0,4708($zero)
ffffffff80107f6c:	80101264 	lb	$s0,4708($zero)
ffffffff80107f70:	80101264 	lb	$s0,4708($zero)
ffffffff80107f74:	80101264 	lb	$s0,4708($zero)
ffffffff80107f78:	80101264 	lb	$s0,4708($zero)
ffffffff80107f7c:	80101264 	lb	$s0,4708($zero)
ffffffff80107f80:	80101264 	lb	$s0,4708($zero)
ffffffff80107f84:	80101264 	lb	$s0,4708($zero)
ffffffff80107f88:	80101264 	lb	$s0,4708($zero)
ffffffff80107f8c:	80101264 	lb	$s0,4708($zero)
ffffffff80107f90:	80101264 	lb	$s0,4708($zero)
ffffffff80107f94:	80101264 	lb	$s0,4708($zero)
ffffffff80107f98:	80101264 	lb	$s0,4708($zero)
ffffffff80107f9c:	80101264 	lb	$s0,4708($zero)
ffffffff80107fa0:	80101264 	lb	$s0,4708($zero)
ffffffff80107fa4:	80101264 	lb	$s0,4708($zero)
ffffffff80107fa8:	80101264 	lb	$s0,4708($zero)
ffffffff80107fac:	80101264 	lb	$s0,4708($zero)
ffffffff80107fb0:	80101264 	lb	$s0,4708($zero)
ffffffff80107fb4:	80101264 	lb	$s0,4708($zero)
ffffffff80107fb8:	80101264 	lb	$s0,4708($zero)
ffffffff80107fbc:	80101264 	lb	$s0,4708($zero)
ffffffff80107fc0:	80101264 	lb	$s0,4708($zero)
ffffffff80107fc4:	80101264 	lb	$s0,4708($zero)
ffffffff80107fc8:	80101264 	lb	$s0,4708($zero)
ffffffff80107fcc:	80101264 	lb	$s0,4708($zero)
ffffffff80107fd0:	80101264 	lb	$s0,4708($zero)
ffffffff80107fd4:	80101264 	lb	$s0,4708($zero)
ffffffff80107fd8:	80101264 	lb	$s0,4708($zero)
ffffffff80107fdc:	80101264 	lb	$s0,4708($zero)
ffffffff80107fe0:	80100ca0 	lb	$s0,3232($zero)
ffffffff80107fe4:	80101264 	lb	$s0,4708($zero)
ffffffff80107fe8:	80101264 	lb	$s0,4708($zero)
ffffffff80107fec:	80100cb0 	lb	$s0,3248($zero)
ffffffff80107ff0:	80101264 	lb	$s0,4708($zero)
ffffffff80107ff4:	80101264 	lb	$s0,4708($zero)
ffffffff80107ff8:	80101264 	lb	$s0,4708($zero)
ffffffff80107ffc:	80101264 	lb	$s0,4708($zero)
ffffffff80108000:	80101264 	lb	$s0,4708($zero)
ffffffff80108004:	80101264 	lb	$s0,4708($zero)
ffffffff80108008:	80100cb8 	lb	$s0,3256($zero)
ffffffff8010800c:	80100cec 	lb	$s0,3308($zero)
ffffffff80108010:	80101264 	lb	$s0,4708($zero)
ffffffff80108014:	80100ce4 	lb	$s0,3300($zero)
ffffffff80108018:	80100cf4 	lb	$s0,3316($zero)
ffffffff8010801c:	80101264 	lb	$s0,4708($zero)
ffffffff80108020:	80100d88 	lb	$s0,3464($zero)
ffffffff80108024:	80100d90 	lb	$s0,3472($zero)
ffffffff80108028:	80100d90 	lb	$s0,3472($zero)
ffffffff8010802c:	80100d90 	lb	$s0,3472($zero)
ffffffff80108030:	80100d90 	lb	$s0,3472($zero)
ffffffff80108034:	80100d90 	lb	$s0,3472($zero)
ffffffff80108038:	80100d90 	lb	$s0,3472($zero)
ffffffff8010803c:	80100d90 	lb	$s0,3472($zero)
ffffffff80108040:	80100d90 	lb	$s0,3472($zero)
ffffffff80108044:	80100d90 	lb	$s0,3472($zero)
ffffffff80108048:	80101264 	lb	$s0,4708($zero)
ffffffff8010804c:	80101264 	lb	$s0,4708($zero)
ffffffff80108050:	80101264 	lb	$s0,4708($zero)
ffffffff80108054:	80101264 	lb	$s0,4708($zero)
ffffffff80108058:	80101264 	lb	$s0,4708($zero)
ffffffff8010805c:	80101264 	lb	$s0,4708($zero)
ffffffff80108060:	80101264 	lb	$s0,4708($zero)
ffffffff80108064:	80101264 	lb	$s0,4708($zero)
ffffffff80108068:	80101264 	lb	$s0,4708($zero)
ffffffff8010806c:	80101264 	lb	$s0,4708($zero)
ffffffff80108070:	80100e28 	lb	$s0,3624($zero)
ffffffff80108074:	80101264 	lb	$s0,4708($zero)
ffffffff80108078:	80101264 	lb	$s0,4708($zero)
ffffffff8010807c:	80101264 	lb	$s0,4708($zero)
ffffffff80108080:	80101264 	lb	$s0,4708($zero)
ffffffff80108084:	80101264 	lb	$s0,4708($zero)
ffffffff80108088:	80101264 	lb	$s0,4708($zero)
ffffffff8010808c:	80101264 	lb	$s0,4708($zero)
ffffffff80108090:	80100de4 	lb	$s0,3556($zero)
ffffffff80108094:	80101264 	lb	$s0,4708($zero)
ffffffff80108098:	80101264 	lb	$s0,4708($zero)
ffffffff8010809c:	80100ecc 	lb	$s0,3788($zero)
ffffffff801080a0:	80101264 	lb	$s0,4708($zero)
ffffffff801080a4:	80101264 	lb	$s0,4708($zero)
ffffffff801080a8:	80101264 	lb	$s0,4708($zero)
ffffffff801080ac:	80101264 	lb	$s0,4708($zero)
ffffffff801080b0:	80101264 	lb	$s0,4708($zero)
ffffffff801080b4:	80100f94 	lb	$s0,3988($zero)
ffffffff801080b8:	80101264 	lb	$s0,4708($zero)
ffffffff801080bc:	80101264 	lb	$s0,4708($zero)
ffffffff801080c0:	80100fd4 	lb	$s0,4052($zero)
ffffffff801080c4:	80101264 	lb	$s0,4708($zero)
ffffffff801080c8:	80101264 	lb	$s0,4708($zero)
ffffffff801080cc:	80101264 	lb	$s0,4708($zero)
ffffffff801080d0:	80101264 	lb	$s0,4708($zero)
ffffffff801080d4:	80101264 	lb	$s0,4708($zero)
ffffffff801080d8:	80101264 	lb	$s0,4708($zero)
ffffffff801080dc:	80101264 	lb	$s0,4708($zero)
ffffffff801080e0:	80101264 	lb	$s0,4708($zero)
ffffffff801080e4:	80101264 	lb	$s0,4708($zero)
ffffffff801080e8:	80101264 	lb	$s0,4708($zero)
ffffffff801080ec:	80100dfc 	lb	$s0,3580($zero)
ffffffff801080f0:	80100e2c 	lb	$s0,3628($zero)
ffffffff801080f4:	80101264 	lb	$s0,4708($zero)
ffffffff801080f8:	80101264 	lb	$s0,4708($zero)
ffffffff801080fc:	80101264 	lb	$s0,4708($zero)
ffffffff80108100:	80100dec 	lb	$s0,3564($zero)
ffffffff80108104:	80100e2c 	lb	$s0,3628($zero)
ffffffff80108108:	80101264 	lb	$s0,4708($zero)
ffffffff8010810c:	80101264 	lb	$s0,4708($zero)
ffffffff80108110:	80100df4 	lb	$s0,3572($zero)
ffffffff80108114:	80101264 	lb	$s0,4708($zero)
ffffffff80108118:	80100e74 	lb	$s0,3700($zero)
ffffffff8010811c:	80100ed0 	lb	$s0,3792($zero)
ffffffff80108120:	80100f0c 	lb	$s0,3852($zero)
ffffffff80108124:	80101264 	lb	$s0,4708($zero)
ffffffff80108128:	80101264 	lb	$s0,4708($zero)
ffffffff8010812c:	80100f2c 	lb	$s0,3884($zero)
ffffffff80108130:	80101264 	lb	$s0,4708($zero)
ffffffff80108134:	80100f98 	lb	$s0,3992($zero)
ffffffff80108138:	80101264 	lb	$s0,4708($zero)
ffffffff8010813c:	80101264 	lb	$s0,4708($zero)
ffffffff80108140:	80100fe0 	lb	$s0,4064($zero)
	...
ffffffff80108150:	456e7465 	0x456e7465
ffffffff80108154:	72696e67 	0x72696e67
ffffffff80108158:	2077696e 	addi	$s7,$v1,26990
ffffffff8010815c:	6444656d 	0x6444656d
ffffffff80108160:	6f0a0000 	0x6f0a0000
ffffffff80108164:	74486967 	jalx	ffffffff8121a59c <_gp+0x11092ec>
ffffffff80108168:	68507269 	0x68507269
ffffffff8010816c:	00000000 	nop
ffffffff80108170:	744c6f77 	jalx	ffffffff8131bddc <_gp+0x120ab2c>
ffffffff80108174:	50726900 	beql	$v1,$s2,ffffffff80122578 <_gp+0x112c8>
ffffffff80108178:	0a506172 	j	ffffffff894185c8 <_gp+0x9307318>
ffffffff8010817c:	656e7420 	0x656e7420
ffffffff80108180:	64656d6f 	0x64656d6f
ffffffff80108184:	20686173 	addi	$t0,$v1,24947
ffffffff80108188:	206a7573 	addi	$t2,$v1,30067
ffffffff8010818c:	7420636f 	jalx	ffffffff80818dbc <_gp+0x707b0c>
ffffffff80108190:	6d706c65 	0x6d706c65
ffffffff80108194:	74656420 	jalx	ffffffff81959080 <_gp+0x1847dd0>
ffffffff80108198:	6c6f6f70 	0x6c6f6f70
ffffffff8010819c:	206e756d 	addi	$t6,$v1,30061
ffffffff801081a0:	62657220 	0x62657220
ffffffff801081a4:	25640a00 	addiu	$a0,$t3,2560
ffffffff801081a8:	48656c6c 	0x48656c6c
ffffffff801081ac:	6f206672 	0x6f206672
ffffffff801081b0:	6f6d2074 	0x6f6d2074
ffffffff801081b4:	68652027 	0x68652027
ffffffff801081b8:	68696768 	0x68696768
ffffffff801081bc:	20707269 	addi	$s0,$v1,29289
ffffffff801081c0:	6f726974 	0x6f726974
ffffffff801081c4:	79272074 	0x79272074
ffffffff801081c8:	61736b00 	0x61736b00
ffffffff801081cc:	25730a20 	addiu	$s3,$t3,2592
ffffffff801081d0:	4e756d62 	c3	0x756d62
ffffffff801081d4:	6572206f 	0x6572206f
ffffffff801081d8:	66206974 	0x66206974
ffffffff801081dc:	65726174 	0x65726174
ffffffff801081e0:	696f6e73 	0x696f6e73
ffffffff801081e4:	20697320 	addi	$t1,$v1,29472
ffffffff801081e8:	25640a00 	addiu	$a0,$t3,2560
ffffffff801081ec:	25730a20 	addiu	$s3,$t3,2592
ffffffff801081f0:	4e756d62 	c3	0x756d62
ffffffff801081f4:	6572206f 	0x6572206f
ffffffff801081f8:	66206974 	0x66206974
ffffffff801081fc:	65726174 	0x65726174
ffffffff80108200:	696f6e73 	0x696f6e73
ffffffff80108204:	20627920 	addi	$v0,$v1,31008
ffffffff80108208:	74686973 	jalx	ffffffff81a1a5cc <_gp+0x190931c>
ffffffff8010820c:	20746173 	addi	$s4,$v1,24947
ffffffff80108210:	6b206973 	0x6b206973
ffffffff80108214:	3a202564 	xori	$zero,$s1,0x2564
ffffffff80108218:	0a000000 	j	ffffffff88000000 <_gp+0x7eeed50>
ffffffff8010821c:	48656c6c 	0x48656c6c
ffffffff80108220:	6f206672 	0x6f206672
ffffffff80108224:	6f6d2074 	0x6f6d2074
ffffffff80108228:	68652027 	0x68652027
ffffffff8010822c:	6c6f7720 	0x6c6f7720
ffffffff80108230:	7072696f 	0x7072696f
ffffffff80108234:	72697479 	0x72697479
ffffffff80108238:	27207461 	addiu	$zero,$t9,29793
ffffffff8010823c:	736b0000 	madd	$k1,$t3
ffffffff80108240:	4920616d 	0x4920616d
ffffffff80108244:	20746173 	addi	$s4,$v1,24947
ffffffff80108248:	6b4f6e65 	0x6b4f6e65
ffffffff8010824c:	20616e64 	addi	$at,$v1,28260
ffffffff80108250:	20676c6f 	addi	$a3,$v1,27759
ffffffff80108254:	62616c20 	0x62616c20
ffffffff80108258:	3d202564 	0x3d202564
ffffffff8010825c:	2e2e2e2e 	sltiu	$t6,$s1,11822
ffffffff80108260:	2e2e2e2e 	sltiu	$t6,$s1,11822
ffffffff80108264:	2e2e2e2e 	sltiu	$t6,$s1,11822
ffffffff80108268:	2e2e2e2e 	sltiu	$t6,$s1,11822
ffffffff8010826c:	2e2e2e0a 	sltiu	$t6,$s1,11786
ffffffff80108270:	00000000 	nop
ffffffff80108274:	4920616d 	0x4920616d
ffffffff80108278:	20746173 	addi	$s4,$v1,24947
ffffffff8010827c:	6b546f77 	0x6b546f77
ffffffff80108280:	20616e64 	addi	$at,$v1,28260
ffffffff80108284:	20676c6f 	addi	$a3,$v1,27759
ffffffff80108288:	62616c20 	0x62616c20
ffffffff8010828c:	3d202564 	0x3d202564
ffffffff80108290:	2e2e2e2e 	sltiu	$t6,$s1,11822
ffffffff80108294:	2e2e2e2e 	sltiu	$t6,$s1,11822
ffffffff80108298:	2e2e2e2e 	sltiu	$t6,$s1,11822
ffffffff8010829c:	2e2e2e2e 	sltiu	$t6,$s1,11822
ffffffff801082a0:	2e2e2e0a 	sltiu	$t6,$s1,11786
ffffffff801082a4:	00000000 	nop
ffffffff801082a8:	7461736b 	jalx	ffffffff8185cdac <_gp+0x174bafc>
ffffffff801082ac:	31000000 	andi	$zero,$t0,0x0
ffffffff801082b0:	7461736b 	jalx	ffffffff8185cdac <_gp+0x174bafc>
ffffffff801082b4:	32000000 	andi	$zero,$s0,0x0
	...
ffffffff801082c0:	4920616d 	0x4920616d
ffffffff801082c4:	20746173 	addi	$s4,$v1,24947
ffffffff801082c8:	6b4f6e65 	0x6b4f6e65
ffffffff801082cc:	20616e64 	addi	$at,$v1,28260
ffffffff801082d0:	20676c6f 	addi	$a3,$v1,27759
ffffffff801082d4:	62616c20 	0x62616c20
ffffffff801082d8:	3d202564 	0x3d202564
ffffffff801082dc:	2e2e2e2e 	sltiu	$t6,$s1,11822
ffffffff801082e0:	2e2e2e2e 	sltiu	$t6,$s1,11822
ffffffff801082e4:	2e2e2e2e 	sltiu	$t6,$s1,11822
ffffffff801082e8:	2e2e2e2e 	sltiu	$t6,$s1,11822
ffffffff801082ec:	2e2e2e0a 	sltiu	$t6,$s1,11786
ffffffff801082f0:	00000000 	nop
ffffffff801082f4:	4920616d 	0x4920616d
ffffffff801082f8:	20746173 	addi	$s4,$v1,24947
ffffffff801082fc:	6b546f77 	0x6b546f77
ffffffff80108300:	20616e64 	addi	$at,$v1,28260
ffffffff80108304:	20676c6f 	addi	$a3,$v1,27759
ffffffff80108308:	62616c20 	0x62616c20
ffffffff8010830c:	3d202564 	0x3d202564
ffffffff80108310:	2e2e2e2e 	sltiu	$t6,$s1,11822
ffffffff80108314:	2e2e2e2e 	sltiu	$t6,$s1,11822
ffffffff80108318:	2e2e2e2e 	sltiu	$t6,$s1,11822
ffffffff8010831c:	2e2e2e2e 	sltiu	$t6,$s1,11822
ffffffff80108320:	2e2e2e0a 	sltiu	$t6,$s1,11786
ffffffff80108324:	00000000 	nop
ffffffff80108328:	7461736b 	jalx	ffffffff8185cdac <_gp+0x174bafc>
ffffffff8010832c:	31000000 	andi	$zero,$t0,0x0
ffffffff80108330:	7461736b 	jalx	ffffffff8185cdac <_gp+0x174bafc>
ffffffff80108334:	32000000 	andi	$zero,$s0,0x0
	...
ffffffff80108340:	52656365 	beql	$s3,$a1,ffffffff801210d8 <_gp+0xfe28>
ffffffff80108344:	69766564 	0x69766564
ffffffff80108348:	204d6573 	addi	$t5,$v0,25971
ffffffff8010834c:	73616765 	0x73616765
ffffffff80108350:	2066726f 	addi	$a2,$v1,29295
ffffffff80108354:	6d207461 	0x6d207461
ffffffff80108358:	736b4f6e 	0x736b4f6e
ffffffff8010835c:	652e0000 	0x652e0000
ffffffff80108360:	6d736751 	0x6d736751
ffffffff80108364:	73656e64 	0x73656e64
ffffffff80108368:	20696e20 	addi	$t1,$v1,28192
ffffffff8010836c:	7461736b 	jalx	ffffffff8185cdac <_gp+0x174bafc>
ffffffff80108370:	4f6e6520 	c3	0x16e6520
ffffffff80108374:	6661696c 	0x6661696c
ffffffff80108378:	65642e0a 	0x65642e0a
ffffffff8010837c:	00000000 	nop
ffffffff80108380:	7461736b 	jalx	ffffffff8185cdac <_gp+0x174bafc>
ffffffff80108384:	4f6e6520 	c3	0x16e6520
ffffffff80108388:	73656e74 	0x73656e74
ffffffff8010838c:	2061206d 	addi	$at,$v1,8301
ffffffff80108390:	65737361 	0x65737361
ffffffff80108394:	67652e0a 	0x67652e0a
ffffffff80108398:	00000000 	nop
ffffffff8010839c:	6d736751 	0x6d736751
ffffffff801083a0:	52656365 	beql	$s3,$a1,ffffffff80121138 <_gp+0xfe88>
ffffffff801083a4:	69766520 	0x69766520
ffffffff801083a8:	696e2074 	0x696e2074
ffffffff801083ac:	61736b4f 	0x61736b4f
ffffffff801083b0:	6e652066 	0x6e652066
ffffffff801083b4:	61696c65 	0x61696c65
ffffffff801083b8:	642e0a00 	0x642e0a00
ffffffff801083bc:	7461736b 	jalx	ffffffff8185cdac <_gp+0x174bafc>
ffffffff801083c0:	4f6e6520 	c3	0x16e6520
ffffffff801083c4:	25730a00 	addiu	$s3,$t3,2560
ffffffff801083c8:	52656365 	beql	$s3,$a1,ffffffff80121160 <_gp+0xfeb0>
ffffffff801083cc:	69766564 	0x69766564
ffffffff801083d0:	204d6573 	addi	$t5,$v0,25971
ffffffff801083d4:	73616765 	0x73616765
ffffffff801083d8:	2066726f 	addi	$a2,$v1,29295
ffffffff801083dc:	6d207461 	0x6d207461
ffffffff801083e0:	736b5477 	0x736b5477
ffffffff801083e4:	6f2e0000 	0x6f2e0000
ffffffff801083e8:	6d736751 	0x6d736751
ffffffff801083ec:	52656365 	beql	$s3,$a1,ffffffff80121184 <_gp+0xfed4>
ffffffff801083f0:	69766520 	0x69766520
ffffffff801083f4:	696e2074 	0x696e2074
ffffffff801083f8:	61736b54 	0x61736b54
ffffffff801083fc:	776f2066 	jalx	ffffffff8dbc8198 <_gp+0xdab6ee8>
ffffffff80108400:	61696c65 	0x61696c65
ffffffff80108404:	642e0a00 	0x642e0a00
ffffffff80108408:	7461736b 	jalx	ffffffff8185cdac <_gp+0x174bafc>
ffffffff8010840c:	54776f20 	bnel	$v1,$s7,ffffffff80124090 <_gp+0x12de0>
ffffffff80108410:	25730a00 	addiu	$s3,$t3,2560
ffffffff80108414:	6d736751 	0x6d736751
ffffffff80108418:	73656e64 	0x73656e64
ffffffff8010841c:	20696e20 	addi	$t1,$v1,28192
ffffffff80108420:	7461736b 	jalx	ffffffff8185cdac <_gp+0x174bafc>
ffffffff80108424:	54776f20 	bnel	$v1,$s7,ffffffff801240a8 <_gp+0x12df8>
ffffffff80108428:	6661696c 	0x6661696c
ffffffff8010842c:	65642e0a 	0x65642e0a
ffffffff80108430:	00000000 	nop
ffffffff80108434:	7461736b 	jalx	ffffffff8185cdac <_gp+0x174bafc>
ffffffff80108438:	54776f20 	bnel	$v1,$s7,ffffffff801240bc <_gp+0x12e0c>
ffffffff8010843c:	73656e74 	0x73656e74
ffffffff80108440:	2061206d 	addi	$at,$v1,8301
ffffffff80108444:	65737361 	0x65737361
ffffffff80108448:	67652e0a 	0x67652e0a
ffffffff8010844c:	00000000 	nop
ffffffff80108450:	6d736751 	0x6d736751
ffffffff80108454:	43726561 	c0	0x1726561
ffffffff80108458:	74652069 	jalx	ffffffff819481a4 <_gp+0x1836ef4>
ffffffff8010845c:	6e206661 	0x6e206661
ffffffff80108460:	696c6564 	0x696c6564
ffffffff80108464:	2e0a0000 	sltiu	$t2,$s0,0
ffffffff80108468:	7461736b 	jalx	ffffffff8185cdac <_gp+0x174bafc>
ffffffff8010846c:	31000000 	andi	$zero,$t0,0x0
ffffffff80108470:	7461736b 	jalx	ffffffff8185cdac <_gp+0x174bafc>
ffffffff80108474:	53706177 	beql	$k1,$s0,ffffffff80120a54 <_gp+0xf7a4>
ffffffff80108478:	6e207461 	0x6e207461
ffffffff8010847c:	736b4f6e 	0x736b4f6e
ffffffff80108480:	65206661 	0x65206661
ffffffff80108484:	696c6564 	0x696c6564
ffffffff80108488:	2e0a0000 	sltiu	$t2,$s0,0
ffffffff8010848c:	7461736b 	jalx	ffffffff8185cdac <_gp+0x174bafc>
ffffffff80108490:	32000000 	andi	$zero,$s0,0x0
ffffffff80108494:	7461736b 	jalx	ffffffff8185cdac <_gp+0x174bafc>
ffffffff80108498:	53706177 	beql	$k1,$s0,ffffffff80120a78 <_gp+0xf7c8>
ffffffff8010849c:	6e207461 	0x6e207461
ffffffff801084a0:	736b5477 	0x736b5477
ffffffff801084a4:	6f206661 	0x6f206661
ffffffff801084a8:	696c6564 	0x696c6564
ffffffff801084ac:	2e0a0000 	sltiu	$t2,$s0,0
ffffffff801084b0:	4c6f7720 	0x4c6f7720
ffffffff801084b4:	7072696f 	0x7072696f
ffffffff801084b8:	72697479 	0x72697479
ffffffff801084bc:	20746173 	addi	$s4,$v1,24947
ffffffff801084c0:	6b207472 	0x6b207472
ffffffff801084c4:	69657320 	0x69657320
ffffffff801084c8:	746f206c 	jalx	ffffffff81bc81b0 <_gp+0x1ab6f00>
ffffffff801084cc:	6f636b20 	0x6f636b20
ffffffff801084d0:	73656d61 	0x73656d61
ffffffff801084d4:	70686f72 	0x70686f72
ffffffff801084d8:	652e0a00 	0x652e0a00
ffffffff801084dc:	4c6f7720 	0x4c6f7720
ffffffff801084e0:	7072696f 	0x7072696f
ffffffff801084e4:	72697479 	0x72697479
ffffffff801084e8:	20746173 	addi	$s4,$v1,24947
ffffffff801084ec:	6b206c6f 	0x6b206c6f
ffffffff801084f0:	636b7320 	0x636b7320
ffffffff801084f4:	73656d61 	0x73656d61
ffffffff801084f8:	70686f72 	0x70686f72
ffffffff801084fc:	652e0a00 	0x652e0a00
ffffffff80108500:	4c6f7720 	0x4c6f7720
ffffffff80108504:	7072696f 	0x7072696f
ffffffff80108508:	72697479 	0x72697479
ffffffff8010850c:	20746173 	addi	$s4,$v1,24947
ffffffff80108510:	6b20756e 	0x6b20756e
ffffffff80108514:	6c6f636b 	0x6c6f636b
ffffffff80108518:	73207365 	0x73207365
ffffffff8010851c:	6d617068 	0x6d617068
ffffffff80108520:	6f72652e 	0x6f72652e
ffffffff80108524:	0a000000 	j	ffffffff88000000 <_gp+0x7eeed50>
ffffffff80108528:	2e2e2e2e 	sltiu	$t6,$s1,11822
ffffffff8010852c:	2e2e2e2e 	sltiu	$t6,$s1,11822
ffffffff80108530:	2e2e2e2e 	sltiu	$t6,$s1,11822
ffffffff80108534:	2e2e2e2e 	sltiu	$t6,$s1,11822
ffffffff80108538:	2e2e2e2e 	sltiu	$t6,$s1,11822
ffffffff8010853c:	2e2e2e2e 	sltiu	$t6,$s1,11822
ffffffff80108540:	2e4c6f77 	sltiu	$t4,$s2,28535
ffffffff80108544:	20707269 	addi	$s0,$v1,29289
ffffffff80108548:	6f726974 	0x6f726974
ffffffff8010854c:	79207461 	0x79207461
ffffffff80108550:	736b2065 	0x736b2065
ffffffff80108554:	78697465 	0x78697465
ffffffff80108558:	642e0a00 	0x642e0a00
ffffffff8010855c:	4d656469 	0x4d656469
ffffffff80108560:	756d2074 	jalx	ffffffff85b481d0 <_gp+0x5a36f20>
ffffffff80108564:	61736b20 	0x61736b20
ffffffff80108568:	72756e6e 	0x72756e6e
ffffffff8010856c:	696e672e 	0x696e672e
ffffffff80108570:	0a000000 	j	ffffffff88000000 <_gp+0x7eeed50>
ffffffff80108574:	2d2d2d2d 	sltiu	$t5,$t1,11565
ffffffff80108578:	2d2d2d2d 	sltiu	$t5,$t1,11565
ffffffff8010857c:	2d2d2d2d 	sltiu	$t5,$t1,11565
ffffffff80108580:	2d2d2d2d 	sltiu	$t5,$t1,11565
ffffffff80108584:	2d2d2d2d 	sltiu	$t5,$t1,11565
ffffffff80108588:	2d2d2d2d 	sltiu	$t5,$t1,11565
ffffffff8010858c:	2d4d6564 	sltiu	$t5,$t2,25956
ffffffff80108590:	69756d20 	0x69756d20
ffffffff80108594:	7072696f 	0x7072696f
ffffffff80108598:	72697479 	0x72697479
ffffffff8010859c:	20746173 	addi	$s4,$v1,24947
ffffffff801085a0:	6b206578 	0x6b206578
ffffffff801085a4:	69746564 	0x69746564
ffffffff801085a8:	2e0a0000 	sltiu	$t2,$s0,0
ffffffff801085ac:	48696768 	0x48696768
ffffffff801085b0:	20707269 	addi	$s0,$v1,29289
ffffffff801085b4:	6f726974 	0x6f726974
ffffffff801085b8:	79207461 	0x79207461
ffffffff801085bc:	736b2074 	0x736b2074
ffffffff801085c0:	72696573 	0x72696573
ffffffff801085c4:	20746f20 	addi	$s4,$v1,28448
ffffffff801085c8:	6c6f636b 	0x6c6f636b
ffffffff801085cc:	2073656d 	addi	$s3,$v1,25965
ffffffff801085d0:	6170686f 	0x6170686f
ffffffff801085d4:	72652e0a 	0x72652e0a
ffffffff801085d8:	00000000 	nop
ffffffff801085dc:	48696768 	0x48696768
ffffffff801085e0:	20707269 	addi	$s0,$v1,29289
ffffffff801085e4:	6f726974 	0x6f726974
ffffffff801085e8:	79207461 	0x79207461
ffffffff801085ec:	736b206c 	0x736b206c
ffffffff801085f0:	6f636b73 	0x6f636b73
ffffffff801085f4:	2073656d 	addi	$s3,$v1,25965
ffffffff801085f8:	6170686f 	0x6170686f
ffffffff801085fc:	72652e0a 	0x72652e0a
ffffffff80108600:	00000000 	nop
ffffffff80108604:	48696768 	0x48696768
ffffffff80108608:	20707269 	addi	$s0,$v1,29289
ffffffff8010860c:	6f726974 	0x6f726974
ffffffff80108610:	79207461 	0x79207461
ffffffff80108614:	736b2075 	0x736b2075
ffffffff80108618:	6e6c6f63 	0x6e6c6f63
ffffffff8010861c:	6b732073 	0x6b732073
ffffffff80108620:	656d6170 	0x656d6170
ffffffff80108624:	686f7265 	0x686f7265
ffffffff80108628:	2e0a0000 	sltiu	$t2,$s0,0
ffffffff8010862c:	2e2e2e2e 	sltiu	$t6,$s1,11822
ffffffff80108630:	2e2e2e2e 	sltiu	$t6,$s1,11822
ffffffff80108634:	2e2e2e2e 	sltiu	$t6,$s1,11822
ffffffff80108638:	2e2e2e2e 	sltiu	$t6,$s1,11822
ffffffff8010863c:	2e2e2e2e 	sltiu	$t6,$s1,11822
ffffffff80108640:	2e2e2e2e 	sltiu	$t6,$s1,11822
ffffffff80108644:	2e486967 	sltiu	$t0,$s2,26983
ffffffff80108648:	68207072 	0x68207072
ffffffff8010864c:	696f7269 	0x696f7269
ffffffff80108650:	74792074 	jalx	ffffffff81e481d0 <_gp+0x1d36f20>
ffffffff80108654:	61736b20 	0x61736b20
ffffffff80108658:	65786974 	0x65786974
ffffffff8010865c:	65642e0a 	0x65642e0a
ffffffff80108660:	00000000 	nop
ffffffff80108664:	0a0a2e2e 	j	ffffffff8828b8b8 <_gp+0x817a608>
ffffffff80108668:	2e2e2e2e 	sltiu	$t6,$s1,11822
ffffffff8010866c:	2e2e2e2e 	sltiu	$t6,$s1,11822
ffffffff80108670:	2e2e2e2e 	sltiu	$t6,$s1,11822
ffffffff80108674:	2e232352 	sltiu	$v1,$s1,9042
ffffffff80108678:	554e4e49 	bnel	$t2,$t6,ffffffff8011bfa0 <_gp+0xacf0>
ffffffff8010867c:	4e472323 	c3	0x472323
ffffffff80108680:	2e2e2e2e 	sltiu	$t6,$s1,11822
ffffffff80108684:	2e2e2e2e 	sltiu	$t6,$s1,11822
ffffffff80108688:	2e2e2e2e 	sltiu	$t6,$s1,11822
ffffffff8010868c:	2e2e2e0a 	sltiu	$t6,$s1,11786
ffffffff80108690:	0a0a0000 	j	ffffffff88280000 <_gp+0x816ed50>
ffffffff80108694:	7461736b 	jalx	ffffffff8185cdac <_gp+0x174bafc>
ffffffff80108698:	31000000 	andi	$zero,$t0,0x0
ffffffff8010869c:	7461736b 	jalx	ffffffff8185cdac <_gp+0x174bafc>
ffffffff801086a0:	53706177 	beql	$k1,$s0,ffffffff80120c80 <_gp+0xf9d0>
ffffffff801086a4:	6e207072 	0x6e207072
ffffffff801086a8:	696f4c6f 	0x696f4c6f
ffffffff801086ac:	77206661 	jalx	ffffffff8c819984 <_gp+0xc7086d4>
ffffffff801086b0:	696c6564 	0x696c6564
ffffffff801086b4:	2e0a0000 	sltiu	$t2,$s0,0
ffffffff801086b8:	7461736b 	jalx	ffffffff8185cdac <_gp+0x174bafc>
ffffffff801086bc:	32000000 	andi	$zero,$s0,0x0
ffffffff801086c0:	7461736b 	jalx	ffffffff8185cdac <_gp+0x174bafc>
ffffffff801086c4:	53706177 	beql	$k1,$s0,ffffffff80120ca4 <_gp+0xf9f4>
ffffffff801086c8:	6e207072 	0x6e207072
ffffffff801086cc:	696f4d65 	0x696f4d65
ffffffff801086d0:	6469756d 	0x6469756d
ffffffff801086d4:	20666169 	addi	$a2,$v1,24937
ffffffff801086d8:	6c65642e 	0x6c65642e
ffffffff801086dc:	0a000000 	j	ffffffff88000000 <_gp+0x7eeed50>
ffffffff801086e0:	7461736b 	jalx	ffffffff8185cdac <_gp+0x174bafc>
ffffffff801086e4:	33000000 	andi	$zero,$t8,0x0
ffffffff801086e8:	7461736b 	jalx	ffffffff8185cdac <_gp+0x174bafc>
ffffffff801086ec:	53706177 	beql	$k1,$s0,ffffffff80120ccc <_gp+0xfa1c>
ffffffff801086f0:	6e207072 	0x6e207072
ffffffff801086f4:	696f4869 	0x696f4869
ffffffff801086f8:	67682066 	0x67682066
ffffffff801086fc:	61696c65 	0x61696c65
ffffffff80108700:	642e0a00 	0x642e0a00
	...
ffffffff80108710:	4c6f7720 	0x4c6f7720
ffffffff80108714:	7072696f 	0x7072696f
ffffffff80108718:	72697479 	0x72697479
ffffffff8010871c:	20746173 	addi	$s4,$v1,24947
ffffffff80108720:	6b207472 	0x6b207472
ffffffff80108724:	69657320 	0x69657320
ffffffff80108728:	746f206c 	jalx	ffffffff81bc81b0 <_gp+0x1ab6f00>
ffffffff8010872c:	6f636b20 	0x6f636b20
ffffffff80108730:	73656d61 	0x73656d61
ffffffff80108734:	70686f72 	0x70686f72
ffffffff80108738:	652e0a00 	0x652e0a00
ffffffff8010873c:	4c6f7720 	0x4c6f7720
ffffffff80108740:	7072696f 	0x7072696f
ffffffff80108744:	72697479 	0x72697479
ffffffff80108748:	20746173 	addi	$s4,$v1,24947
ffffffff8010874c:	6b206c6f 	0x6b206c6f
ffffffff80108750:	636b7320 	0x636b7320
ffffffff80108754:	73656d61 	0x73656d61
ffffffff80108758:	70686f72 	0x70686f72
ffffffff8010875c:	652e0a00 	0x652e0a00
ffffffff80108760:	4c6f7720 	0x4c6f7720
ffffffff80108764:	7072696f 	0x7072696f
ffffffff80108768:	72697479 	0x72697479
ffffffff8010876c:	20746173 	addi	$s4,$v1,24947
ffffffff80108770:	6b20756e 	0x6b20756e
ffffffff80108774:	6c6f636b 	0x6c6f636b
ffffffff80108778:	73207365 	0x73207365
ffffffff8010877c:	6d617068 	0x6d617068
ffffffff80108780:	6f72652e 	0x6f72652e
ffffffff80108784:	0a000000 	j	ffffffff88000000 <_gp+0x7eeed50>
ffffffff80108788:	2e2e2e2e 	sltiu	$t6,$s1,11822
ffffffff8010878c:	2e2e2e2e 	sltiu	$t6,$s1,11822
ffffffff80108790:	2e2e2e2e 	sltiu	$t6,$s1,11822
ffffffff80108794:	2e2e2e2e 	sltiu	$t6,$s1,11822
ffffffff80108798:	2e2e2e2e 	sltiu	$t6,$s1,11822
ffffffff8010879c:	2e2e2e2e 	sltiu	$t6,$s1,11822
ffffffff801087a0:	2e4c6f77 	sltiu	$t4,$s2,28535
ffffffff801087a4:	20707269 	addi	$s0,$v1,29289
ffffffff801087a8:	6f726974 	0x6f726974
ffffffff801087ac:	79207461 	0x79207461
ffffffff801087b0:	736b2065 	0x736b2065
ffffffff801087b4:	78697465 	0x78697465
ffffffff801087b8:	642e0a00 	0x642e0a00
ffffffff801087bc:	4d656469 	0x4d656469
ffffffff801087c0:	756d2074 	jalx	ffffffff85b481d0 <_gp+0x5a36f20>
ffffffff801087c4:	61736b20 	0x61736b20
ffffffff801087c8:	72756e6e 	0x72756e6e
ffffffff801087cc:	696e672e 	0x696e672e
ffffffff801087d0:	0a000000 	j	ffffffff88000000 <_gp+0x7eeed50>
ffffffff801087d4:	2d2d2d2d 	sltiu	$t5,$t1,11565
ffffffff801087d8:	2d2d2d2d 	sltiu	$t5,$t1,11565
ffffffff801087dc:	2d2d2d2d 	sltiu	$t5,$t1,11565
ffffffff801087e0:	2d2d2d2d 	sltiu	$t5,$t1,11565
ffffffff801087e4:	2d2d2d2d 	sltiu	$t5,$t1,11565
ffffffff801087e8:	2d2d2d2d 	sltiu	$t5,$t1,11565
ffffffff801087ec:	2d4d6564 	sltiu	$t5,$t2,25956
ffffffff801087f0:	69756d20 	0x69756d20
ffffffff801087f4:	7072696f 	0x7072696f
ffffffff801087f8:	72697479 	0x72697479
ffffffff801087fc:	20746173 	addi	$s4,$v1,24947
ffffffff80108800:	6b206578 	0x6b206578
ffffffff80108804:	69746564 	0x69746564
ffffffff80108808:	2e0a0000 	sltiu	$t2,$s0,0
ffffffff8010880c:	48696768 	0x48696768
ffffffff80108810:	20707269 	addi	$s0,$v1,29289
ffffffff80108814:	6f726974 	0x6f726974
ffffffff80108818:	79207461 	0x79207461
ffffffff8010881c:	736b2074 	0x736b2074
ffffffff80108820:	72696573 	0x72696573
ffffffff80108824:	20746f20 	addi	$s4,$v1,28448
ffffffff80108828:	6c6f636b 	0x6c6f636b
ffffffff8010882c:	2073656d 	addi	$s3,$v1,25965
ffffffff80108830:	6170686f 	0x6170686f
ffffffff80108834:	72652e0a 	0x72652e0a
ffffffff80108838:	00000000 	nop
ffffffff8010883c:	48696768 	0x48696768
ffffffff80108840:	20707269 	addi	$s0,$v1,29289
ffffffff80108844:	6f726974 	0x6f726974
ffffffff80108848:	79207461 	0x79207461
ffffffff8010884c:	736b206c 	0x736b206c
ffffffff80108850:	6f636b73 	0x6f636b73
ffffffff80108854:	2073656d 	addi	$s3,$v1,25965
ffffffff80108858:	6170686f 	0x6170686f
ffffffff8010885c:	72652e0a 	0x72652e0a
ffffffff80108860:	00000000 	nop
ffffffff80108864:	48696768 	0x48696768
ffffffff80108868:	20707269 	addi	$s0,$v1,29289
ffffffff8010886c:	6f726974 	0x6f726974
ffffffff80108870:	79207461 	0x79207461
ffffffff80108874:	736b2075 	0x736b2075
ffffffff80108878:	6e6c6f63 	0x6e6c6f63
ffffffff8010887c:	6b732073 	0x6b732073
ffffffff80108880:	656d6170 	0x656d6170
ffffffff80108884:	686f7265 	0x686f7265
ffffffff80108888:	2e0a0000 	sltiu	$t2,$s0,0
ffffffff8010888c:	2e2e2e2e 	sltiu	$t6,$s1,11822
ffffffff80108890:	2e2e2e2e 	sltiu	$t6,$s1,11822
ffffffff80108894:	2e2e2e2e 	sltiu	$t6,$s1,11822
ffffffff80108898:	2e2e2e2e 	sltiu	$t6,$s1,11822
ffffffff8010889c:	2e2e2e2e 	sltiu	$t6,$s1,11822
ffffffff801088a0:	2e2e2e2e 	sltiu	$t6,$s1,11822
ffffffff801088a4:	2e486967 	sltiu	$t0,$s2,26983
ffffffff801088a8:	68207072 	0x68207072
ffffffff801088ac:	696f7269 	0x696f7269
ffffffff801088b0:	74792074 	jalx	ffffffff81e481d0 <_gp+0x1d36f20>
ffffffff801088b4:	61736b20 	0x61736b20
ffffffff801088b8:	65786974 	0x65786974
ffffffff801088bc:	65642e0a 	0x65642e0a
ffffffff801088c0:	00000000 	nop
ffffffff801088c4:	0a0a2e2e 	j	ffffffff8828b8b8 <_gp+0x817a608>
ffffffff801088c8:	2e2e2e2e 	sltiu	$t6,$s1,11822
ffffffff801088cc:	2e2e2e2e 	sltiu	$t6,$s1,11822
ffffffff801088d0:	2e2e2e2e 	sltiu	$t6,$s1,11822
ffffffff801088d4:	2e232352 	sltiu	$v1,$s1,9042
ffffffff801088d8:	554e4e49 	bnel	$t2,$t6,ffffffff8011c200 <_gp+0xaf50>
ffffffff801088dc:	4e472323 	c3	0x472323
ffffffff801088e0:	2e2e2e2e 	sltiu	$t6,$s1,11822
ffffffff801088e4:	2e2e2e2e 	sltiu	$t6,$s1,11822
ffffffff801088e8:	2e2e2e2e 	sltiu	$t6,$s1,11822
ffffffff801088ec:	2e2e2e0a 	sltiu	$t6,$s1,11786
ffffffff801088f0:	0a0a0000 	j	ffffffff88280000 <_gp+0x816ed50>
ffffffff801088f4:	7461736b 	jalx	ffffffff8185cdac <_gp+0x174bafc>
ffffffff801088f8:	31000000 	andi	$zero,$t0,0x0
ffffffff801088fc:	7461736b 	jalx	ffffffff8185cdac <_gp+0x174bafc>
ffffffff80108900:	53706177 	beql	$k1,$s0,ffffffff80120ee0 <_gp+0xfc30>
ffffffff80108904:	6e207072 	0x6e207072
ffffffff80108908:	696f4c6f 	0x696f4c6f
ffffffff8010890c:	77206661 	jalx	ffffffff8c819984 <_gp+0xc7086d4>
ffffffff80108910:	696c6564 	0x696c6564
ffffffff80108914:	2e0a0000 	sltiu	$t2,$s0,0
ffffffff80108918:	7461736b 	jalx	ffffffff8185cdac <_gp+0x174bafc>
ffffffff8010891c:	32000000 	andi	$zero,$s0,0x0
ffffffff80108920:	7461736b 	jalx	ffffffff8185cdac <_gp+0x174bafc>
ffffffff80108924:	53706177 	beql	$k1,$s0,ffffffff80120f04 <_gp+0xfc54>
ffffffff80108928:	6e207072 	0x6e207072
ffffffff8010892c:	696f4d65 	0x696f4d65
ffffffff80108930:	6469756d 	0x6469756d
ffffffff80108934:	20666169 	addi	$a2,$v1,24937
ffffffff80108938:	6c65642e 	0x6c65642e
ffffffff8010893c:	0a000000 	j	ffffffff88000000 <_gp+0x7eeed50>
ffffffff80108940:	7461736b 	jalx	ffffffff8185cdac <_gp+0x174bafc>
ffffffff80108944:	33000000 	andi	$zero,$t8,0x0
ffffffff80108948:	7461736b 	jalx	ffffffff8185cdac <_gp+0x174bafc>
ffffffff8010894c:	53706177 	beql	$k1,$s0,ffffffff80120f2c <_gp+0xfc7c>
ffffffff80108950:	6e207072 	0x6e207072
ffffffff80108954:	696f4869 	0x696f4869
ffffffff80108958:	67682066 	0x67682066
ffffffff8010895c:	61696c65 	0x61696c65
ffffffff80108960:	642e0a00 	0x642e0a00
	...
ffffffff80108970:	74526f6f 	jalx	ffffffff8149bdbc <_gp+0x138ab0c>
ffffffff80108974:	74546173 	jalx	ffffffff815185cc <_gp+0x140731c>
ffffffff80108978:	6b000000 	0x6b000000
ffffffff8010897c:	00000000 	nop
Disassembly of section .data:

ffffffff80108980 <L2CACHE_bEnabled>:
	...

ffffffff80108981 <CPU_b64Bit>:
	...

ffffffff80108990 <ffsMsbTbl>:
ffffffff80108990:	00000101 	0x101
ffffffff80108994:	02020202 	0x2020202
ffffffff80108998:	03030303 	0x3030303
ffffffff8010899c:	03030303 	0x3030303
ffffffff801089a0:	04040404 	0x4040404
ffffffff801089a4:	04040404 	0x4040404
ffffffff801089a8:	04040404 	0x4040404
ffffffff801089ac:	04040404 	0x4040404
ffffffff801089b0:	05050505 	0x5050505
ffffffff801089b4:	05050505 	0x5050505
ffffffff801089b8:	05050505 	0x5050505
ffffffff801089bc:	05050505 	0x5050505
ffffffff801089c0:	05050505 	0x5050505
ffffffff801089c4:	05050505 	0x5050505
ffffffff801089c8:	05050505 	0x5050505
ffffffff801089cc:	05050505 	0x5050505
ffffffff801089d0:	06060606 	0x6060606
ffffffff801089d4:	06060606 	0x6060606
ffffffff801089d8:	06060606 	0x6060606
ffffffff801089dc:	06060606 	0x6060606
ffffffff801089e0:	06060606 	0x6060606
ffffffff801089e4:	06060606 	0x6060606
ffffffff801089e8:	06060606 	0x6060606
ffffffff801089ec:	06060606 	0x6060606
ffffffff801089f0:	06060606 	0x6060606
ffffffff801089f4:	06060606 	0x6060606
ffffffff801089f8:	06060606 	0x6060606
ffffffff801089fc:	06060606 	0x6060606
ffffffff80108a00:	06060606 	0x6060606
ffffffff80108a04:	06060606 	0x6060606
ffffffff80108a08:	06060606 	0x6060606
ffffffff80108a0c:	06060606 	0x6060606
ffffffff80108a10:	07070707 	0x7070707
ffffffff80108a14:	07070707 	0x7070707
ffffffff80108a18:	07070707 	0x7070707
ffffffff80108a1c:	07070707 	0x7070707
ffffffff80108a20:	07070707 	0x7070707
ffffffff80108a24:	07070707 	0x7070707
ffffffff80108a28:	07070707 	0x7070707
ffffffff80108a2c:	07070707 	0x7070707
ffffffff80108a30:	07070707 	0x7070707
ffffffff80108a34:	07070707 	0x7070707
ffffffff80108a38:	07070707 	0x7070707
ffffffff80108a3c:	07070707 	0x7070707
ffffffff80108a40:	07070707 	0x7070707
ffffffff80108a44:	07070707 	0x7070707
ffffffff80108a48:	07070707 	0x7070707
ffffffff80108a4c:	07070707 	0x7070707
ffffffff80108a50:	07070707 	0x7070707
ffffffff80108a54:	07070707 	0x7070707
ffffffff80108a58:	07070707 	0x7070707
ffffffff80108a5c:	07070707 	0x7070707
ffffffff80108a60:	07070707 	0x7070707
ffffffff80108a64:	07070707 	0x7070707
ffffffff80108a68:	07070707 	0x7070707
ffffffff80108a6c:	07070707 	0x7070707
ffffffff80108a70:	07070707 	0x7070707
ffffffff80108a74:	07070707 	0x7070707
ffffffff80108a78:	07070707 	0x7070707
ffffffff80108a7c:	07070707 	0x7070707
ffffffff80108a80:	07070707 	0x7070707
ffffffff80108a84:	07070707 	0x7070707
ffffffff80108a88:	07070707 	0x7070707
ffffffff80108a8c:	07070707 	0x7070707

ffffffff80108a90 <sysHashOrder>:
ffffffff80108a90:	80108990 	lb	$s0,-30320($zero)

ffffffff80108a94 <intPrioTable>:
ffffffff80108a94:	00000100 	sll	$zero,$zero,0x4
ffffffff80108a98:	00000020 	add	$zero,$zero,$zero
ffffffff80108a9c:	00000100 	sll	$zero,$zero,0x4
ffffffff80108aa0:	00000000 	nop
ffffffff80108aa4:	00000200 	sll	$zero,$zero,0x8
ffffffff80108aa8:	00000021 	move	$zero,$zero
ffffffff80108aac:	00000200 	sll	$zero,$zero,0x8
ffffffff80108ab0:	00000000 	nop
ffffffff80108ab4:	00000400 	sll	$zero,$zero,0x10
ffffffff80108ab8:	00000041 	0x41
ffffffff80108abc:	00000400 	sll	$zero,$zero,0x10
ffffffff80108ac0:	00000000 	nop
ffffffff80108ac4:	00000800 	sll	$at,$zero,0x0
ffffffff80108ac8:	00000042 	srl	$zero,$zero,0x1
ffffffff80108acc:	00000800 	sll	$at,$zero,0x0
ffffffff80108ad0:	00000000 	nop
ffffffff80108ad4:	00001000 	sll	$v0,$zero,0x0
ffffffff80108ad8:	00000043 	sra	$zero,$zero,0x1
ffffffff80108adc:	00001000 	sll	$v0,$zero,0x0
ffffffff80108ae0:	00000000 	nop
ffffffff80108ae4:	00002000 	sll	$a0,$zero,0x0
ffffffff80108ae8:	00000044 	0x44
ffffffff80108aec:	00002000 	sll	$a0,$zero,0x0
ffffffff80108af0:	00000000 	nop
ffffffff80108af4:	00004000 	sll	$t0,$zero,0x0
ffffffff80108af8:	00000045 	0x45
ffffffff80108afc:	00004000 	sll	$t0,$zero,0x0
ffffffff80108b00:	00000000 	nop
ffffffff80108b04:	00008000 	sll	$s0,$zero,0x0
ffffffff80108b08:	00000046 	0x46
ffffffff80108b0c:	00008000 	sll	$s0,$zero,0x0
ffffffff80108b10:	00000000 	nop

ffffffff80108b14 <sysClkRoutine>:
ffffffff80108b14:	00000000 	nop

ffffffff80108b18 <sysClkArg>:
ffffffff80108b18:	00000000 	nop

ffffffff80108b1c <sysClkRunning>:
ffffffff80108b1c:	00000000 	nop

ffffffff80108b20 <sysClkConnected>:
ffffffff80108b20:	00000000 	nop

ffffffff80108b24 <sysClkTicksPerSecond>:
ffffffff80108b24:	0000003c 	0x3c
	...

ffffffff80108b30 <_ctype>:
ffffffff80108b30:	00202020 	add	$a0,$at,$zero
ffffffff80108b34:	20202020 	addi	$zero,$at,8224
ffffffff80108b38:	20282828 	addi	$t0,$at,10280
ffffffff80108b3c:	28282020 	slti	$t0,$at,8224
ffffffff80108b40:	20202020 	addi	$zero,$at,8224
ffffffff80108b44:	20202020 	addi	$zero,$at,8224
ffffffff80108b48:	20202020 	addi	$zero,$at,8224
ffffffff80108b4c:	20202020 	addi	$zero,$at,8224
ffffffff80108b50:	88101010 	lwl	$s0,4112($zero)
ffffffff80108b54:	10101010 	beq	$zero,$s0,ffffffff8010cb98 <_end+0x32a8>
ffffffff80108b58:	10101010 	beq	$zero,$s0,ffffffff8010cb9c <_end+0x32ac>
ffffffff80108b5c:	10101010 	beq	$zero,$s0,ffffffff8010cba0 <_end+0x32b0>
ffffffff80108b60:	04040404 	0x4040404
ffffffff80108b64:	04040404 	0x4040404
ffffffff80108b68:	04041010 	0x4041010
ffffffff80108b6c:	10101010 	beq	$zero,$s0,ffffffff8010cbb0 <_end+0x32c0>
ffffffff80108b70:	10414141 	beq	$v0,$at,ffffffff80119078 <_gp+0x7dc8>
ffffffff80108b74:	41414101 	0x41414101
ffffffff80108b78:	01010101 	0x1010101
ffffffff80108b7c:	01010101 	0x1010101
ffffffff80108b80:	01010101 	0x1010101
ffffffff80108b84:	01010101 	0x1010101
ffffffff80108b88:	01010110 	0x1010110
ffffffff80108b8c:	10101010 	beq	$zero,$s0,ffffffff8010cbd0 <_end+0x32e0>
ffffffff80108b90:	10424242 	beq	$v0,$v0,ffffffff8011949c <_gp+0x81ec>
ffffffff80108b94:	42424202 	c0	0x424202
ffffffff80108b98:	02020202 	0x2020202
ffffffff80108b9c:	02020202 	0x2020202
ffffffff80108ba0:	02020202 	0x2020202
ffffffff80108ba4:	02020202 	0x2020202
ffffffff80108ba8:	02020210 	0x2020210
ffffffff80108bac:	10101020 	beq	$zero,$s0,ffffffff8010cc30 <_end+0x3340>
	...
ffffffff80108bd0:	00101010 	0x101010
ffffffff80108bd4:	10101010 	beq	$zero,$s0,ffffffff8010cc18 <_end+0x3328>
ffffffff80108bd8:	10101010 	beq	$zero,$s0,ffffffff8010cc1c <_end+0x332c>
ffffffff80108bdc:	10101010 	beq	$zero,$s0,ffffffff8010cc20 <_end+0x3330>
ffffffff80108be0:	10101010 	beq	$zero,$s0,ffffffff8010cc24 <_end+0x3334>
ffffffff80108be4:	10101010 	beq	$zero,$s0,ffffffff8010cc28 <_end+0x3338>
ffffffff80108be8:	10101010 	beq	$zero,$s0,ffffffff8010cc2c <_end+0x333c>
ffffffff80108bec:	10101010 	beq	$zero,$s0,ffffffff8010cc30 <_end+0x3340>
ffffffff80108bf0:	10101010 	beq	$zero,$s0,ffffffff8010cc34 <_end+0x3344>
ffffffff80108bf4:	10101010 	beq	$zero,$s0,ffffffff8010cc38 <_end+0x3348>
ffffffff80108bf8:	10101010 	beq	$zero,$s0,ffffffff8010cc3c <_end+0x334c>
ffffffff80108bfc:	10101010 	beq	$zero,$s0,ffffffff8010cc40 <_end+0x3350>
ffffffff80108c00:	10101010 	beq	$zero,$s0,ffffffff8010cc44 <_end+0x3354>
ffffffff80108c04:	10101010 	beq	$zero,$s0,ffffffff8010cc48 <_end+0x3358>
ffffffff80108c08:	10101010 	beq	$zero,$s0,ffffffff8010cc4c <_end+0x335c>
ffffffff80108c0c:	10101010 	beq	$zero,$s0,ffffffff8010cc50 <_end+0x3360>
	...

ffffffff80108c30 <global>:
	...

ffffffff80108c40 <global>:
	...

ffffffff80108c50 <areWeNested>:
ffffffff80108c50:	00000000 	nop

ffffffff80108c54 <excBsrTbl>:
ffffffff80108c54:	80102c50 	lb	$s0,11344($zero)
ffffffff80108c58:	80102c58 	lb	$s0,11352($zero)
ffffffff80108c5c:	80102c58 	lb	$s0,11352($zero)
ffffffff80108c60:	80102c58 	lb	$s0,11352($zero)
ffffffff80108c64:	80102c58 	lb	$s0,11352($zero)
ffffffff80108c68:	80102c58 	lb	$s0,11352($zero)
ffffffff80108c6c:	80102c58 	lb	$s0,11352($zero)
ffffffff80108c70:	80102c58 	lb	$s0,11352($zero)
ffffffff80108c74:	80102c58 	lb	$s0,11352($zero)
ffffffff80108c78:	80102c58 	lb	$s0,11352($zero)
ffffffff80108c7c:	80102c58 	lb	$s0,11352($zero)
ffffffff80108c80:	80102c58 	lb	$s0,11352($zero)
ffffffff80108c84:	80102c58 	lb	$s0,11352($zero)
ffffffff80108c88:	80102c58 	lb	$s0,11352($zero)
ffffffff80108c8c:	80102c58 	lb	$s0,11352($zero)
ffffffff80108c90:	80102c58 	lb	$s0,11352($zero)
ffffffff80108c94:	80102c58 	lb	$s0,11352($zero)
ffffffff80108c98:	80102c58 	lb	$s0,11352($zero)
ffffffff80108c9c:	80102c58 	lb	$s0,11352($zero)
ffffffff80108ca0:	80102c58 	lb	$s0,11352($zero)
ffffffff80108ca4:	80102c58 	lb	$s0,11352($zero)
ffffffff80108ca8:	80102c58 	lb	$s0,11352($zero)
ffffffff80108cac:	80102c58 	lb	$s0,11352($zero)
ffffffff80108cb0:	80102c58 	lb	$s0,11352($zero)
ffffffff80108cb4:	80102c58 	lb	$s0,11352($zero)
ffffffff80108cb8:	80102c58 	lb	$s0,11352($zero)
ffffffff80108cbc:	80102c58 	lb	$s0,11352($zero)
ffffffff80108cc0:	80102c58 	lb	$s0,11352($zero)
ffffffff80108cc4:	80102c58 	lb	$s0,11352($zero)
ffffffff80108cc8:	80102c58 	lb	$s0,11352($zero)
ffffffff80108ccc:	80102c58 	lb	$s0,11352($zero)
ffffffff80108cd0:	80102c58 	lb	$s0,11352($zero)
ffffffff80108cd4:	80102c50 	lb	$s0,11344($zero)
ffffffff80108cd8:	80102c50 	lb	$s0,11344($zero)
ffffffff80108cdc:	80102c50 	lb	$s0,11344($zero)
ffffffff80108ce0:	80102c50 	lb	$s0,11344($zero)
ffffffff80108ce4:	80102c50 	lb	$s0,11344($zero)
ffffffff80108ce8:	80102c50 	lb	$s0,11344($zero)
ffffffff80108cec:	80102c50 	lb	$s0,11344($zero)
ffffffff80108cf0:	80102c50 	lb	$s0,11344($zero)
ffffffff80108cf4:	80102c50 	lb	$s0,11344($zero)
ffffffff80108cf8:	80102c50 	lb	$s0,11344($zero)
ffffffff80108cfc:	80102c50 	lb	$s0,11344($zero)
ffffffff80108d00:	80102c50 	lb	$s0,11344($zero)
ffffffff80108d04:	80102c50 	lb	$s0,11344($zero)
ffffffff80108d08:	80102c50 	lb	$s0,11344($zero)
ffffffff80108d0c:	80102c50 	lb	$s0,11344($zero)
ffffffff80108d10:	80102c50 	lb	$s0,11344($zero)
ffffffff80108d14:	80102c50 	lb	$s0,11344($zero)
ffffffff80108d18:	80102c50 	lb	$s0,11344($zero)
ffffffff80108d1c:	80102c50 	lb	$s0,11344($zero)
ffffffff80108d20:	80102c50 	lb	$s0,11344($zero)
ffffffff80108d24:	80102c50 	lb	$s0,11344($zero)
ffffffff80108d28:	80102c50 	lb	$s0,11344($zero)
ffffffff80108d2c:	80102c58 	lb	$s0,11352($zero)
ffffffff80108d30:	80102c58 	lb	$s0,11352($zero)
ffffffff80108d34:	80102c58 	lb	$s0,11352($zero)
ffffffff80108d38:	80102c58 	lb	$s0,11352($zero)
ffffffff80108d3c:	80102c58 	lb	$s0,11352($zero)
ffffffff80108d40:	80102c58 	lb	$s0,11352($zero)
ffffffff80108d44:	80102c50 	lb	$s0,11344($zero)
ffffffff80108d48:	80102c50 	lb	$s0,11344($zero)
ffffffff80108d4c:	80102c50 	lb	$s0,11344($zero)
ffffffff80108d50:	80102c50 	lb	$s0,11344($zero)
ffffffff80108d54:	80102c50 	lb	$s0,11344($zero)
ffffffff80108d58:	80102c50 	lb	$s0,11344($zero)
ffffffff80108d5c:	80102c50 	lb	$s0,11344($zero)
ffffffff80108d60:	80102c50 	lb	$s0,11344($zero)
ffffffff80108d64:	80102c50 	lb	$s0,11344($zero)
ffffffff80108d68:	80102c50 	lb	$s0,11344($zero)
ffffffff80108d6c:	80102c50 	lb	$s0,11344($zero)
ffffffff80108d70:	80102c50 	lb	$s0,11344($zero)
ffffffff80108d74:	80102c50 	lb	$s0,11344($zero)
ffffffff80108d78:	80102c50 	lb	$s0,11344($zero)
ffffffff80108d7c:	80102c50 	lb	$s0,11344($zero)
ffffffff80108d80:	80102c50 	lb	$s0,11344($zero)
ffffffff80108d84:	80102c50 	lb	$s0,11344($zero)
ffffffff80108d88:	80102c50 	lb	$s0,11344($zero)
ffffffff80108d8c:	80102c50 	lb	$s0,11344($zero)
ffffffff80108d90:	80102c50 	lb	$s0,11344($zero)
ffffffff80108d94:	80102c50 	lb	$s0,11344($zero)
ffffffff80108d98:	80102c50 	lb	$s0,11344($zero)
ffffffff80108d9c:	80102c50 	lb	$s0,11344($zero)
ffffffff80108da0:	80102c50 	lb	$s0,11344($zero)
ffffffff80108da4:	80102c50 	lb	$s0,11344($zero)
ffffffff80108da8:	80102c50 	lb	$s0,11344($zero)
ffffffff80108dac:	80102c50 	lb	$s0,11344($zero)
ffffffff80108db0:	80102c50 	lb	$s0,11344($zero)
ffffffff80108db4:	80102c50 	lb	$s0,11344($zero)
ffffffff80108db8:	80102c50 	lb	$s0,11344($zero)
ffffffff80108dbc:	80102c50 	lb	$s0,11344($zero)
ffffffff80108dc0:	80102c50 	lb	$s0,11344($zero)
ffffffff80108dc4:	80102c50 	lb	$s0,11344($zero)
ffffffff80108dc8:	80102c50 	lb	$s0,11344($zero)
ffffffff80108dcc:	80102c50 	lb	$s0,11344($zero)
ffffffff80108dd0:	80102c50 	lb	$s0,11344($zero)
ffffffff80108dd4:	80102c50 	lb	$s0,11344($zero)
ffffffff80108dd8:	80102c50 	lb	$s0,11344($zero)
ffffffff80108ddc:	80102c50 	lb	$s0,11344($zero)
ffffffff80108de0:	80102c50 	lb	$s0,11344($zero)
ffffffff80108de4:	80102c50 	lb	$s0,11344($zero)
ffffffff80108de8:	80102c50 	lb	$s0,11344($zero)
ffffffff80108dec:	80102c50 	lb	$s0,11344($zero)
ffffffff80108df0:	80102c50 	lb	$s0,11344($zero)
ffffffff80108df4:	80102c50 	lb	$s0,11344($zero)
ffffffff80108df8:	80102c50 	lb	$s0,11344($zero)
ffffffff80108dfc:	80102c50 	lb	$s0,11344($zero)
ffffffff80108e00:	80102c50 	lb	$s0,11344($zero)
ffffffff80108e04:	80102c50 	lb	$s0,11344($zero)
ffffffff80108e08:	80102c50 	lb	$s0,11344($zero)
ffffffff80108e0c:	80102c50 	lb	$s0,11344($zero)
ffffffff80108e10:	80102c50 	lb	$s0,11344($zero)
ffffffff80108e14:	80102c50 	lb	$s0,11344($zero)
ffffffff80108e18:	80102c50 	lb	$s0,11344($zero)
ffffffff80108e1c:	80102c50 	lb	$s0,11344($zero)
ffffffff80108e20:	80102c50 	lb	$s0,11344($zero)
ffffffff80108e24:	80102c50 	lb	$s0,11344($zero)
ffffffff80108e28:	80102c50 	lb	$s0,11344($zero)
ffffffff80108e2c:	80102c50 	lb	$s0,11344($zero)
ffffffff80108e30:	80102c50 	lb	$s0,11344($zero)
ffffffff80108e34:	80102c50 	lb	$s0,11344($zero)
ffffffff80108e38:	80102c50 	lb	$s0,11344($zero)
ffffffff80108e3c:	80102c50 	lb	$s0,11344($zero)
ffffffff80108e40:	80102c50 	lb	$s0,11344($zero)
ffffffff80108e44:	80102c50 	lb	$s0,11344($zero)
ffffffff80108e48:	80102c50 	lb	$s0,11344($zero)
ffffffff80108e4c:	80102c50 	lb	$s0,11344($zero)
ffffffff80108e50:	80102c50 	lb	$s0,11344($zero)
ffffffff80108e54:	80102c50 	lb	$s0,11344($zero)
ffffffff80108e58:	80102c50 	lb	$s0,11344($zero)
ffffffff80108e5c:	80102c50 	lb	$s0,11344($zero)
ffffffff80108e60:	80102c50 	lb	$s0,11344($zero)
ffffffff80108e64:	80102c50 	lb	$s0,11344($zero)
ffffffff80108e68:	80102c50 	lb	$s0,11344($zero)
ffffffff80108e6c:	80102c50 	lb	$s0,11344($zero)
ffffffff80108e70:	80102c50 	lb	$s0,11344($zero)
ffffffff80108e74:	80102c50 	lb	$s0,11344($zero)
ffffffff80108e78:	80102c50 	lb	$s0,11344($zero)
ffffffff80108e7c:	80102c50 	lb	$s0,11344($zero)
ffffffff80108e80:	80102c50 	lb	$s0,11344($zero)
ffffffff80108e84:	80102c50 	lb	$s0,11344($zero)
ffffffff80108e88:	80102c50 	lb	$s0,11344($zero)
ffffffff80108e8c:	80102c50 	lb	$s0,11344($zero)
ffffffff80108e90:	80102c50 	lb	$s0,11344($zero)
ffffffff80108e94:	80102c50 	lb	$s0,11344($zero)
ffffffff80108e98:	80102c50 	lb	$s0,11344($zero)
ffffffff80108e9c:	80102c50 	lb	$s0,11344($zero)
ffffffff80108ea0:	80102c50 	lb	$s0,11344($zero)
ffffffff80108ea4:	80102c50 	lb	$s0,11344($zero)
ffffffff80108ea8:	80102c50 	lb	$s0,11344($zero)
ffffffff80108eac:	80102c50 	lb	$s0,11344($zero)
ffffffff80108eb0:	80102c50 	lb	$s0,11344($zero)
ffffffff80108eb4:	80102c50 	lb	$s0,11344($zero)
ffffffff80108eb8:	80102c50 	lb	$s0,11344($zero)
ffffffff80108ebc:	80102c50 	lb	$s0,11344($zero)
ffffffff80108ec0:	80102c50 	lb	$s0,11344($zero)
ffffffff80108ec4:	80102c50 	lb	$s0,11344($zero)
ffffffff80108ec8:	80102c50 	lb	$s0,11344($zero)
ffffffff80108ecc:	80102c50 	lb	$s0,11344($zero)
ffffffff80108ed0:	80102c50 	lb	$s0,11344($zero)
ffffffff80108ed4:	80102c50 	lb	$s0,11344($zero)
ffffffff80108ed8:	80102c50 	lb	$s0,11344($zero)
ffffffff80108edc:	80102c50 	lb	$s0,11344($zero)
ffffffff80108ee0:	80102c50 	lb	$s0,11344($zero)
ffffffff80108ee4:	80102c50 	lb	$s0,11344($zero)
ffffffff80108ee8:	80102c50 	lb	$s0,11344($zero)
ffffffff80108eec:	80102c50 	lb	$s0,11344($zero)
ffffffff80108ef0:	80102c50 	lb	$s0,11344($zero)
ffffffff80108ef4:	80102c50 	lb	$s0,11344($zero)
ffffffff80108ef8:	80102c50 	lb	$s0,11344($zero)
ffffffff80108efc:	80102c50 	lb	$s0,11344($zero)
ffffffff80108f00:	80102c50 	lb	$s0,11344($zero)
ffffffff80108f04:	80102c50 	lb	$s0,11344($zero)
ffffffff80108f08:	80102c50 	lb	$s0,11344($zero)
ffffffff80108f0c:	80102c50 	lb	$s0,11344($zero)
ffffffff80108f10:	80102c50 	lb	$s0,11344($zero)
ffffffff80108f14:	80102c50 	lb	$s0,11344($zero)
ffffffff80108f18:	80102c50 	lb	$s0,11344($zero)
ffffffff80108f1c:	80102c50 	lb	$s0,11344($zero)
ffffffff80108f20:	80102c50 	lb	$s0,11344($zero)
ffffffff80108f24:	80102c50 	lb	$s0,11344($zero)
ffffffff80108f28:	80102c50 	lb	$s0,11344($zero)
ffffffff80108f2c:	80102c50 	lb	$s0,11344($zero)
ffffffff80108f30:	80102c50 	lb	$s0,11344($zero)
ffffffff80108f34:	80102c50 	lb	$s0,11344($zero)
ffffffff80108f38:	80102c50 	lb	$s0,11344($zero)
ffffffff80108f3c:	80102c50 	lb	$s0,11344($zero)
ffffffff80108f40:	80102c50 	lb	$s0,11344($zero)
ffffffff80108f44:	80102c50 	lb	$s0,11344($zero)
ffffffff80108f48:	80102c50 	lb	$s0,11344($zero)
ffffffff80108f4c:	80102c50 	lb	$s0,11344($zero)
ffffffff80108f50:	80102c50 	lb	$s0,11344($zero)
ffffffff80108f54:	80102c50 	lb	$s0,11344($zero)
ffffffff80108f58:	80102c50 	lb	$s0,11344($zero)
ffffffff80108f5c:	80102c50 	lb	$s0,11344($zero)
ffffffff80108f60:	80102c50 	lb	$s0,11344($zero)
ffffffff80108f64:	80102c50 	lb	$s0,11344($zero)
ffffffff80108f68:	80102c50 	lb	$s0,11344($zero)
ffffffff80108f6c:	80102c50 	lb	$s0,11344($zero)
ffffffff80108f70:	80102c50 	lb	$s0,11344($zero)
ffffffff80108f74:	80102c50 	lb	$s0,11344($zero)
ffffffff80108f78:	80102c50 	lb	$s0,11344($zero)
ffffffff80108f7c:	80102c50 	lb	$s0,11344($zero)
ffffffff80108f80:	80102c50 	lb	$s0,11344($zero)
ffffffff80108f84:	80102c50 	lb	$s0,11344($zero)
ffffffff80108f88:	80102c50 	lb	$s0,11344($zero)
ffffffff80108f8c:	80102c50 	lb	$s0,11344($zero)
ffffffff80108f90:	80102c50 	lb	$s0,11344($zero)
ffffffff80108f94:	80102c50 	lb	$s0,11344($zero)
ffffffff80108f98:	80102c50 	lb	$s0,11344($zero)
ffffffff80108f9c:	80102c50 	lb	$s0,11344($zero)
ffffffff80108fa0:	80102c50 	lb	$s0,11344($zero)
ffffffff80108fa4:	80102c50 	lb	$s0,11344($zero)
ffffffff80108fa8:	80102c50 	lb	$s0,11344($zero)
ffffffff80108fac:	80102c50 	lb	$s0,11344($zero)
ffffffff80108fb0:	80102c50 	lb	$s0,11344($zero)
ffffffff80108fb4:	80102c50 	lb	$s0,11344($zero)
ffffffff80108fb8:	80102c50 	lb	$s0,11344($zero)
ffffffff80108fbc:	80102c50 	lb	$s0,11344($zero)
ffffffff80108fc0:	80102c50 	lb	$s0,11344($zero)
ffffffff80108fc4:	80102c50 	lb	$s0,11344($zero)
ffffffff80108fc8:	80102c50 	lb	$s0,11344($zero)
ffffffff80108fcc:	80102c50 	lb	$s0,11344($zero)
ffffffff80108fd0:	80102c50 	lb	$s0,11344($zero)
ffffffff80108fd4:	80102c50 	lb	$s0,11344($zero)
ffffffff80108fd8:	80102c50 	lb	$s0,11344($zero)
ffffffff80108fdc:	80102c50 	lb	$s0,11344($zero)
ffffffff80108fe0:	80102c50 	lb	$s0,11344($zero)
ffffffff80108fe4:	80102c50 	lb	$s0,11344($zero)
ffffffff80108fe8:	80102c50 	lb	$s0,11344($zero)
ffffffff80108fec:	80102c50 	lb	$s0,11344($zero)
ffffffff80108ff0:	80102c50 	lb	$s0,11344($zero)
ffffffff80108ff4:	80102c50 	lb	$s0,11344($zero)
ffffffff80108ff8:	80102c50 	lb	$s0,11344($zero)
ffffffff80108ffc:	80102c50 	lb	$s0,11344($zero)
ffffffff80109000:	80102c50 	lb	$s0,11344($zero)
ffffffff80109004:	80102c50 	lb	$s0,11344($zero)
ffffffff80109008:	80102c50 	lb	$s0,11344($zero)
ffffffff8010900c:	80102c50 	lb	$s0,11344($zero)
ffffffff80109010:	80102c50 	lb	$s0,11344($zero)
ffffffff80109014:	80102c50 	lb	$s0,11344($zero)
ffffffff80109018:	80102c50 	lb	$s0,11344($zero)
ffffffff8010901c:	80102c50 	lb	$s0,11344($zero)
ffffffff80109020:	80102c50 	lb	$s0,11344($zero)
ffffffff80109024:	80102c50 	lb	$s0,11344($zero)
ffffffff80109028:	80102c50 	lb	$s0,11344($zero)
ffffffff8010902c:	80102c50 	lb	$s0,11344($zero)
ffffffff80109030:	80102c50 	lb	$s0,11344($zero)
ffffffff80109034:	80102c50 	lb	$s0,11344($zero)
ffffffff80109038:	80102c50 	lb	$s0,11344($zero)
ffffffff8010903c:	80102c50 	lb	$s0,11344($zero)
ffffffff80109040:	80102c50 	lb	$s0,11344($zero)
ffffffff80109044:	80102c50 	lb	$s0,11344($zero)
ffffffff80109048:	80102c50 	lb	$s0,11344($zero)
ffffffff8010904c:	80102c50 	lb	$s0,11344($zero)
ffffffff80109050:	80102c50 	lb	$s0,11344($zero)

ffffffff80109054 <intConnectCode>:
ffffffff80109054:	3c080000 	lui	$t0,0x0
ffffffff80109058:	3c040000 	lui	$a0,0x0
ffffffff8010905c:	35080000 	ori	$t0,$t0,0x0
ffffffff80109060:	01000008 	jr	$t0
ffffffff80109064:	34840000 	ori	$a0,$a0,0x0
	...

ffffffff80109070 <activeQHead>:
	...

ffffffff80109080 <rootMemNBytes>:
ffffffff80109080:	00000000 	nop

ffffffff80109084 <kernelIntStackBase>:
ffffffff80109084:	00000000 	nop

ffffffff80109088 <kernelIntStackEnd>:
ffffffff80109088:	00000000 	nop

ffffffff8010908c <pRootMemStart>:
ffffffff8010908c:	00000000 	nop

ffffffff80109090 <rootTaskId>:
	...

ffffffff801090a0 <workQIsEmpty>:
ffffffff801090a0:	00000001 	movf	$zero,$zero,$fcc0
	...

ffffffff801090b0 <msgQClassId>:
ffffffff801090b0:	80109320 	lb	$s0,-27872($zero)
	...

ffffffff801090c0 <semBLibInstalled>:
	...

ffffffff801090d0 <semLibInstalled>:
ffffffff801090d0:	00000000 	nop

ffffffff801090d4 <semClassId>:
ffffffff801090d4:	80109850 	lb	$s0,-26544($zero)

ffffffff801090d8 <semGiveTbl>:
ffffffff801090d8:	80104fa0 	lb	$s0,20384($zero)
ffffffff801090dc:	80104fa0 	lb	$s0,20384($zero)
ffffffff801090e0:	80104fa0 	lb	$s0,20384($zero)
ffffffff801090e4:	80104fa0 	lb	$s0,20384($zero)
ffffffff801090e8:	80104fa0 	lb	$s0,20384($zero)
ffffffff801090ec:	80104fa0 	lb	$s0,20384($zero)
ffffffff801090f0:	80104fa0 	lb	$s0,20384($zero)
ffffffff801090f4:	80104fa0 	lb	$s0,20384($zero)

ffffffff801090f8 <semTakeTbl>:
ffffffff801090f8:	80104fa0 	lb	$s0,20384($zero)
ffffffff801090fc:	80104fa0 	lb	$s0,20384($zero)
ffffffff80109100:	80104fa0 	lb	$s0,20384($zero)
ffffffff80109104:	80104fa0 	lb	$s0,20384($zero)
ffffffff80109108:	80104fa0 	lb	$s0,20384($zero)
ffffffff8010910c:	80104fa0 	lb	$s0,20384($zero)
ffffffff80109110:	80104fa0 	lb	$s0,20384($zero)
ffffffff80109114:	80104fa0 	lb	$s0,20384($zero)

ffffffff80109118 <semFlushTbl>:
ffffffff80109118:	80104fa0 	lb	$s0,20384($zero)
ffffffff8010911c:	80104fa0 	lb	$s0,20384($zero)
ffffffff80109120:	80104fa0 	lb	$s0,20384($zero)
ffffffff80109124:	80104fa0 	lb	$s0,20384($zero)
ffffffff80109128:	80104fa0 	lb	$s0,20384($zero)
ffffffff8010912c:	80104fa0 	lb	$s0,20384($zero)
ffffffff80109130:	80104fa0 	lb	$s0,20384($zero)
ffffffff80109134:	80104fa0 	lb	$s0,20384($zero)

ffffffff80109138 <semGiveDeferTbl>:
ffffffff80109138:	80104fa0 	lb	$s0,20384($zero)
ffffffff8010913c:	80104fa0 	lb	$s0,20384($zero)
ffffffff80109140:	80104fa0 	lb	$s0,20384($zero)
ffffffff80109144:	80104fa0 	lb	$s0,20384($zero)
ffffffff80109148:	80104fa0 	lb	$s0,20384($zero)
ffffffff8010914c:	80104fa0 	lb	$s0,20384($zero)
ffffffff80109150:	80104fa0 	lb	$s0,20384($zero)
ffffffff80109154:	80104fa0 	lb	$s0,20384($zero)

ffffffff80109158 <semFlushDeferTbl>:
ffffffff80109158:	80104fa0 	lb	$s0,20384($zero)
ffffffff8010915c:	80104fa0 	lb	$s0,20384($zero)
ffffffff80109160:	80104fa0 	lb	$s0,20384($zero)
ffffffff80109164:	80104fa0 	lb	$s0,20384($zero)
ffffffff80109168:	80104fa0 	lb	$s0,20384($zero)
ffffffff8010916c:	80104fa0 	lb	$s0,20384($zero)
ffffffff80109170:	80104fa0 	lb	$s0,20384($zero)
ffffffff80109174:	80104fa0 	lb	$s0,20384($zero)
	...

ffffffff80109180 <semMGiveKernWork>:
	...

ffffffff80109190 <taskLibInstalled>:
ffffffff80109190:	00000000 	nop

ffffffff80109194 <taskClassId>:
ffffffff80109194:	80109880 	lb	$s0,-26496($zero)

ffffffff80109198 <kernelState>:
ffffffff80109198:	00000000 	nop

ffffffff8010919c <taskIdCurrent>:
ffffffff8010919c:	00000000 	nop

ffffffff801091a0 <kernelIsIdle>:
ffffffff801091a0:	00000000 	nop

ffffffff801091a4 <intCnt>:
ffffffff801091a4:	00000000 	nop

ffffffff801091a8 <taskSrDefault>:
ffffffff801091a8:	3000ff01 	andi	$zero,$zero,0xff01
ffffffff801091ac:	00000000 	nop

ffffffff801091b0 <kernelTicks>:
	...

ffffffff801091c0 <qFifoQueue>:
ffffffff801091c0:	801061b0 	lb	$s0,25008($zero)
ffffffff801091c4:	801061b8 	lb	$s0,25016($zero)
ffffffff801091c8:	801061d8 	lb	$s0,25048($zero)
ffffffff801091cc:	801062b4 	lb	$s0,25268($zero)
ffffffff801091d0:	801061e0 	lb	$s0,25056($zero)
ffffffff801091d4:	80106214 	lb	$s0,25108($zero)
ffffffff801091d8:	80106240 	lb	$s0,25152($zero)
ffffffff801091dc:	801062b4 	lb	$s0,25268($zero)
ffffffff801091e0:	801062b4 	lb	$s0,25268($zero)
ffffffff801091e4:	801062b4 	lb	$s0,25268($zero)
ffffffff801091e8:	801062b4 	lb	$s0,25268($zero)
ffffffff801091ec:	801062b4 	lb	$s0,25268($zero)
ffffffff801091f0:	80106260 	lb	$s0,25184($zero)
ffffffff801091f4:	801091c0 	lb	$s0,-28224($zero)

ffffffff801091f8 <qFifoQueueId>:
ffffffff801091f8:	801091c0 	lb	$s0,-28224($zero)
ffffffff801091fc:	00000000 	nop

ffffffff80109200 <qJobClass>:
ffffffff80109200:	801062c0 	lb	$s0,25280($zero)
ffffffff80109204:	8010631c 	lb	$s0,25372($zero)
ffffffff80109208:	80106368 	lb	$s0,25448($zero)
ffffffff8010920c:	80106398 	lb	$s0,25496($zero)
ffffffff80109210:	801063b8 	lb	$s0,25528($zero)
ffffffff80109214:	801064e8 	lb	$s0,25832($zero)
ffffffff80109218:	80106658 	lb	$s0,26200($zero)
ffffffff8010921c:	80106658 	lb	$s0,26200($zero)
ffffffff80109220:	80106658 	lb	$s0,26200($zero)
ffffffff80109224:	80106658 	lb	$s0,26200($zero)
ffffffff80109228:	80106658 	lb	$s0,26200($zero)
ffffffff8010922c:	80106658 	lb	$s0,26200($zero)
ffffffff80109230:	801065e4 	lb	$s0,26084($zero)
ffffffff80109234:	80109200 	lb	$s0,-28160($zero)

ffffffff80109238 <qJobClassId>:
ffffffff80109238:	80109200 	lb	$s0,-28160($zero)
ffffffff8010923c:	00000000 	nop

ffffffff80109240 <qPriList>:
ffffffff80109240:	80106660 	lb	$s0,26208($zero)
ffffffff80109244:	80106668 	lb	$s0,26216($zero)
ffffffff80109248:	80106688 	lb	$s0,26248($zero)
ffffffff8010924c:	80106690 	lb	$s0,26256($zero)
ffffffff80109250:	80106698 	lb	$s0,26264($zero)
ffffffff80109254:	801066f4 	lb	$s0,26356($zero)
ffffffff80109258:	80106720 	lb	$s0,26400($zero)
ffffffff8010925c:	80106740 	lb	$s0,26432($zero)
ffffffff80109260:	801067dc 	lb	$s0,26588($zero)
ffffffff80109264:	801067e4 	lb	$s0,26596($zero)
ffffffff80109268:	80106850 	lb	$s0,26704($zero)
ffffffff8010926c:	80106824 	lb	$s0,26660($zero)
ffffffff80109270:	80106870 	lb	$s0,26736($zero)
ffffffff80109274:	80109240 	lb	$s0,-28096($zero)

ffffffff80109278 <qPriListId>:
ffffffff80109278:	80109240 	lb	$s0,-28096($zero)
ffffffff8010927c:	00000000 	nop

ffffffff80109280 <classClassId>:
ffffffff80109280:	801098c0 	lb	$s0,-26432($zero)
	...

ffffffff80109290 <memPartLibInstalled>:
ffffffff80109290:	00000000 	nop

ffffffff80109294 <memPartClassId>:
ffffffff80109294:	80109380 	lb	$s0,-27776($zero)

ffffffff80109298 <memSysPartId>:
ffffffff80109298:	801093b0 	lb	$s0,-27728($zero)

ffffffff8010929c <memDefaultAlign>:
ffffffff8010929c:	00000004 	sllv	$zero,$zero,$zero

ffffffff801092a0 <memPartSemInitRtn>:
ffffffff801092a0:	801073a4 	lb	$s0,29604($zero)

ffffffff801092a4 <memPartDefaultOption>:
ffffffff801092a4:	00000110 	0x110
	...

ffffffff801092b0 <excNormVecSize>:
ffffffff801092b0:	00000048 	0x48
	...
